Archive member included to satisfy reference by file (symbol)

c:/program files/microchip/xc32/v2.40/bin/bin/../../lib/gcc/pic32c/6.2.1/../../../../pic32c/lib\libpic32c.a(data_init.o)
                              build/sam_c21n_xpro/debug/_ext/1758384875/startup_xc32.o (__pic32c_data_initialization)
c:/program files/microchip/xc32/v2.40/bin/bin/../../lib/gcc/pic32c/6.2.1\libgcc.a(_udivsi3.o)
                              build/sam_c21n_xpro/debug/_ext/1360937237/canapp.o (__aeabi_uidiv)
c:/program files/microchip/xc32/v2.40/bin/bin/../../lib/gcc/pic32c/6.2.1\libgcc.a(_dvmd_tls.o)
                              c:/program files/microchip/xc32/v2.40/bin/bin/../../lib/gcc/pic32c/6.2.1\libgcc.a(_udivsi3.o) (__aeabi_idiv0)
c:/program files/microchip/xc32/v2.40/bin/bin/../../lib/gcc/pic32c/6.2.1\libgcc.a(_aeabi_uldivmod.o)
                              build/sam_c21n_xpro/debug/_ext/1993392304/plib_sercom1_usart.o (__aeabi_uldivmod)
c:/program files/microchip/xc32/v2.40/bin/bin/../../lib/gcc/pic32c/6.2.1\libgcc.a(_muldi3.o)
                              build/sam_c21n_xpro/debug/_ext/1993392304/plib_sercom1_usart.o (__aeabi_lmul)
c:/program files/microchip/xc32/v2.40/bin/bin/../../lib/gcc/pic32c/6.2.1\libgcc.a(_fixunssfsi.o)
                              build/sam_c21n_xpro/debug/_ext/1451668420/plib_sercom2_i2c_master.o (__aeabi_f2uiz)
c:/program files/microchip/xc32/v2.40/bin/bin/../../lib/gcc/pic32c/6.2.1\libgcc.a(_udivmoddi4.o)
                              c:/program files/microchip/xc32/v2.40/bin/bin/../../lib/gcc/pic32c/6.2.1\libgcc.a(_aeabi_uldivmod.o) (__udivmoddi4)
c:/program files/microchip/xc32/v2.40/bin/bin/../../lib/gcc/pic32c/6.2.1\libgcc.a(addsf3.o)
                              build/sam_c21n_xpro/debug/_ext/1451668420/plib_sercom2_i2c_master.o (__aeabi_fadd)
c:/program files/microchip/xc32/v2.40/bin/bin/../../lib/gcc/pic32c/6.2.1\libgcc.a(divsf3.o)
                              build/sam_c21n_xpro/debug/_ext/1360937237/canapp.o (__aeabi_fdiv)
c:/program files/microchip/xc32/v2.40/bin/bin/../../lib/gcc/pic32c/6.2.1\libgcc.a(mulsf3.o)
                              build/sam_c21n_xpro/debug/_ext/1360937237/canapp.o (__aeabi_fmul)
c:/program files/microchip/xc32/v2.40/bin/bin/../../lib/gcc/pic32c/6.2.1\libgcc.a(subsf3.o)
                              build/sam_c21n_xpro/debug/_ext/1360937237/canapp.o (__aeabi_fsub)
c:/program files/microchip/xc32/v2.40/bin/bin/../../lib/gcc/pic32c/6.2.1\libgcc.a(fixsfsi.o)
                              build/sam_c21n_xpro/debug/_ext/1360937237/canapp.o (__aeabi_f2iz)
c:/program files/microchip/xc32/v2.40/bin/bin/../../lib/gcc/pic32c/6.2.1\libgcc.a(floatsisf.o)
                              build/sam_c21n_xpro/debug/_ext/1360937237/canapp.o (__aeabi_i2f)
c:/program files/microchip/xc32/v2.40/bin/bin/../../lib/gcc/pic32c/6.2.1\libgcc.a(floatunsisf.o)
                              build/sam_c21n_xpro/debug/_ext/1360937237/canapp.o (__aeabi_ui2f)
c:/program files/microchip/xc32/v2.40/bin/bin/../../lib/gcc/pic32c/6.2.1\libgcc.a(muldf3.o)
                              build/sam_c21n_xpro/debug/_ext/1360937237/canapp.o (__aeabi_dmul)
c:/program files/microchip/xc32/v2.40/bin/bin/../../lib/gcc/pic32c/6.2.1\libgcc.a(floatsidf.o)
                              build/sam_c21n_xpro/debug/_ext/1360937237/canapp.o (__aeabi_i2d)
c:/program files/microchip/xc32/v2.40/bin/bin/../../lib/gcc/pic32c/6.2.1\libgcc.a(extendsfdf2.o)
                              build/sam_c21n_xpro/debug/_ext/1360937237/canapp.o (__aeabi_f2d)
c:/program files/microchip/xc32/v2.40/bin/bin/../../lib/gcc/pic32c/6.2.1\libgcc.a(truncdfsf2.o)
                              build/sam_c21n_xpro/debug/_ext/1360937237/canapp.o (__aeabi_d2f)
c:/program files/microchip/xc32/v2.40/bin/bin/../../lib/gcc/pic32c/6.2.1\libgcc.a(_thumb1_case_uqi.o)
                              c:/program files/microchip/xc32/v2.40/bin/bin/../../lib/gcc/pic32c/6.2.1\libgcc.a(divsf3.o) (__gnu_thumb1_case_uqi)
c:/program files/microchip/xc32/v2.40/bin/bin/../../lib/gcc/pic32c/6.2.1\libgcc.a(_thumb1_case_uhi.o)
                              c:/program files/microchip/xc32/v2.40/bin/bin/../../lib/gcc/pic32c/6.2.1\libgcc.a(muldf3.o) (__gnu_thumb1_case_uhi)
c:/program files/microchip/xc32/v2.40/bin/bin/../../lib/gcc/pic32c/6.2.1\libgcc.a(_lshrdi3.o)
                              c:/program files/microchip/xc32/v2.40/bin/bin/../../lib/gcc/pic32c/6.2.1\libgcc.a(_udivmoddi4.o) (__aeabi_llsr)
c:/program files/microchip/xc32/v2.40/bin/bin/../../lib/gcc/pic32c/6.2.1\libgcc.a(_ashldi3.o)
                              c:/program files/microchip/xc32/v2.40/bin/bin/../../lib/gcc/pic32c/6.2.1\libgcc.a(_udivmoddi4.o) (__aeabi_llsl)
c:/program files/microchip/xc32/v2.40/bin/bin/../../lib/gcc/pic32c/6.2.1\libgcc.a(_arm_cmpsf2.o)
                              c:/program files/microchip/xc32/v2.40/bin/bin/../../lib/gcc/pic32c/6.2.1\libgcc.a(_fixunssfsi.o) (__aeabi_fcmpge)
c:/program files/microchip/xc32/v2.40/bin/bin/../../lib/gcc/pic32c/6.2.1\libgcc.a(_clzsi2.o)
                              c:/program files/microchip/xc32/v2.40/bin/bin/../../lib/gcc/pic32c/6.2.1\libgcc.a(addsf3.o) (__clzsi2)
c:/program files/microchip/xc32/v2.40/bin/bin/../../lib/gcc/pic32c/6.2.1\libgcc.a(_clzdi2.o)
                              c:/program files/microchip/xc32/v2.40/bin/bin/../../lib/gcc/pic32c/6.2.1\libgcc.a(_udivmoddi4.o) (__clzdi2)
c:/program files/microchip/xc32/v2.40/bin/bin/../../lib/gcc/pic32c/6.2.1\libgcc.a(eqsf2.o)
                              c:/program files/microchip/xc32/v2.40/bin/bin/../../lib/gcc/pic32c/6.2.1\libgcc.a(_arm_cmpsf2.o) (__eqsf2)
c:/program files/microchip/xc32/v2.40/bin/bin/../../lib/gcc/pic32c/6.2.1\libgcc.a(gesf2.o)
                              c:/program files/microchip/xc32/v2.40/bin/bin/../../lib/gcc/pic32c/6.2.1\libgcc.a(_arm_cmpsf2.o) (__gesf2)
c:/program files/microchip/xc32/v2.40/bin/bin/../../lib/gcc/pic32c/6.2.1\libgcc.a(lesf2.o)
                              c:/program files/microchip/xc32/v2.40/bin/bin/../../lib/gcc/pic32c/6.2.1\libgcc.a(_arm_cmpsf2.o) (__lesf2)
c:/program files/microchip/xc32/v2.40/bin/bin/../../lib/gcc/pic32c/6.2.1/../../../../pic32c/lib\libg_nano.a(lib_a-init.o)
                              build/sam_c21n_xpro/debug/_ext/1758384875/startup_xc32.o (__libc_init_array)
c:/program files/microchip/xc32/v2.40/bin/bin/../../lib/gcc/pic32c/6.2.1/../../../../pic32c/lib\libg_nano.a(lib_a-memcmp.o)
                              build/sam_c21n_xpro/debug/_ext/1019481632/emulated_eeprom.o (memcmp)
c:/program files/microchip/xc32/v2.40/bin/bin/../../lib/gcc/pic32c/6.2.1/../../../../pic32c/lib\libg_nano.a(lib_a-memcpy-stub.o)
                              build/sam_c21n_xpro/debug/_ext/1360937237/canapp.o (memcpy)
c:/program files/microchip/xc32/v2.40/bin/bin/../../lib/gcc/pic32c/6.2.1/../../../../pic32c/lib\libg_nano.a(lib_a-memset.o)
                              build/sam_c21n_xpro/debug/_ext/1360937237/appiot.o (memset)
c:/program files/microchip/xc32/v2.40/bin/bin/../../lib/gcc/pic32c/6.2.1/../../../../pic32c/lib\libg_nano.a(_lib_a-sprintf.cdnopuxX.o)
                              (_sprintf_cdnopuxX)
c:/program files/microchip/xc32/v2.40/bin/bin/../../lib/gcc/pic32c/6.2.1/../../../../pic32c/lib\libg_nano.a(lib_a-strlen.o)
                              build/sam_c21n_xpro/debug/_ext/1639364742/sys_console.o (strlen)
c:/program files/microchip/xc32/v2.40/bin/bin/../../lib/gcc/pic32c/6.2.1/../../../../pic32c/lib\libg_nano.a(_lib_a-nano-vfprintf.cdnopuxX.o)
                              c:/program files/microchip/xc32/v2.40/bin/bin/../../lib/gcc/pic32c/6.2.1/../../../../pic32c/lib\libg_nano.a(_lib_a-sprintf.cdnopuxX.o) (_vfprintf_cdnopuxX)
c:/program files/microchip/xc32/v2.40/bin/bin/../../lib/gcc/pic32c/6.2.1/../../../../pic32c/lib\libg_nano.a(lib_a-nano-vfprintf_i.o)
                              c:/program files/microchip/xc32/v2.40/bin/bin/../../lib/gcc/pic32c/6.2.1/../../../../pic32c/lib\libg_nano.a(_lib_a-nano-vfprintf.cdnopuxX.o) (_printf_common)
c:/program files/microchip/xc32/v2.40/bin/bin/../../lib/gcc/pic32c/6.2.1/../../../../pic32c/lib\libg_nano.a(lib_a-__ssfputs.o)
                              c:/program files/microchip/xc32/v2.40/bin/bin/../../lib/gcc/pic32c/6.2.1/../../../../pic32c/lib\libg_nano.a(_lib_a-nano-vfprintf.cdnopuxX.o) (__ssfputs_r)
c:/program files/microchip/xc32/v2.40/bin/bin/../../lib/gcc/pic32c/6.2.1/../../../../pic32c/lib\libg_nano.a(lib_a-wbuf.o)
                              c:/program files/microchip/xc32/v2.40/bin/bin/../../lib/gcc/pic32c/6.2.1/../../../../pic32c/lib\libg_nano.a(lib_a-__ssfputs.o) (__swbuf_r)
c:/program files/microchip/xc32/v2.40/bin/bin/../../lib/gcc/pic32c/6.2.1/../../../../pic32c/lib\libg_nano.a(lib_a-wsetup.o)
                              c:/program files/microchip/xc32/v2.40/bin/bin/../../lib/gcc/pic32c/6.2.1/../../../../pic32c/lib\libg_nano.a(_lib_a-nano-vfprintf.cdnopuxX.o) (__swsetup_r)
c:/program files/microchip/xc32/v2.40/bin/bin/../../lib/gcc/pic32c/6.2.1/../../../../pic32c/lib\libg_nano.a(lib_a-fflush.o)
                              c:/program files/microchip/xc32/v2.40/bin/bin/../../lib/gcc/pic32c/6.2.1/../../../../pic32c/lib\libg_nano.a(lib_a-wbuf.o) (_fflush_r)
c:/program files/microchip/xc32/v2.40/bin/bin/../../lib/gcc/pic32c/6.2.1/../../../../pic32c/lib\libg_nano.a(lib_a-findfp.o)
                              c:/program files/microchip/xc32/v2.40/bin/bin/../../lib/gcc/pic32c/6.2.1/../../../../pic32c/lib\libg_nano.a(_lib_a-nano-vfprintf.cdnopuxX.o) (__sinit)
c:/program files/microchip/xc32/v2.40/bin/bin/../../lib/gcc/pic32c/6.2.1/../../../../pic32c/lib\libg_nano.a(lib_a-fputwc.o)
                              c:/program files/microchip/xc32/v2.40/bin/bin/../../lib/gcc/pic32c/6.2.1/../../../../pic32c/lib\libg_nano.a(lib_a-__ssfputs.o) (_fputwc_r)
c:/program files/microchip/xc32/v2.40/bin/bin/../../lib/gcc/pic32c/6.2.1/../../../../pic32c/lib\libg_nano.a(lib_a-fwalk.o)
                              c:/program files/microchip/xc32/v2.40/bin/bin/../../lib/gcc/pic32c/6.2.1/../../../../pic32c/lib\libg_nano.a(lib_a-fflush.o) (_fwalk_reent)
c:/program files/microchip/xc32/v2.40/bin/bin/../../lib/gcc/pic32c/6.2.1/../../../../pic32c/lib\libg_nano.a(lib_a-impure.o)
                              c:/program files/microchip/xc32/v2.40/bin/bin/../../lib/gcc/pic32c/6.2.1/../../../../pic32c/lib\libg_nano.a(lib_a-fflush.o) (_global_impure_ptr)
c:/program files/microchip/xc32/v2.40/bin/bin/../../lib/gcc/pic32c/6.2.1/../../../../pic32c/lib\libg_nano.a(lib_a-locale.o)
                              c:/program files/microchip/xc32/v2.40/bin/bin/../../lib/gcc/pic32c/6.2.1/../../../../pic32c/lib\libg_nano.a(lib_a-fputwc.o) (__locale_mb_cur_max)
c:/program files/microchip/xc32/v2.40/bin/bin/../../lib/gcc/pic32c/6.2.1/../../../../pic32c/lib\libg_nano.a(lib_a-makebuf.o)
                              c:/program files/microchip/xc32/v2.40/bin/bin/../../lib/gcc/pic32c/6.2.1/../../../../pic32c/lib\libg_nano.a(lib_a-wsetup.o) (__smakebuf_r)
c:/program files/microchip/xc32/v2.40/bin/bin/../../lib/gcc/pic32c/6.2.1/../../../../pic32c/lib\libg_nano.a(lib_a-mbtowc_r.o)
                              c:/program files/microchip/xc32/v2.40/bin/bin/../../lib/gcc/pic32c/6.2.1/../../../../pic32c/lib\libg_nano.a(lib_a-locale.o) (__ascii_mbtowc)
c:/program files/microchip/xc32/v2.40/bin/bin/../../lib/gcc/pic32c/6.2.1/../../../../pic32c/lib\libg_nano.a(lib_a-memchr-stub.o)
                              c:/program files/microchip/xc32/v2.40/bin/bin/../../lib/gcc/pic32c/6.2.1/../../../../pic32c/lib\libg_nano.a(_lib_a-nano-vfprintf.cdnopuxX.o) (memchr)
c:/program files/microchip/xc32/v2.40/bin/bin/../../lib/gcc/pic32c/6.2.1/../../../../pic32c/lib\libg_nano.a(lib_a-nano-freer.o)
                              c:/program files/microchip/xc32/v2.40/bin/bin/../../lib/gcc/pic32c/6.2.1/../../../../pic32c/lib\libg_nano.a(lib_a-wsetup.o) (_free_r)
c:/program files/microchip/xc32/v2.40/bin/bin/../../lib/gcc/pic32c/6.2.1/../../../../pic32c/lib\libg_nano.a(lib_a-nano-mallocr.o)
                              c:/program files/microchip/xc32/v2.40/bin/bin/../../lib/gcc/pic32c/6.2.1/../../../../pic32c/lib\libg_nano.a(lib_a-findfp.o) (_malloc_r)
c:/program files/microchip/xc32/v2.40/bin/bin/../../lib/gcc/pic32c/6.2.1/../../../../pic32c/lib\libg_nano.a(lib_a-sbrkr.o)
                              c:/program files/microchip/xc32/v2.40/bin/bin/../../lib/gcc/pic32c/6.2.1/../../../../pic32c/lib\libg_nano.a(lib_a-nano-mallocr.o) (_sbrk_r)
c:/program files/microchip/xc32/v2.40/bin/bin/../../lib/gcc/pic32c/6.2.1/../../../../pic32c/lib\libg_nano.a(lib_a-stdio.o)
                              c:/program files/microchip/xc32/v2.40/bin/bin/../../lib/gcc/pic32c/6.2.1/../../../../pic32c/lib\libg_nano.a(lib_a-findfp.o) (__sread)
c:/program files/microchip/xc32/v2.40/bin/bin/../../lib/gcc/pic32c/6.2.1/../../../../pic32c/lib\libg_nano.a(lib_a-strcmp.o)
                              c:/program files/microchip/xc32/v2.40/bin/bin/../../lib/gcc/pic32c/6.2.1/../../../../pic32c/lib\libg_nano.a(lib_a-locale.o) (strcmp)
c:/program files/microchip/xc32/v2.40/bin/bin/../../lib/gcc/pic32c/6.2.1/../../../../pic32c/lib\libg_nano.a(lib_a-wcrtomb.o)
                              c:/program files/microchip/xc32/v2.40/bin/bin/../../lib/gcc/pic32c/6.2.1/../../../../pic32c/lib\libg_nano.a(lib_a-fputwc.o) (_wcrtomb_r)
c:/program files/microchip/xc32/v2.40/bin/bin/../../lib/gcc/pic32c/6.2.1/../../../../pic32c/lib\libg_nano.a(lib_a-wctomb_r.o)
                              c:/program files/microchip/xc32/v2.40/bin/bin/../../lib/gcc/pic32c/6.2.1/../../../../pic32c/lib\libg_nano.a(lib_a-locale.o) (__ascii_wctomb)
c:/program files/microchip/xc32/v2.40/bin/bin/../../lib/gcc/pic32c/6.2.1/../../../../pic32c/lib\libg_nano.a(lib_a-writer.o)
                              c:/program files/microchip/xc32/v2.40/bin/bin/../../lib/gcc/pic32c/6.2.1/../../../../pic32c/lib\libg_nano.a(lib_a-stdio.o) (_write_r)
c:/program files/microchip/xc32/v2.40/bin/bin/../../lib/gcc/pic32c/6.2.1/../../../../pic32c/lib\libg_nano.a(lib_a-closer.o)
                              c:/program files/microchip/xc32/v2.40/bin/bin/../../lib/gcc/pic32c/6.2.1/../../../../pic32c/lib\libg_nano.a(lib_a-stdio.o) (_close_r)
c:/program files/microchip/xc32/v2.40/bin/bin/../../lib/gcc/pic32c/6.2.1/../../../../pic32c/lib\libg_nano.a(lib_a-ctype_.o)
                              c:/program files/microchip/xc32/v2.40/bin/bin/../../lib/gcc/pic32c/6.2.1/../../../../pic32c/lib\libg_nano.a(lib_a-locale.o) (_ctype_)
c:/program files/microchip/xc32/v2.40/bin/bin/../../lib/gcc/pic32c/6.2.1/../../../../pic32c/lib\libg_nano.a(lib_a-fstatr.o)
                              c:/program files/microchip/xc32/v2.40/bin/bin/../../lib/gcc/pic32c/6.2.1/../../../../pic32c/lib\libg_nano.a(lib_a-makebuf.o) (_fstat_r)
c:/program files/microchip/xc32/v2.40/bin/bin/../../lib/gcc/pic32c/6.2.1/../../../../pic32c/lib\libg_nano.a(lib_a-isattyr.o)
                              c:/program files/microchip/xc32/v2.40/bin/bin/../../lib/gcc/pic32c/6.2.1/../../../../pic32c/lib\libg_nano.a(lib_a-makebuf.o) (_isatty_r)
c:/program files/microchip/xc32/v2.40/bin/bin/../../lib/gcc/pic32c/6.2.1/../../../../pic32c/lib\libg_nano.a(lib_a-lseekr.o)
                              c:/program files/microchip/xc32/v2.40/bin/bin/../../lib/gcc/pic32c/6.2.1/../../../../pic32c/lib\libg_nano.a(lib_a-stdio.o) (_lseek_r)
c:/program files/microchip/xc32/v2.40/bin/bin/../../lib/gcc/pic32c/6.2.1/../../../../pic32c/lib\libg_nano.a(lib_a-mlock.o)
                              c:/program files/microchip/xc32/v2.40/bin/bin/../../lib/gcc/pic32c/6.2.1/../../../../pic32c/lib\libg_nano.a(lib_a-nano-freer.o) (__malloc_lock)
c:/program files/microchip/xc32/v2.40/bin/bin/../../lib/gcc/pic32c/6.2.1/../../../../pic32c/lib\libg_nano.a(lib_a-readr.o)
                              c:/program files/microchip/xc32/v2.40/bin/bin/../../lib/gcc/pic32c/6.2.1/../../../../pic32c/lib\libg_nano.a(lib_a-stdio.o) (_read_r)
c:/program files/microchip/xc32/v2.40/bin/bin/../../lib/gcc/pic32c/6.2.1/../../../../pic32c/lib\libg_nano.a(lib_a-reent.o)
                              c:/program files/microchip/xc32/v2.40/bin/bin/../../lib/gcc/pic32c/6.2.1/../../../../pic32c/lib\libg_nano.a(lib_a-sbrkr.o) (errno)
c:/program files/microchip/xc32/v2.40/bin/bin/../../lib/gcc/pic32c/6.2.1/../../../../pic32c/lib\libpic32c.a(_close.o)
                              c:/program files/microchip/xc32/v2.40/bin/bin/../../lib/gcc/pic32c/6.2.1/../../../../pic32c/lib\libg_nano.a(lib_a-closer.o) (_close)
c:/program files/microchip/xc32/v2.40/bin/bin/../../lib/gcc/pic32c/6.2.1/../../../../pic32c/lib\libpic32c.a(_fstat.o)
                              c:/program files/microchip/xc32/v2.40/bin/bin/../../lib/gcc/pic32c/6.2.1/../../../../pic32c/lib\libg_nano.a(lib_a-fstatr.o) (_fstat)
c:/program files/microchip/xc32/v2.40/bin/bin/../../lib/gcc/pic32c/6.2.1/../../../../pic32c/lib\libpic32c.a(_isatty.o)
                              c:/program files/microchip/xc32/v2.40/bin/bin/../../lib/gcc/pic32c/6.2.1/../../../../pic32c/lib\libg_nano.a(lib_a-isattyr.o) (_isatty)
c:/program files/microchip/xc32/v2.40/bin/bin/../../lib/gcc/pic32c/6.2.1/../../../../pic32c/lib\libpic32c.a(_lseek.o)
                              c:/program files/microchip/xc32/v2.40/bin/bin/../../lib/gcc/pic32c/6.2.1/../../../../pic32c/lib\libg_nano.a(lib_a-lseekr.o) (_lseek)
c:/program files/microchip/xc32/v2.40/bin/bin/../../lib/gcc/pic32c/6.2.1/../../../../pic32c/lib\libpic32c.a(_read.o)
                              c:/program files/microchip/xc32/v2.40/bin/bin/../../lib/gcc/pic32c/6.2.1/../../../../pic32c/lib\libg_nano.a(lib_a-readr.o) (_read)
c:/program files/microchip/xc32/v2.40/bin/bin/../../lib/gcc/pic32c/6.2.1/../../../../pic32c/lib\libpic32c.a(sbrk.o)
                              c:/program files/microchip/xc32/v2.40/bin/bin/../../lib/gcc/pic32c/6.2.1/../../../../pic32c/lib\libg_nano.a(lib_a-sbrkr.o) (_sbrk)
c:/program files/microchip/xc32/v2.40/bin/bin/../../lib/gcc/pic32c/6.2.1/../../../../pic32c/lib\libpic32c.a(_write.o)
                              c:/program files/microchip/xc32/v2.40/bin/bin/../../lib/gcc/pic32c/6.2.1/../../../../pic32c/lib\libg_nano.a(lib_a-writer.o) (_write)
c:/program files/microchip/xc32/v2.40/bin/bin/../../lib/gcc/pic32c/6.2.1/../../../../pic32c/lib\libpic32c.a(close.o)
                              c:/program files/microchip/xc32/v2.40/bin/bin/../../lib/gcc/pic32c/6.2.1/../../../../pic32c/lib\libpic32c.a(_close.o) (close)
c:/program files/microchip/xc32/v2.40/bin/bin/../../lib/gcc/pic32c/6.2.1/../../../../pic32c/lib\libpic32c.a(fstat.o)
                              c:/program files/microchip/xc32/v2.40/bin/bin/../../lib/gcc/pic32c/6.2.1/../../../../pic32c/lib\libpic32c.a(_fstat.o) (fstat)
c:/program files/microchip/xc32/v2.40/bin/bin/../../lib/gcc/pic32c/6.2.1/../../../../pic32c/lib\libpic32c.a(isatty.o)
                              c:/program files/microchip/xc32/v2.40/bin/bin/../../lib/gcc/pic32c/6.2.1/../../../../pic32c/lib\libpic32c.a(_isatty.o) (isatty)
c:/program files/microchip/xc32/v2.40/bin/bin/../../lib/gcc/pic32c/6.2.1/../../../../pic32c/lib\libpic32c.a(lseek.o)
                              c:/program files/microchip/xc32/v2.40/bin/bin/../../lib/gcc/pic32c/6.2.1/../../../../pic32c/lib\libpic32c.a(_lseek.o) (lseek)

Allocating common symbols
Common symbol       size              file

timer100ms          0x4               build/sam_c21n_xpro/debug/_ext/1360937237/apptimer.o
_moden              0x4               build/sam_c21n_xpro/debug/_ext/1360937237/moden.o
mqtttime            0x4               build/sam_c21n_xpro/debug/_ext/1360937237/appiot.o
rx_message          0x8               build/sam_c21n_xpro/debug/_ext/1360937237/canapp.o
appCAN              0x1               build/sam_c21n_xpro/debug/_ext/1360937237/canapp.o
timer10ms           0x4               build/sam_c21n_xpro/debug/_ext/1360937237/apptimer.o
errno               0x4               c:/program files/microchip/xc32/v2.40/bin/bin/../../lib/gcc/pic32c/6.2.1/../../../../pic32c/lib\libg_nano.a(lib_a-reent.o)
Can0MessageRAM      0x1e4             build/sam_c21n_xpro/debug/_ext/1360937237/canapp.o
timer1000ms         0x4               build/sam_c21n_xpro/debug/_ext/1360937237/apptimer.o
_moden_cmd_data     0xc               build/sam_c21n_xpro/debug/_ext/1360937237/moden.o
_moden_command      0x2               build/sam_c21n_xpro/debug/_ext/1360937237/moden.o
message             0x8               build/sam_c21n_xpro/debug/_ext/1360937237/canapp.o
_appdata            0x1               build/sam_c21n_xpro/debug/_ext/1360937237/appemueeprom.o
appData             0x1               build/sam_c21n_xpro/debug/_ext/1360937237/app.o
timer1ms            0x4               build/sam_c21n_xpro/debug/_ext/1360937237/apptimer.o
_iotdata            0x1               build/sam_c21n_xpro/debug/_ext/1360937237/appiot.o
mcahineData         0x4               build/sam_c21n_xpro/debug/_ext/1360937237/appiot.o
commandtimeouttimer
                    0x4               build/sam_c21n_xpro/debug/_ext/1360937237/moden.o
CAN_ECU_Data_1      0x40              build/sam_c21n_xpro/debug/_ext/1360937237/canapp.o
sysObj              0x18              build/sam_c21n_xpro/debug/_ext/1758384875/initialization.o
mqtttxbufindex      0x1               build/sam_c21n_xpro/debug/_ext/1360937237/appuart.o
rxBuffer            0x100             build/sam_c21n_xpro/debug/_ext/1360937237/appuart.o
timermqttupload     0x4               build/sam_c21n_xpro/debug/_ext/1360937237/apptimer.o
gblErrLvl           0x1               build/sam_c21n_xpro/debug/_ext/1205691902/sys_debug.o
ecu_init            0x10              build/sam_c21n_xpro/debug/_ext/1360937237/canapp.o
txBuffer            0x400             build/sam_c21n_xpro/debug/_ext/1360937237/appuart.o
_iotram             0x18              build/sam_c21n_xpro/debug/_ext/1360937237/appiot.o
_iottimer           0x10              build/sam_c21n_xpro/debug/_ext/1360937237/appiot.o
platformrxbuffer    0x100             build/sam_c21n_xpro/debug/_ext/1360937237/appuart.o
rx0_buf             0xc8              build/sam_c21n_xpro/debug/_ext/1360937237/canapp.o
_canrx0buffer       0xc8              build/sam_c21n_xpro/debug/_ext/1360937237/canapp.o
_timer              0x1               build/sam_c21n_xpro/debug/_ext/1360937237/apptimer.o
_atcomd             0xc03             build/sam_c21n_xpro/debug/_ext/1360937237/appuart.o

Microchip PIC32 Memory-Usage Report

ROM Program-Memory Usage
section                    address  length [bytes]      (dec)  Description
-------                 ----------  -------------------------  -----------
.vectors                         0           0xbc         188   
.text                         0xbc           0x20          32  App's exec code 
.ARM.exidx                    0xdc            0x8           8   
.dinit                        0xe4          0x4c0        1216   
.text._vfprintf_r_cdnop      0x5a4          0x3dc         988   
.text.CAN0_InterruptHan      0x980          0x27c         636   
.text.SERCOM1_USART_Int      0xbfc          0x21c         540   
.text.SERCOM3_USART_Int      0xe18          0x21c         540   
.text                       0x1034          0x1c0         448  App's exec code 
.text.SERCOM2_I2C_Inter     0x11f4          0x1b0         432   
.rodata                     0x13a4          0x190         400  Read-only const 
.text.SERCOM0_SPI_Inter     0x1534          0x16c         364   
.text.SERCOM0_SPI_Write     0x16a0          0x140         320   
.text.SERCOM1_USART_Ser     0x17e0          0x138         312   
.text.__sflush_r            0x1918          0x114         276   
.text.EMU_EEPROM_PageMa     0x1a2c          0x110         272   
.rodata                     0x1b3c          0x10c         268  Read-only const 
.text.SERCOM1_USART_Wri     0x1c48          0x10c         268   
.text.SERCOM3_USART_Wri     0x1d54          0x10c         268   
.rodata._ctype_             0x1e60          0x101         257   
.text.Dummy_App_Func        0x1f62            0x2           2   
.text.CLOCK_Initialize      0x1f64          0x100         256   
.text._DRV_SPI_PlibCall     0x2064           0xf0         240   
.text.__swsetup_r           0x2154           0xec         236   
.text.CAN0_MessageRAMCo     0x2240           0xe8         232   
.text                       0x2328           0xe2         226  App's exec code 
.text._printf_common        0x240a           0xda         218   
.text._DRV_AT24_Write       0x24e4           0xd8         216   
.text.__swbuf_r             0x25bc           0xcc         204   
.text._I2CEventHandler      0x2688           0xbc         188   
.text._malloc_r             0x2744           0xbc         188   
.text.DRV_SPI_Initializ     0x2800           0xb8         184   
.text.PORT_Initialize       0x28b8           0xa4         164   
.text._DRV_SPI_UpdateTr     0x295c           0xa0         160   
.text.CAN0_MessageRecei     0x29fc           0xa0         160   
.text.DRV_USART_Initial     0x2a9c           0x9c         156   
.text.SYS_Initialize        0x2b38           0x9c         156   
.text.SERCOM1_USART_Rea     0x2bd4           0x94         148   
.text.SERCOM3_USART_Rea     0x2c68           0x94         148   
.text._free_r               0x2cfc           0x94         148   
.text.SERCOM0_SPI_Trans     0x2d90           0x90         144   
.text.__pic32c_data_ini     0x2e20           0x90         144   
.text.NVIC_Initialize       0x2eb0           0x8c         140   
.text                       0x2f3c           0x8c         140  App's exec code 
.text.SERCOM1_USART_Ini     0x2fc8           0x88         136   
.text.SERCOM3_USART_Ini     0x3050           0x88         136   
.text.CAN0_Initialize       0x30d8           0x84         132   
.text.__sfp                 0x315c           0x80         128   
.text.EIC_Initialize        0x31dc           0x7c         124   
.text.__fputwc              0x3258           0x7c         124   
.text.__smakebuf_r          0x32d4           0x7c         124   
.text.timer_main            0x3350           0x78         120   
.text.main                  0x33c8           0x74         116   
.text                       0x343c           0x74         116  App's exec code 
.text.EMU_EEPROM_Initia     0x34b0           0x68         104   
.text.__sinit               0x3518           0x68         104   
.text.SERCOM2_I2C_Initi     0x3580           0x60          96   
.text.can_init              0x35e0           0x5c          92   
.text.DRV_AT24_Initiali     0x363c           0x5c          92   
.text.SYS_CONSOLE_Initi     0x3698           0x5c          92   
.text.moden_main            0x36f4           0x58          88   
.text._fflush_r             0x374c           0x58          88   
.text.can_main              0x37a4           0x54          84   
.text.SERCOM2_I2C_Initi     0x37f8           0x54          84   
.text.ReadMotoID            0x384c           0x50          80   
.text._DRV_USART_RX_PLI     0x389c           0x50          80   
.text.EMU_EEPROM_IsVali     0x38ec           0x50          80   
.text.ADC0_Initialize       0x393c           0x50          80   
.text.__swhatbuf_r          0x398c           0x50          80   
.text._wcrtomb_r            0x39dc           0x4c          76   
.text                       0x3a28           0x48          72  App's exec code 
.text.APP_CAN_RX_Callba     0x3a70           0x48          72   
.text.calculateODO          0x3ab8           0x48          72   
.text.EIC_InterruptHand     0x3b00           0x48          72   
.text.Reset_Handler         0x3b48           0x48          72   
.text.__libc_init_array     0x3b90           0x48          72   
.text.__ssfputs_r           0x3bd8           0x48          72   
.text.std.isra.0            0x3c20           0x48          72   
.text                       0x3c68           0x42          66  App's exec code 
.text._fwalk_reent          0x3caa           0x42          66   
.text.timer_update          0x3cec           0x40          64   
.text.SYSTICK_DelayMs       0x3d2c           0x40          64   
.text                       0x3d6c           0x40          64  App's exec code 
.text._sprintf_cdnopuxX     0x3dac           0x40          64   
.text.SERCOM0_SPI_Initi     0x3dec           0x3c          60   
.text                       0x3e28           0x3c          60  App's exec code 
.text.init_iot              0x3e64           0x38          56   
.text.SERCOM2_I2C_Read      0x3e9c           0x38          56   
.text.SERCOM2_I2C_Write     0x3ed4           0x38          56   
.text.Console_UART_Read     0x3f0c           0x38          56   
.text.Console_UART_Writ     0x3f44           0x38          56   
.text.__swrite              0x3f7c           0x38          56   
.text.init_timer            0x3fb4           0x34          52   
.text.SERCOM2_I2C_Write     0x3fe8           0x34          52   
.text.SYS_CONSOLE_Messa     0x401c           0x34          52   
.rodata                     0x4050           0x33          51  Read-only const 
.text.init_moden            0x4084           0x30          48   
.text.Console_UART_Writ     0x40b4           0x30          48   
.text.Console_UART_Writ     0x40e4           0x30          48   
.text.Console_UART_Read     0x4114           0x30          48   
.text.Console_UART_Read     0x4144           0x30          48   
.text._sbrk                 0x4174           0x30          48   
.text.usartReadEventHan     0x41a4           0x2c          44   
.text.appurat_init          0x41d0           0x2c          44   
.text.CAN0_ErrorGet         0x41fc           0x2c          44   
.rodata.drvUsart0PlibAP     0x4228           0x2c          44   
.rodata.sysConsoleUARTD     0x4254           0x2c          44   
.text.__sfmoreglue          0x4280           0x2c          44   
.text.__sseek               0x42ac           0x2c          44   
.text.__sfputc_r            0x42d8           0x2a          42   
.text.iot_main              0x4302            0x2           2   
.text.ClearRxatcommandb     0x4304           0x28          40   
.rodata.can0ExtFilter       0x432c           0x28          40   
.text.SERCOM2_I2C_IsBus     0x4354           0x28          40   
.rodata.drvSPI0remapDat     0x437c           0x28          40   
.text.__sread               0x43a4           0x28          40   
.text._write_r              0x43cc           0x28          40   
.text._lseek_r              0x43f4           0x28          40   
.text._read_r               0x441c           0x28          40   
.text.SendATCOmmand         0x4444           0x24          36   
.text.readiotdata           0x4468           0x24          36   
.text.SYSTICK_TimerInit     0x448c           0x24          36   
.text.SysTick_Handler       0x44b0           0x24          36   
.rodata.drvSPI0InitData     0x44d4           0x24          36   
.text.__ascii_mbtowc        0x44f8           0x24          36   
.text._sbrk_r               0x451c           0x24          36   
.text._close_r              0x4540           0x24          36   
.text._fstat_r              0x4564           0x24          36   
.text._isatty_r             0x4588           0x24          36   
.text._DRV_AT24_ReadSta     0x45ac           0x20          32   
.text.EMU_EEPROM_NVMRow     0x45cc           0x20          32   
.rodata.drvUsart0InitDa     0x45ec           0x20          32   
.rodata.__sf_fake_stder     0x460c           0x20          32   
.rodata.__sf_fake_stdin     0x462c           0x20          32   
.rodata.__sf_fake_stdou     0x464c           0x20          32   
.text.memcmp                0x466c           0x1e          30   
.text._fputwc_r             0x468a           0x1e          30   
.text.resetiot              0x46a8           0x1c          28   
.text.SERCOM1_USART_Wri     0x46c4           0x1c          28   
.text.SERCOM1_USART_Rea     0x46e0           0x1c          28   
.text.SYS_DEBUG_Initial     0x46fc           0x1c          28   
.text.SERCOM3_USART_Wri     0x4718           0x1c          28   
.text.SERCOM3_USART_Rea     0x4734           0x1c          28   
.text.__locale_mb_cur_m     0x4750           0x1c          28   
.text.APP_CAN_TX_Callba     0x476c           0x18          24   
.text.NVMCTRL_RWWEEPROM     0x4784           0x18          24   
.rodata.drvAT24InitData     0x479c           0x18          24   
.rodata.drvAT24PlibAPI      0x47b4           0x18          24   
.rodata.drvUsart0remapP     0x47cc           0x18          24   
.rodata.sysConsole0UART     0x47e4           0x18          24   
.text.Console_UART_Init     0x47fc           0x18          24   
.text                       0x4814           0x48          72  App's exec code 
.text._vfprintf_cdnopux     0x485c           0x18          24   
.text.__ascii_wctomb        0x4874           0x18          24   
.text.memchr                0x488c           0x16          22   
.text.emnueeprom_init       0x48a2            0x2           2   
.text.initmachinestates     0x48a4           0x14          20   
.text.ClearRx0              0x48b8           0x14          20   
.text.ClerCAN_ECU           0x48cc           0x14          20   
.text.CAN0_RxCallbackRe     0x48e0           0x14          20   
.text.NVIC_INT_Restore      0x48f4           0x14          20   
.text.NVMCTRL_IsBusy        0x4908           0x14          20   
.text.SERCOM0_SPI_IsTra     0x491c           0x14          20   
.text.SERCOM1_USART_Wri     0x4930           0x14          20   
.text.SYSTICK_TimerStar     0x4944           0x14          20   
.text.WDT_Clear             0x4958           0x14          20   
.rodata.drvUsart0remapD     0x496c           0x14          20   
.text.Console_UART_Stat     0x4980           0x14          20   
.text.SERCOM3_USART_Rea     0x4994           0x14          20   
.text.SERCOM3_USART_Wri     0x49a8           0x14          20   
.text                       0x49bc           0x14          20  App's exec code 
.text.enable_CAN            0x49d0           0x12          18   
.text.standby_CAN           0x49e2           0x12          18   
.text.NVIC_INT_Disable      0x49f4           0x12          18   
.text.Console_UART_Reso     0x4a06           0x12          18   
.text.memcpy                0x4a18           0x12          18   
.text.EVSYS_Initialize      0x4a2a            0x2           2   
.text.incmqtttimer          0x4a2c           0x10          16   
.text.inccanbussleeptim     0x4a3c           0x10          16   
.text._DRV_USART_TX_PLI     0x4a4c           0x10          16   
.text.CAN0_TxCallbackRe     0x4a5c           0x10          16   
.rodata                     0x4a6c           0x10          16  Read-only const 
.text.SERCOM2_I2C_Error     0x4a7c           0x10          16   
.text.SERCOM1_USART_Err     0x4a8c           0x10          16   
.rodata.drvSPI0Interrup     0x4a9c           0x10          16   
.rodata.drvSPI0PlibAPI      0x4aac           0x10          16   
.text.memset                0x4abc           0x10          16   
.text._cleanup_r            0x4acc           0x10          16   
.text                       0x4adc            0xe          14  App's exec code 
.text.Dummy_Handler         0x4aea            0x2           2   
.text.setmcahinestates      0x4aec            0xc          12   
.text.readmcahinestates     0x4af8            0xc          12   
.text.init_can              0x4b04            0xc          12   
.text.readcanbussleepti     0x4b10            0xc          12   
.text.set_canstatenew       0x4b1c            0xc          12   
.text.usartWriteEventHa     0x4b28            0xc          12   
.text.readOdoFromRam        0x4b34            0xc          12   
.text.platform_get_time     0x4b40            0xc          12   
.text.CAN0_InterruptCle     0x4b4c            0xc          12   
.text.NVMCTRL_Initializ     0x4b58            0xc          12   
.text.PORT_GroupWrite       0x4b64            0xc          12   
.text.SERCOM2_I2C_Callb     0x4b70            0xc          12   
.text.SERCOM0_SPI_Callb     0x4b7c            0xc          12   
.text.SERCOM1_USART_Rea     0x4b88            0xc          12   
.text.SERCOM1_USART_Wri     0x4b94            0xc          12   
.text.SYSTICK_TimerCall     0x4ba0            0xc          12   
.rodata.drvUsart0remapE     0x4bac            0xc          12   
.rodata.drvUsart0remapS     0x4bb8            0xc          12   
.rodata.sysConsole0Init     0x4bc4            0xc          12   
.text.APP_Initialize        0x4bd0            0xc          12   
.text.SYS_DEBUG_Console     0x4bdc            0xc          12   
.text.SYS_DEBUG_ErrorLe     0x4be8            0xc          12   
.text.__sclose              0x4bf4            0xc          12   
.text.fstat                 0x4c00            0xc          12   
.rodata                     0x4c0c            0xb          11  Read-only const 
.rodata                     0x4c18           0x10          16  Read-only const 
.text.SERCOM1_USART_Wri     0x4c28            0x8           8   
.text.SYS_INT_Disable       0x4c30            0x8           8   
.text.SYS_INT_Restore       0x4c38            0x8           8   
.rodata.drvSPI0remapClo     0x4c40            0x8           8   
.rodata.drvSPI0remapClo     0x4c48            0x8           8   
.text.timeout_handler       0x4c50            0x8           8   
.text.SERCOM3_USART_Wri     0x4c58            0x8           8   
.text._close                0x4c60            0x8           8   
.text._fstat                0x4c68            0x8           8   
.text._isatty               0x4c70            0x8           8   
.text._lseek                0x4c78            0x8           8   
.text._read                 0x4c80            0x8           8   
.text._write                0x4c88            0x8           8   
.text.close                 0x4c90            0x8           8   
.text.read                  0x4c98            0x6           6   
.text.write                 0x4c9e            0x6           6   
.rodata.can0StdFilter       0x4ca4            0x4           4   
.text.PORT_GroupSet         0x4ca8            0x4           4   
.text.PORT_GroupClear       0x4cac            0x4           4   
.rodata.debugInit           0x4cb0            0x4           4   
.rodata.sysConsole0UART     0x4cb4            0x4           4   
.text.NonMaskableInt_Ha     0x4cb8            0x4           4   
.text.HardFault_Handler     0x4cbc            0x4           4   
.text.Console_UART_Flus     0x4cc0            0x4           4   
.text                       0x4cc4            0x4           4  App's exec code 
.rodata._global_impure_     0x4cc8            0x4           4   
.text.isatty                0x4ccc            0x4           4   
.text.lseek                 0x4cd0            0x4           4   
.text.Console_UART_Task     0x4cd4            0x2           2   
.text.__malloc_lock         0x4cd6            0x2           2   
.text.__malloc_unlock       0x4cd8            0x2           2   
      Total ROM used  :      0x4cd7       19671  7.5% of 0x40000
        --------------------------------------------------------------------------
         Total Program Memory used  :      0x4cd7       19671  7.5% of 0x40000
        --------------------------------------------------------------------------


RAM Data-Memory Usage
section                    address  length [bytes]      (dec)  Description
-------                 ----------  -------------------------  -----------
.bss                    0x20000000         0x168c        5772  Uninitialized data 
.bss.can0RxMsg          0x2000168c          0x190         400   
.data.__global_locale   0x2000181c          0x16c         364   
.bss.eicCallbackObject  0x20001988           0xc0         192   
.bss.iot                0x20001a48           0x9c         156   
.bss.drvSPI0TransferObj 0x20001ae4           0x90         144   
.bss._eeprom_instance   0x20001b74           0x8c         140   
.bss.SERCOM1_USART_Read 0x20001c00           0x80         128   
.bss.SERCOM1_USART_Writ 0x20001c80           0x80         128   
.bss.SERCOM3_USART_Read 0x20001d00           0x80         128   
.bss.SERCOM3_USART_Writ 0x20001d80           0x80         128   
.data.impure_data       0x20001e00           0x60          96   
.bss.gDrvSPIObj         0x20001e60           0x54          84   
.bss.gDrvAT24Obj        0x20001eb4           0x50          80   
.bss.gDrvUSARTObj       0x20001f04           0x40          64   
.bss.sercom1USARTObj    0x20001f44           0x40          64   
.bss.sercom3USARTObj    0x20001f84           0x40          64   
.bss.MeterMqttData      0x20001fc4           0x2c          44   
.bss.sercom2I2CObj      0x20001ff0           0x2c          44   
.bss.sercom0SPIObj      0x2000201c           0x2c          44   
.bss.can0Obj            0x20002048           0x28          40   
.bss.drvSPI0ClientObjPo 0x20002070           0x28          40   
.bss.can0CallbackObj    0x20002098           0x20          32   
.bss                    0x200020b8           0x1c          28  Uninitialized data 
.bss.drvUSART0ClientObj 0x200020d4           0x10          16   
.bss.systick            0x200020e4            0xc          12   
.bss.consoleDeviceInsta 0x200020f0            0xc          12   
.bss.gConsoleUartData   0x200020fc            0x8           8   
.bss.ODOVALUE           0x20002104            0x4           4   
.bss.ODO_PRE            0x20002108            0x4           4   
.bss._f_ODOVALUE        0x2000210c            0x4           4   
.bss.canbussleeptimer   0x20002110            0x4           4   
.bss.messageID          0x20002114            0x4           4   
.bss.rx_messageID       0x20002118            0x4           4   
.bss.nBytesRead         0x2000211c            0x4           4   
.bss.sysDebugInstance   0x20002120            0x4           4   
.data._impure_ptr       0x20002124            0x4           4   
.bss.__malloc_free_list 0x20002128            0x4           4   
.bss.__malloc_sbrk_star 0x2000212c            0x4           4   
.bss                    0x20002130            0x4           4  Uninitialized data 
.bss.STATUS_RX_COMPLETE 0x20002134            0x1           1   
.bss._canstate          0x20002135            0x1           1   
.bss._canstatenew       0x20002136            0x1           1   
.bss.msgFrameAttr       0x20002137            0x1           1   
.bss.odocnt             0x20002138            0x1           1   
.bss.rx_messageLength   0x20002139            0x1           1   
.data.STATUS_RX_PREPARE 0x2000213a            0x1           1   
.bss.atcomdindex        0x2000213b            0x1           1   
.bss.txThresholdEventRe 0x2000213c            0x1           1   
.bss.uarttxbufferindex  0x2000213d            0x1           1   
.bss.isLastByteTransfer 0x2000213e            0x1           1   
.bss.consolePrintBuffer 0x2000213f            0x1           1   
.bss.isConsoleMutexCrea 0x20002140            0x1           1   
         Total RAM used  :      0x2141        8513  26.0% of 0x8000
        --------------------------------------------------------------------------
            Total Data Memory used  :      0x2141        8513  26.0% of 0x8000
        --------------------------------------------------------------------------


Dynamic Data-Memory Reservation
section                    address  length [bytes]      (dec)  Description
-------                 ----------  -------------------------  -----------
heap                    0x20002148          0x200         512  Reserved for heap 
stack                   0x20002360         0x5c90       23696  Reserved for stack 

        --------------------------------------------------------------------------

Discarded input sections

 .text          0x00000000        0x0 c:/program files/microchip/xc32/v2.40/bin/bin/../../lib/gcc/pic32c/6.2.1/crti.o
 .data          0x00000000        0x0 c:/program files/microchip/xc32/v2.40/bin/bin/../../lib/gcc/pic32c/6.2.1/crti.o
 .bss           0x00000000        0x0 c:/program files/microchip/xc32/v2.40/bin/bin/../../lib/gcc/pic32c/6.2.1/crti.o
 .data          0x00000000        0x4 c:/program files/microchip/xc32/v2.40/bin/bin/../../lib/gcc/pic32c/6.2.1/crtbegin.o
 .text          0x00000000        0x0 build/sam_c21n_xpro/debug/_ext/1360937237/appiot.o
 .data          0x00000000        0x0 build/sam_c21n_xpro/debug/_ext/1360937237/appiot.o
 .bss           0x00000000        0x0 build/sam_c21n_xpro/debug/_ext/1360937237/appiot.o
 .text.setiotstate
                0x00000000        0xc build/sam_c21n_xpro/debug/_ext/1360937237/appiot.o
 .text.updateiotodo
                0x00000000        0xc build/sam_c21n_xpro/debug/_ext/1360937237/appiot.o
 .text.setnetworkstates
                0x00000000        0xc build/sam_c21n_xpro/debug/_ext/1360937237/appiot.o
 .text.setmqttstates
                0x00000000        0xc build/sam_c21n_xpro/debug/_ext/1360937237/appiot.o
 .text          0x00000000        0x0 build/sam_c21n_xpro/debug/_ext/1360937237/moden.o
 .data          0x00000000        0x0 build/sam_c21n_xpro/debug/_ext/1360937237/moden.o
 .bss           0x00000000        0x0 build/sam_c21n_xpro/debug/_ext/1360937237/moden.o
 .text.readmodenstatue
                0x00000000        0xc build/sam_c21n_xpro/debug/_ext/1360937237/moden.o
 .text.setmoden
                0x00000000        0xc build/sam_c21n_xpro/debug/_ext/1360937237/moden.o
 .text.setldoon
                0x00000000        0xa build/sam_c21n_xpro/debug/_ext/1360937237/moden.o
 .text.setldoff
                0x00000000        0xa build/sam_c21n_xpro/debug/_ext/1360937237/moden.o
 .text          0x00000000        0x0 build/sam_c21n_xpro/debug/_ext/1360937237/canapp.o
 .data          0x00000000        0x0 build/sam_c21n_xpro/debug/_ext/1360937237/canapp.o
 .bss           0x00000000        0x0 build/sam_c21n_xpro/debug/_ext/1360937237/canapp.o
 .text.ClearRx0buffeerarr
                0x00000000       0x14 build/sam_c21n_xpro/debug/_ext/1360937237/canapp.o
 .text.SetCanBusState
                0x00000000        0x2 build/sam_c21n_xpro/debug/_ext/1360937237/canapp.o
 .text.SetCANData1
                0x00000000       0x4c build/sam_c21n_xpro/debug/_ext/1360937237/canapp.o
 .text.SetCANData3
                0x00000000       0x10 build/sam_c21n_xpro/debug/_ext/1360937237/canapp.o
 .text.SetCANData4
                0x00000000       0x5c build/sam_c21n_xpro/debug/_ext/1360937237/canapp.o
 .text.fill_batvoltage
                0x00000000       0x48 build/sam_c21n_xpro/debug/_ext/1360937237/canapp.o
 .text.fill_motorpm
                0x00000000       0xc0 build/sam_c21n_xpro/debug/_ext/1360937237/canapp.o
 .text.fill_crankrpm
                0x00000000       0x40 build/sam_c21n_xpro/debug/_ext/1360937237/canapp.o
 .text.fill_mototempture
                0x00000000       0x34 build/sam_c21n_xpro/debug/_ext/1360937237/canapp.o
 .text.fill_speed
                0x00000000       0x34 build/sam_c21n_xpro/debug/_ext/1360937237/canapp.o
 .text.fill_bikegrade
                0x00000000       0x68 build/sam_c21n_xpro/debug/_ext/1360937237/canapp.o
 .text.fill_ecuwarncode
                0x00000000       0x18 build/sam_c21n_xpro/debug/_ext/1360937237/canapp.o
 .text.fill_ecuerrorcode
                0x00000000       0x18 build/sam_c21n_xpro/debug/_ext/1360937237/canapp.o
 .text.fill_crankavgpower
                0x00000000       0x48 build/sam_c21n_xpro/debug/_ext/1360937237/canapp.o
 .text.fill_motoavgpower
                0x00000000       0x48 build/sam_c21n_xpro/debug/_ext/1360937237/canapp.o
 .text.fillbatterysoc
                0x00000000       0x1c build/sam_c21n_xpro/debug/_ext/1360937237/canapp.o
 .text.fillodo  0x00000000       0x48 build/sam_c21n_xpro/debug/_ext/1360937237/canapp.o
 .text.init_ODO
                0x00000000       0x38 build/sam_c21n_xpro/debug/_ext/1360937237/canapp.o
 .text.precalculateODO
                0x00000000       0x2c build/sam_c21n_xpro/debug/_ext/1360937237/canapp.o
 .text.SetCANData2
                0x00000000       0x20 build/sam_c21n_xpro/debug/_ext/1360937237/canapp.o
 .text.clearcanbussleeptimer
                0x00000000        0xc build/sam_c21n_xpro/debug/_ext/1360937237/canapp.o
 .text.read__canstatenew
                0x00000000        0xc build/sam_c21n_xpro/debug/_ext/1360937237/canapp.o
 .text.entrySleep
                0x00000000        0x2 build/sam_c21n_xpro/debug/_ext/1360937237/canapp.o
 .bss.STATUS_TX_PREPARE
                0x00000000        0x1 build/sam_c21n_xpro/debug/_ext/1360937237/canapp.o
 .bss.rx0ReadIndex
                0x00000000        0x1 build/sam_c21n_xpro/debug/_ext/1360937237/canapp.o
 .bss.rx0Writeindex
                0x00000000        0x1 build/sam_c21n_xpro/debug/_ext/1360937237/canapp.o
 .data.state    0x00000000        0x1 build/sam_c21n_xpro/debug/_ext/1360937237/canapp.o
 .text          0x00000000        0x0 build/sam_c21n_xpro/debug/_ext/1360937237/appuart.o
 .data          0x00000000        0x0 build/sam_c21n_xpro/debug/_ext/1360937237/appuart.o
 .bss           0x00000000        0x0 build/sam_c21n_xpro/debug/_ext/1360937237/appuart.o
 .text.app_uartmain
                0x00000000        0x2 build/sam_c21n_xpro/debug/_ext/1360937237/appuart.o
 .text.uart_read
                0x00000000       0x30 build/sam_c21n_xpro/debug/_ext/1360937237/appuart.o
 .text.platform_uart_read
                0x00000000       0x30 build/sam_c21n_xpro/debug/_ext/1360937237/appuart.o
 .text.platform_uart_write
                0x00000000       0x48 build/sam_c21n_xpro/debug/_ext/1360937237/appuart.o
 .bss.nBytes    0x00000000        0x4 build/sam_c21n_xpro/debug/_ext/1360937237/appuart.o
 .bss.platformnBytesRead
                0x00000000        0x1 build/sam_c21n_xpro/debug/_ext/1360937237/appuart.o
 .bss.rxThresholdEventReceived
                0x00000000        0x1 build/sam_c21n_xpro/debug/_ext/1360937237/appuart.o
 .text          0x00000000        0x0 build/sam_c21n_xpro/debug/_ext/1360937237/appemueeprom.o
 .data          0x00000000        0x0 build/sam_c21n_xpro/debug/_ext/1360937237/appemueeprom.o
 .bss           0x00000000        0x0 build/sam_c21n_xpro/debug/_ext/1360937237/appemueeprom.o
 .text.clearemueeprom
                0x00000000        0xc build/sam_c21n_xpro/debug/_ext/1360937237/appemueeprom.o
 .text.ReadDaraFromEEPROM
                0x00000000        0x2 build/sam_c21n_xpro/debug/_ext/1360937237/appemueeprom.o
 .text.WriteDaraToEEPROM
                0x00000000        0x2 build/sam_c21n_xpro/debug/_ext/1360937237/appemueeprom.o
 .text.writeiotdata
                0x00000000       0x28 build/sam_c21n_xpro/debug/_ext/1360937237/appemueeprom.o
 .text.writeOdoToRam
                0x00000000        0xc build/sam_c21n_xpro/debug/_ext/1360937237/appemueeprom.o
 .text.emueeprom_main
                0x00000000        0x2 build/sam_c21n_xpro/debug/_ext/1360937237/appemueeprom.o
 .bss.testData  0x00000000       0x2c build/sam_c21n_xpro/debug/_ext/1360937237/appemueeprom.o
 COMMON         0x00000000        0x1 build/sam_c21n_xpro/debug/_ext/1360937237/appemueeprom.o
 .text          0x00000000        0x0 build/sam_c21n_xpro/debug/_ext/1360937237/apptimer.o
 .data          0x00000000        0x0 build/sam_c21n_xpro/debug/_ext/1360937237/apptimer.o
 .bss           0x00000000        0x0 build/sam_c21n_xpro/debug/_ext/1360937237/apptimer.o
 .text.readsystick
                0x00000000        0xc build/sam_c21n_xpro/debug/_ext/1360937237/apptimer.o
 .text          0x00000000        0x0 build/sam_c21n_xpro/debug/_ext/1936826263/drv_at24.o
 .data          0x00000000        0x0 build/sam_c21n_xpro/debug/_ext/1936826263/drv_at24.o
 .bss           0x00000000        0x0 build/sam_c21n_xpro/debug/_ext/1936826263/drv_at24.o
 .text.DRV_AT24_Status
                0x00000000        0xc build/sam_c21n_xpro/debug/_ext/1936826263/drv_at24.o
 .text.DRV_AT24_Open
                0x00000000       0x44 build/sam_c21n_xpro/debug/_ext/1936826263/drv_at24.o
 .text.DRV_AT24_Close
                0x00000000       0x14 build/sam_c21n_xpro/debug/_ext/1936826263/drv_at24.o
 .text.DRV_AT24_EventHandlerSet
                0x00000000       0x18 build/sam_c21n_xpro/debug/_ext/1936826263/drv_at24.o
 .text.DRV_AT24_Read
                0x00000000       0xac build/sam_c21n_xpro/debug/_ext/1936826263/drv_at24.o
 .text.DRV_AT24_Write
                0x00000000       0x38 build/sam_c21n_xpro/debug/_ext/1936826263/drv_at24.o
 .text.DRV_AT24_PageWrite
                0x00000000       0x14 build/sam_c21n_xpro/debug/_ext/1936826263/drv_at24.o
 .text.DRV_AT24_TransferStatusGet
                0x00000000       0x18 build/sam_c21n_xpro/debug/_ext/1936826263/drv_at24.o
 .text.DRV_AT24_GeometryGet
                0x00000000       0x58 build/sam_c21n_xpro/debug/_ext/1936826263/drv_at24.o
 .text          0x00000000        0x0 build/sam_c21n_xpro/debug/_ext/513394604/drv_spi.o
 .data          0x00000000        0x0 build/sam_c21n_xpro/debug/_ext/513394604/drv_spi.o
 .bss           0x00000000        0x0 build/sam_c21n_xpro/debug/_ext/513394604/drv_spi.o
 .text._DRV_SPI_DriverHandleValidate
                0x00000000       0x4c build/sam_c21n_xpro/debug/_ext/513394604/drv_spi.o
 .text._DRV_SPI_ResourceLock
                0x00000000       0x78 build/sam_c21n_xpro/debug/_ext/513394604/drv_spi.o
 .text._DRV_SPI_ResourceUnlock
                0x00000000       0x68 build/sam_c21n_xpro/debug/_ext/513394604/drv_spi.o
 .text.DRV_SPI_Status
                0x00000000       0x34 build/sam_c21n_xpro/debug/_ext/513394604/drv_spi.o
 .text.DRV_SPI_Open
                0x00000000      0x140 build/sam_c21n_xpro/debug/_ext/513394604/drv_spi.o
 .text.DRV_SPI_Close
                0x00000000      0x114 build/sam_c21n_xpro/debug/_ext/513394604/drv_spi.o
 .text.DRV_SPI_TransferEventHandlerSet
                0x00000000       0x64 build/sam_c21n_xpro/debug/_ext/513394604/drv_spi.o
 .text.DRV_SPI_TransferSetup
                0x00000000       0x94 build/sam_c21n_xpro/debug/_ext/513394604/drv_spi.o
 .text.DRV_SPI_WriteReadTransferAdd
                0x00000000      0x1ec build/sam_c21n_xpro/debug/_ext/513394604/drv_spi.o
 .text.DRV_SPI_WriteTransferAdd
                0x00000000       0x12 build/sam_c21n_xpro/debug/_ext/513394604/drv_spi.o
 .text.DRV_SPI_ReadTransferAdd
                0x00000000       0x16 build/sam_c21n_xpro/debug/_ext/513394604/drv_spi.o
 .text.DRV_SPI_TransferStatusGet
                0x00000000       0x7c build/sam_c21n_xpro/debug/_ext/513394604/drv_spi.o
 .text.DRV_SPI_Lock
                0x00000000       0xc4 build/sam_c21n_xpro/debug/_ext/513394604/drv_spi.o
 .text          0x00000000        0x0 build/sam_c21n_xpro/debug/_ext/1274584173/drv_usart.o
 .data          0x00000000        0x0 build/sam_c21n_xpro/debug/_ext/1274584173/drv_usart.o
 .bss           0x00000000        0x0 build/sam_c21n_xpro/debug/_ext/1274584173/drv_usart.o
 .text._DRV_USART_DriverHandleValidate
                0x00000000       0x48 build/sam_c21n_xpro/debug/_ext/1274584173/drv_usart.o
 .text.DRV_USART_Status
                0x00000000       0x14 build/sam_c21n_xpro/debug/_ext/1274584173/drv_usart.o
 .text.DRV_USART_Open
                0x00000000       0xf4 build/sam_c21n_xpro/debug/_ext/1274584173/drv_usart.o
 .text.DRV_USART_SerialSetup
                0x00000000       0x6a build/sam_c21n_xpro/debug/_ext/1274584173/drv_usart.o
 .text.DRV_USART_Close
                0x00000000       0x2a build/sam_c21n_xpro/debug/_ext/1274584173/drv_usart.o
 .text.DRV_USART_ErrorGet
                0x00000000       0x12 build/sam_c21n_xpro/debug/_ext/1274584173/drv_usart.o
 .text.DRV_USART_WriteBuffer
                0x00000000       0x72 build/sam_c21n_xpro/debug/_ext/1274584173/drv_usart.o
 .text.DRV_USART_ReadBuffer
                0x00000000       0x72 build/sam_c21n_xpro/debug/_ext/1274584173/drv_usart.o
 .text          0x00000000        0x0 build/sam_c21n_xpro/debug/_ext/1019481632/emulated_eeprom.o
 .data          0x00000000        0x0 build/sam_c21n_xpro/debug/_ext/1019481632/emulated_eeprom.o
 .bss           0x00000000        0x0 build/sam_c21n_xpro/debug/_ext/1019481632/emulated_eeprom.o
 .text.EMU_EEPROM_PageDataRead
                0x00000000       0x64 build/sam_c21n_xpro/debug/_ext/1019481632/emulated_eeprom.o
 .text.EMU_EEPROM_NVMBufferCommit
                0x00000000       0x1c build/sam_c21n_xpro/debug/_ext/1019481632/emulated_eeprom.o
 .text.EMU_EEPROM_CachedDataCommit
                0x00000000       0x30 build/sam_c21n_xpro/debug/_ext/1019481632/emulated_eeprom.o
 .text.EMU_EEPROM_PageDataWrite
                0x00000000      0x1f8 build/sam_c21n_xpro/debug/_ext/1019481632/emulated_eeprom.o
 .text.EMU_EEPROM_StatusGet
                0x00000000        0xc build/sam_c21n_xpro/debug/_ext/1019481632/emulated_eeprom.o
 .text.EMU_EEPROM_ParametersGet
                0x00000000       0x28 build/sam_c21n_xpro/debug/_ext/1019481632/emulated_eeprom.o
 .text.EMU_EEPROM_PageBufferCommit
                0x00000000       0x28 build/sam_c21n_xpro/debug/_ext/1019481632/emulated_eeprom.o
 .text.EMU_EEPROM_FormatMemory
                0x00000000      0x10c build/sam_c21n_xpro/debug/_ext/1019481632/emulated_eeprom.o
 .text.EMU_EEPROM_PageWrite
                0x00000000       0x2c build/sam_c21n_xpro/debug/_ext/1019481632/emulated_eeprom.o
 .text.EMU_EEPROM_PageRead
                0x00000000       0x2c build/sam_c21n_xpro/debug/_ext/1019481632/emulated_eeprom.o
 .text.EMU_EEPROM_BufferWrite
                0x00000000      0x104 build/sam_c21n_xpro/debug/_ext/1019481632/emulated_eeprom.o
 .text.EMU_EEPROM_BufferRead
                0x00000000       0xd8 build/sam_c21n_xpro/debug/_ext/1019481632/emulated_eeprom.o
 .text          0x00000000        0x0 build/sam_c21n_xpro/debug/_ext/1617700295/plib_adc0.o
 .data          0x00000000        0x0 build/sam_c21n_xpro/debug/_ext/1617700295/plib_adc0.o
 .bss           0x00000000        0x0 build/sam_c21n_xpro/debug/_ext/1617700295/plib_adc0.o
 .text.ADC0_Enable
                0x00000000       0x18 build/sam_c21n_xpro/debug/_ext/1617700295/plib_adc0.o
 .text.ADC0_Disable
                0x00000000       0x18 build/sam_c21n_xpro/debug/_ext/1617700295/plib_adc0.o
 .text.ADC0_ChannelSelect
                0x00000000       0x18 build/sam_c21n_xpro/debug/_ext/1617700295/plib_adc0.o
 .text.ADC0_ConversionStart
                0x00000000       0x1c build/sam_c21n_xpro/debug/_ext/1617700295/plib_adc0.o
 .text.ADC0_ConversionSequenceIsFinished
                0x00000000       0x10 build/sam_c21n_xpro/debug/_ext/1617700295/plib_adc0.o
 .text.ADC0_ComparisonWindowSet
                0x00000000       0x18 build/sam_c21n_xpro/debug/_ext/1617700295/plib_adc0.o
 .text.ADC0_WindowModeSet
                0x00000000       0x20 build/sam_c21n_xpro/debug/_ext/1617700295/plib_adc0.o
 .text.ADC0_ConversionResultGet
                0x00000000        0xc build/sam_c21n_xpro/debug/_ext/1617700295/plib_adc0.o
 .text.ADC0_InterruptsClear
                0x00000000        0xc build/sam_c21n_xpro/debug/_ext/1617700295/plib_adc0.o
 .text.ADC0_InterruptsEnable
                0x00000000        0xc build/sam_c21n_xpro/debug/_ext/1617700295/plib_adc0.o
 .text.ADC0_InterruptsDisable
                0x00000000        0xc build/sam_c21n_xpro/debug/_ext/1617700295/plib_adc0.o
 .text.ADC0_ConversionStatusGet
                0x00000000       0x18 build/sam_c21n_xpro/debug/_ext/1617700295/plib_adc0.o
 .text          0x00000000        0x0 build/sam_c21n_xpro/debug/_ext/1617702135/plib_can0.o
 .data          0x00000000        0x0 build/sam_c21n_xpro/debug/_ext/1617702135/plib_can0.o
 .bss           0x00000000        0x0 build/sam_c21n_xpro/debug/_ext/1617702135/plib_can0.o
 .text.CAN0_MessageTransmit
                0x00000000       0xc0 build/sam_c21n_xpro/debug/_ext/1617702135/plib_can0.o
 .text.CAN0_TransmitEventFIFOElementGet
                0x00000000       0x5c build/sam_c21n_xpro/debug/_ext/1617702135/plib_can0.o
 .text.CAN0_ErrorCountGet
                0x00000000       0x14 build/sam_c21n_xpro/debug/_ext/1617702135/plib_can0.o
 .text.CAN0_InterruptGet
                0x00000000       0x14 build/sam_c21n_xpro/debug/_ext/1617702135/plib_can0.o
 .text.CAN0_TxFIFOIsFull
                0x00000000       0x10 build/sam_c21n_xpro/debug/_ext/1617702135/plib_can0.o
 .text.CAN0_StandardFilterElementSet
                0x00000000       0x30 build/sam_c21n_xpro/debug/_ext/1617702135/plib_can0.o
 .text.CAN0_StandardFilterElementGet
                0x00000000       0x30 build/sam_c21n_xpro/debug/_ext/1617702135/plib_can0.o
 .text.CAN0_ExtendedFilterElementSet
                0x00000000       0x38 build/sam_c21n_xpro/debug/_ext/1617702135/plib_can0.o
 .text.CAN0_ExtendedFilterElementGet
                0x00000000       0x38 build/sam_c21n_xpro/debug/_ext/1617702135/plib_can0.o
 .text.CAN0_SleepModeEnter
                0x00000000       0x1c build/sam_c21n_xpro/debug/_ext/1617702135/plib_can0.o
 .text.CAN0_SleepModeExit
                0x00000000       0x30 build/sam_c21n_xpro/debug/_ext/1617702135/plib_can0.o
 .bss.messageMarker.6022
                0x00000000        0x1 build/sam_c21n_xpro/debug/_ext/1617702135/plib_can0.o
 .text          0x00000000        0x0 build/sam_c21n_xpro/debug/_ext/166077579/plib_clock.o
 .data          0x00000000        0x0 build/sam_c21n_xpro/debug/_ext/166077579/plib_clock.o
 .bss           0x00000000        0x0 build/sam_c21n_xpro/debug/_ext/166077579/plib_clock.o
 .text          0x00000000        0x0 build/sam_c21n_xpro/debug/_ext/1617704294/plib_eic.o
 .data          0x00000000        0x0 build/sam_c21n_xpro/debug/_ext/1617704294/plib_eic.o
 .bss           0x00000000        0x0 build/sam_c21n_xpro/debug/_ext/1617704294/plib_eic.o
 .text.EIC_InterruptEnable
                0x00000000       0x10 build/sam_c21n_xpro/debug/_ext/1617704294/plib_eic.o
 .text.EIC_InterruptDisable
                0x00000000       0x10 build/sam_c21n_xpro/debug/_ext/1617704294/plib_eic.o
 .text.EIC_CallbackRegister
                0x00000000       0x28 build/sam_c21n_xpro/debug/_ext/1617704294/plib_eic.o
 .text          0x00000000        0x0 build/sam_c21n_xpro/debug/_ext/163928093/plib_evsys.o
 .data          0x00000000        0x0 build/sam_c21n_xpro/debug/_ext/163928093/plib_evsys.o
 .bss           0x00000000        0x0 build/sam_c21n_xpro/debug/_ext/163928093/plib_evsys.o
 .text          0x00000000        0x0 build/sam_c21n_xpro/debug/_ext/1390493541/plib_nvic.o
 .data          0x00000000        0x0 build/sam_c21n_xpro/debug/_ext/1390493541/plib_nvic.o
 .bss           0x00000000        0x0 build/sam_c21n_xpro/debug/_ext/1390493541/plib_nvic.o
 .text.NVIC_INT_Enable
                0x00000000        0x8 build/sam_c21n_xpro/debug/_ext/1390493541/plib_nvic.o
 .text          0x00000000        0x0 build/sam_c21n_xpro/debug/_ext/770299191/plib_nvmctrl.o
 .data          0x00000000        0x0 build/sam_c21n_xpro/debug/_ext/770299191/plib_nvmctrl.o
 .bss           0x00000000        0x0 build/sam_c21n_xpro/debug/_ext/770299191/plib_nvmctrl.o
 .text.NVMCTRL_CacheInvalidate
                0x00000000       0x10 build/sam_c21n_xpro/debug/_ext/770299191/plib_nvmctrl.o
 .text.NVMCTRL_RWWEEPROM_Read
                0x00000000       0x10 build/sam_c21n_xpro/debug/_ext/770299191/plib_nvmctrl.o
 .text.NVMCTRL_RWWEEPROM_PageWrite
                0x00000000       0x28 build/sam_c21n_xpro/debug/_ext/770299191/plib_nvmctrl.o
 .text.NVMCTRL_Read
                0x00000000       0x10 build/sam_c21n_xpro/debug/_ext/770299191/plib_nvmctrl.o
 .text.NVMCTRL_PageBufferWrite
                0x00000000       0x14 build/sam_c21n_xpro/debug/_ext/770299191/plib_nvmctrl.o
 .text.NVMCTRL_PageBufferCommit
                0x00000000       0x28 build/sam_c21n_xpro/debug/_ext/770299191/plib_nvmctrl.o
 .text.NVMCTRL_PageWrite
                0x00000000       0x28 build/sam_c21n_xpro/debug/_ext/770299191/plib_nvmctrl.o
 .text.NVMCTRL_RowErase
                0x00000000       0x18 build/sam_c21n_xpro/debug/_ext/770299191/plib_nvmctrl.o
 .text.NVMCTRL_USER_ROW_PageWrite
                0x00000000       0x38 build/sam_c21n_xpro/debug/_ext/770299191/plib_nvmctrl.o
 .text.NVMCTRL_USER_ROW_RowErase
                0x00000000       0x2c build/sam_c21n_xpro/debug/_ext/770299191/plib_nvmctrl.o
 .text.NVMCTRL_ErrorGet
                0x00000000       0x18 build/sam_c21n_xpro/debug/_ext/770299191/plib_nvmctrl.o
 .text.NVMCTRL_RegionLock
                0x00000000       0x14 build/sam_c21n_xpro/debug/_ext/770299191/plib_nvmctrl.o
 .text.NVMCTRL_RegionUnlock
                0x00000000       0x14 build/sam_c21n_xpro/debug/_ext/770299191/plib_nvmctrl.o
 .text.NVMCTRL_SecurityBitSet
                0x00000000       0x10 build/sam_c21n_xpro/debug/_ext/770299191/plib_nvmctrl.o
 .text          0x00000000        0x0 build/sam_c21n_xpro/debug/_ext/1390440390/plib_port.o
 .data          0x00000000        0x0 build/sam_c21n_xpro/debug/_ext/1390440390/plib_port.o
 .bss           0x00000000        0x0 build/sam_c21n_xpro/debug/_ext/1390440390/plib_port.o
 .text.PORT_GroupRead
                0x00000000        0x4 build/sam_c21n_xpro/debug/_ext/1390440390/plib_port.o
 .text.PORT_GroupLatchRead
                0x00000000        0x4 build/sam_c21n_xpro/debug/_ext/1390440390/plib_port.o
 .text.PORT_GroupToggle
                0x00000000        0x4 build/sam_c21n_xpro/debug/_ext/1390440390/plib_port.o
 .text.PORT_GroupInputEnable
                0x00000000        0x4 build/sam_c21n_xpro/debug/_ext/1390440390/plib_port.o
 .text.PORT_GroupOutputEnable
                0x00000000        0x4 build/sam_c21n_xpro/debug/_ext/1390440390/plib_port.o
 .text.PORT_PinPeripheralFunctionConfig
                0x00000000       0x46 build/sam_c21n_xpro/debug/_ext/1390440390/plib_port.o
 .text.PORT_PinGPIOConfig
                0x00000000       0x1e build/sam_c21n_xpro/debug/_ext/1390440390/plib_port.o
 .text          0x00000000        0x0 build/sam_c21n_xpro/debug/_ext/1451668420/plib_sercom2_i2c_master.o
 .data          0x00000000        0x0 build/sam_c21n_xpro/debug/_ext/1451668420/plib_sercom2_i2c_master.o
 .bss           0x00000000        0x0 build/sam_c21n_xpro/debug/_ext/1451668420/plib_sercom2_i2c_master.o
 .text.SERCOM2_I2C_TransferSetup
                0x00000000      0x108 build/sam_c21n_xpro/debug/_ext/1451668420/plib_sercom2_i2c_master.o
 .text.SERCOM2_I2C_TransferAbort
                0x00000000       0x44 build/sam_c21n_xpro/debug/_ext/1451668420/plib_sercom2_i2c_master.o
 .text          0x00000000        0x0 build/sam_c21n_xpro/debug/_ext/1942903062/plib_sercom0_spi_master.o
 .data          0x00000000        0x0 build/sam_c21n_xpro/debug/_ext/1942903062/plib_sercom0_spi_master.o
 .bss           0x00000000        0x0 build/sam_c21n_xpro/debug/_ext/1942903062/plib_sercom0_spi_master.o
 .text.SERCOM0_SPI_IsBusy
                0x00000000       0x2c build/sam_c21n_xpro/debug/_ext/1942903062/plib_sercom0_spi_master.o
 .text.SERCOM0_SPI_Write
                0x00000000        0xc build/sam_c21n_xpro/debug/_ext/1942903062/plib_sercom0_spi_master.o
 .text.SERCOM0_SPI_Read
                0x00000000       0x10 build/sam_c21n_xpro/debug/_ext/1942903062/plib_sercom0_spi_master.o
 .text          0x00000000        0x0 build/sam_c21n_xpro/debug/_ext/1993392304/plib_sercom1_usart.o
 .data          0x00000000        0x0 build/sam_c21n_xpro/debug/_ext/1993392304/plib_sercom1_usart.o
 .bss           0x00000000        0x0 build/sam_c21n_xpro/debug/_ext/1993392304/plib_sercom1_usart.o
 .text.SERCOM1_USART_FrequencyGet
                0x00000000        0x8 build/sam_c21n_xpro/debug/_ext/1993392304/plib_sercom1_usart.o
 .text.SERCOM1_USART_ReadFreeBufferCountGet
                0x00000000       0x14 build/sam_c21n_xpro/debug/_ext/1993392304/plib_sercom1_usart.o
 .text.SERCOM1_USART_ReadBufferSizeGet
                0x00000000        0xc build/sam_c21n_xpro/debug/_ext/1993392304/plib_sercom1_usart.o
 .text.SERCOM1_USART_ReadNotificationEnable
                0x00000000       0x18 build/sam_c21n_xpro/debug/_ext/1993392304/plib_sercom1_usart.o
 .text.SERCOM1_USART_ReadThresholdSet
                0x00000000       0x10 build/sam_c21n_xpro/debug/_ext/1993392304/plib_sercom1_usart.o
 .text.SERCOM1_USART_TransmitComplete
                0x00000000       0x10 build/sam_c21n_xpro/debug/_ext/1993392304/plib_sercom1_usart.o
 .text.SERCOM1_USART_WriteBufferSizeGet
                0x00000000        0xc build/sam_c21n_xpro/debug/_ext/1993392304/plib_sercom1_usart.o
 .text.SERCOM1_USART_WriteNotificationEnable
                0x00000000       0x10 build/sam_c21n_xpro/debug/_ext/1993392304/plib_sercom1_usart.o
 .text.SERCOM1_USART_WriteThresholdSet
                0x00000000       0x10 build/sam_c21n_xpro/debug/_ext/1993392304/plib_sercom1_usart.o
 .text          0x00000000        0x0 build/sam_c21n_xpro/debug/_ext/1004774289/plib_systick.o
 .data          0x00000000        0x0 build/sam_c21n_xpro/debug/_ext/1004774289/plib_systick.o
 .bss           0x00000000        0x0 build/sam_c21n_xpro/debug/_ext/1004774289/plib_systick.o
 .text.SYSTICK_TimerRestart
                0x00000000       0x1c build/sam_c21n_xpro/debug/_ext/1004774289/plib_systick.o
 .text.SYSTICK_TimerStop
                0x00000000       0x10 build/sam_c21n_xpro/debug/_ext/1004774289/plib_systick.o
 .text.SYSTICK_TimerPeriodSet
                0x00000000        0xc build/sam_c21n_xpro/debug/_ext/1004774289/plib_systick.o
 .text.SYSTICK_TimerPeriodGet
                0x00000000        0xc build/sam_c21n_xpro/debug/_ext/1004774289/plib_systick.o
 .text.SYSTICK_TimerCounterGet
                0x00000000        0xc build/sam_c21n_xpro/debug/_ext/1004774289/plib_systick.o
 .text.SYSTICK_TimerFrequencyGet
                0x00000000        0x8 build/sam_c21n_xpro/debug/_ext/1004774289/plib_systick.o
 .text.SYSTICK_DelayUs
                0x00000000       0x3c build/sam_c21n_xpro/debug/_ext/1004774289/plib_systick.o
 .text.SYSTICK_GetTickCounter
                0x00000000        0xc build/sam_c21n_xpro/debug/_ext/1004774289/plib_systick.o
 .text.SYSTICK_StartTimeOut
                0x00000000       0x24 build/sam_c21n_xpro/debug/_ext/1004774289/plib_systick.o
 .text.SYSTICK_ResetTimeOut
                0x00000000        0xc build/sam_c21n_xpro/debug/_ext/1004774289/plib_systick.o
 .text.SYSTICK_IsTimeoutReached
                0x00000000       0x18 build/sam_c21n_xpro/debug/_ext/1004774289/plib_systick.o
 .text          0x00000000        0x0 build/sam_c21n_xpro/debug/_ext/1617721454/plib_wdt.o
 .data          0x00000000        0x0 build/sam_c21n_xpro/debug/_ext/1617721454/plib_wdt.o
 .bss           0x00000000        0x0 build/sam_c21n_xpro/debug/_ext/1617721454/plib_wdt.o
 .text.WDT_Enable
                0x00000000       0x20 build/sam_c21n_xpro/debug/_ext/1617721454/plib_wdt.o
 .text.WDT_Disable
                0x00000000       0x20 build/sam_c21n_xpro/debug/_ext/1617721454/plib_wdt.o
 .text.WDT_EnableWindowMode
                0x00000000       0x34 build/sam_c21n_xpro/debug/_ext/1617721454/plib_wdt.o
 .text.WDT_DisableWindowMode
                0x00000000       0x34 build/sam_c21n_xpro/debug/_ext/1617721454/plib_wdt.o
 .text.WDT_IsEnabled
                0x00000000       0x14 build/sam_c21n_xpro/debug/_ext/1617721454/plib_wdt.o
 .text.WDT_IsAlwaysOn
                0x00000000        0xc build/sam_c21n_xpro/debug/_ext/1617721454/plib_wdt.o
 .text.WDT_IsWindowModeEnabled
                0x00000000       0x10 build/sam_c21n_xpro/debug/_ext/1617721454/plib_wdt.o
 .text.WDT_TimeoutPeriodSet
                0x00000000       0x14 build/sam_c21n_xpro/debug/_ext/1617721454/plib_wdt.o
 .text.WDT_ClearWithSync
                0x00000000       0x1c build/sam_c21n_xpro/debug/_ext/1617721454/plib_wdt.o
 .text          0x00000000        0x0 build/sam_c21n_xpro/debug/_ext/730014449/xc32_monitor.o
 .data          0x00000000        0x0 build/sam_c21n_xpro/debug/_ext/730014449/xc32_monitor.o
 .bss           0x00000000        0x0 build/sam_c21n_xpro/debug/_ext/730014449/xc32_monitor.o
 .text          0x00000000        0x0 build/sam_c21n_xpro/debug/_ext/855761890/sys_int.o
 .data          0x00000000        0x0 build/sam_c21n_xpro/debug/_ext/855761890/sys_int.o
 .bss           0x00000000        0x0 build/sam_c21n_xpro/debug/_ext/855761890/sys_int.o
 .text.SYS_INT_Enable
                0x00000000        0x8 build/sam_c21n_xpro/debug/_ext/855761890/sys_int.o
 .text.SYS_INT_SourceDisable
                0x00000000       0x3c build/sam_c21n_xpro/debug/_ext/855761890/sys_int.o
 .text.SYS_INT_SourceRestore
                0x00000000       0x1c build/sam_c21n_xpro/debug/_ext/855761890/sys_int.o
 .text          0x00000000        0x0 build/sam_c21n_xpro/debug/_ext/1758384875/initialization.o
 .data          0x00000000        0x0 build/sam_c21n_xpro/debug/_ext/1758384875/initialization.o
 .bss           0x00000000        0x0 build/sam_c21n_xpro/debug/_ext/1758384875/initialization.o
 .text          0x00000000        0x0 build/sam_c21n_xpro/debug/_ext/1758384875/interrupts.o
 .data          0x00000000        0x0 build/sam_c21n_xpro/debug/_ext/1758384875/interrupts.o
 .bss           0x00000000        0x0 build/sam_c21n_xpro/debug/_ext/1758384875/interrupts.o
 .text          0x00000000        0x0 build/sam_c21n_xpro/debug/_ext/1758384875/exceptions.o
 .data          0x00000000        0x0 build/sam_c21n_xpro/debug/_ext/1758384875/exceptions.o
 .bss           0x00000000        0x0 build/sam_c21n_xpro/debug/_ext/1758384875/exceptions.o
 .text          0x00000000        0x0 build/sam_c21n_xpro/debug/_ext/1758384875/startup_xc32.o
 .data          0x00000000        0x0 build/sam_c21n_xpro/debug/_ext/1758384875/startup_xc32.o
 .bss           0x00000000        0x0 build/sam_c21n_xpro/debug/_ext/1758384875/startup_xc32.o
 .text          0x00000000        0x0 build/sam_c21n_xpro/debug/_ext/1758384875/libc_syscalls.o
 .data          0x00000000        0x0 build/sam_c21n_xpro/debug/_ext/1758384875/libc_syscalls.o
 .bss           0x00000000        0x0 build/sam_c21n_xpro/debug/_ext/1758384875/libc_syscalls.o
 .text._exit    0x00000000        0x4 build/sam_c21n_xpro/debug/_ext/1758384875/libc_syscalls.o
 .debug_info    0x00000000      0xeaf build/sam_c21n_xpro/debug/_ext/1758384875/libc_syscalls.o
 .debug_abbrev  0x00000000      0x1a1 build/sam_c21n_xpro/debug/_ext/1758384875/libc_syscalls.o
 .debug_aranges
                0x00000000       0x20 build/sam_c21n_xpro/debug/_ext/1758384875/libc_syscalls.o
 .debug_ranges  0x00000000       0x10 build/sam_c21n_xpro/debug/_ext/1758384875/libc_syscalls.o
 .debug_line    0x00000000      0x144 build/sam_c21n_xpro/debug/_ext/1758384875/libc_syscalls.o
 .debug_str     0x00000000        0xe build/sam_c21n_xpro/debug/_ext/1758384875/libc_syscalls.o
 .comment       0x00000000       0x3d build/sam_c21n_xpro/debug/_ext/1758384875/libc_syscalls.o
 .debug_frame   0x00000000       0x20 build/sam_c21n_xpro/debug/_ext/1758384875/libc_syscalls.o
 .ARM.attributes
                0x00000000       0x32 build/sam_c21n_xpro/debug/_ext/1758384875/libc_syscalls.o
 .text          0x00000000        0x0 build/sam_c21n_xpro/debug/_ext/1758384875/tasks.o
 .data          0x00000000        0x0 build/sam_c21n_xpro/debug/_ext/1758384875/tasks.o
 .bss           0x00000000        0x0 build/sam_c21n_xpro/debug/_ext/1758384875/tasks.o
 .text.SYS_Tasks
                0x00000000        0x8 build/sam_c21n_xpro/debug/_ext/1758384875/tasks.o
 .debug_info    0x00000000     0x1004 build/sam_c21n_xpro/debug/_ext/1758384875/tasks.o
 .debug_abbrev  0x00000000      0x1c6 build/sam_c21n_xpro/debug/_ext/1758384875/tasks.o
 .debug_loc     0x00000000       0x20 build/sam_c21n_xpro/debug/_ext/1758384875/tasks.o
 .debug_aranges
                0x00000000       0x20 build/sam_c21n_xpro/debug/_ext/1758384875/tasks.o
 .debug_ranges  0x00000000       0x10 build/sam_c21n_xpro/debug/_ext/1758384875/tasks.o
 .debug_line    0x00000000      0x22f build/sam_c21n_xpro/debug/_ext/1758384875/tasks.o
 .debug_str     0x00000000       0x18 build/sam_c21n_xpro/debug/_ext/1758384875/tasks.o
 .comment       0x00000000       0x3d build/sam_c21n_xpro/debug/_ext/1758384875/tasks.o
 .debug_frame   0x00000000       0x28 build/sam_c21n_xpro/debug/_ext/1758384875/tasks.o
 .ARM.attributes
                0x00000000       0x32 build/sam_c21n_xpro/debug/_ext/1758384875/tasks.o
 .text          0x00000000        0x0 build/sam_c21n_xpro/debug/_ext/1360937237/main.o
 .data          0x00000000        0x0 build/sam_c21n_xpro/debug/_ext/1360937237/main.o
 .bss           0x00000000        0x0 build/sam_c21n_xpro/debug/_ext/1360937237/main.o
 .text.ClrWDT   0x00000000        0x8 build/sam_c21n_xpro/debug/_ext/1360937237/main.o
 .text.enableWDT
                0x00000000        0x8 build/sam_c21n_xpro/debug/_ext/1360937237/main.o
 .text.disableWDT
                0x00000000        0x8 build/sam_c21n_xpro/debug/_ext/1360937237/main.o
 .text          0x00000000        0x0 build/sam_c21n_xpro/debug/_ext/1360937237/app.o
 .data          0x00000000        0x0 build/sam_c21n_xpro/debug/_ext/1360937237/app.o
 .bss           0x00000000        0x0 build/sam_c21n_xpro/debug/_ext/1360937237/app.o
 .text.APP_Tasks
                0x00000000       0x14 build/sam_c21n_xpro/debug/_ext/1360937237/app.o
 .text          0x00000000        0x0 build/sam_c21n_xpro/debug/_ext/1205691902/sys_debug.o
 .data          0x00000000        0x0 build/sam_c21n_xpro/debug/_ext/1205691902/sys_debug.o
 .bss           0x00000000        0x0 build/sam_c21n_xpro/debug/_ext/1205691902/sys_debug.o
 .text.SYS_DEBUG_Status
                0x00000000        0xc build/sam_c21n_xpro/debug/_ext/1205691902/sys_debug.o
 .text.SYS_DEBUG_ErrorLevelSet
                0x00000000        0xc build/sam_c21n_xpro/debug/_ext/1205691902/sys_debug.o
 .text.SYS_DEBUG_Redirect
                0x00000000       0x18 build/sam_c21n_xpro/debug/_ext/1205691902/sys_debug.o
 .text          0x00000000        0x0 build/sam_c21n_xpro/debug/_ext/1639364742/sys_console.o
 .data          0x00000000        0x0 build/sam_c21n_xpro/debug/_ext/1639364742/sys_console.o
 .bss           0x00000000        0x0 build/sam_c21n_xpro/debug/_ext/1639364742/sys_console.o
 .text.SYS_CONSOLE_Status
                0x00000000       0x58 build/sam_c21n_xpro/debug/_ext/1639364742/sys_console.o
 .text.SYS_CONSOLE_HandleGet
                0x00000000        0x8 build/sam_c21n_xpro/debug/_ext/1639364742/sys_console.o
 .text.SYS_CONSOLE_DeviceGet
                0x00000000       0x1c build/sam_c21n_xpro/debug/_ext/1639364742/sys_console.o
 .text.SYS_CONSOLE_Tasks
                0x00000000       0x28 build/sam_c21n_xpro/debug/_ext/1639364742/sys_console.o
 .text.SYS_CONSOLE_Read
                0x00000000       0x38 build/sam_c21n_xpro/debug/_ext/1639364742/sys_console.o
 .text.SYS_CONSOLE_ReadFreeBufferCountGet
                0x00000000       0x38 build/sam_c21n_xpro/debug/_ext/1639364742/sys_console.o
 .text.SYS_CONSOLE_ReadCountGet
                0x00000000       0x38 build/sam_c21n_xpro/debug/_ext/1639364742/sys_console.o
 .text.SYS_CONSOLE_Write
                0x00000000       0x38 build/sam_c21n_xpro/debug/_ext/1639364742/sys_console.o
 .text.SYS_CONSOLE_WriteFreeBufferCountGet
                0x00000000       0x38 build/sam_c21n_xpro/debug/_ext/1639364742/sys_console.o
 .text.SYS_CONSOLE_WriteCountGet
                0x00000000       0x38 build/sam_c21n_xpro/debug/_ext/1639364742/sys_console.o
 .text.SYS_CONSOLE_Print
                0x00000000       0x40 build/sam_c21n_xpro/debug/_ext/1639364742/sys_console.o
 .text.SYS_CONSOLE_Flush
                0x00000000       0x34 build/sam_c21n_xpro/debug/_ext/1639364742/sys_console.o
 .text          0x00000000        0x0 build/sam_c21n_xpro/debug/_ext/1639364742/sys_console_uart.o
 .data          0x00000000        0x0 build/sam_c21n_xpro/debug/_ext/1639364742/sys_console_uart.o
 .bss           0x00000000        0x0 build/sam_c21n_xpro/debug/_ext/1639364742/sys_console_uart.o
 .text          0x00000000        0x0 build/sam_c21n_xpro/debug/_ext/1993392304/plib_sercom3_usart.o
 .data          0x00000000        0x0 build/sam_c21n_xpro/debug/_ext/1993392304/plib_sercom3_usart.o
 .bss           0x00000000        0x0 build/sam_c21n_xpro/debug/_ext/1993392304/plib_sercom3_usart.o
 .text.SERCOM3_USART_FrequencyGet
                0x00000000        0x8 build/sam_c21n_xpro/debug/_ext/1993392304/plib_sercom3_usart.o
 .text.SERCOM3_USART_SerialSetup
                0x00000000      0x138 build/sam_c21n_xpro/debug/_ext/1993392304/plib_sercom3_usart.o
 .text.SERCOM3_USART_ErrorGet
                0x00000000       0x10 build/sam_c21n_xpro/debug/_ext/1993392304/plib_sercom3_usart.o
 .text.SERCOM3_USART_ReadBufferSizeGet
                0x00000000        0xc build/sam_c21n_xpro/debug/_ext/1993392304/plib_sercom3_usart.o
 .text.SERCOM3_USART_ReadNotificationEnable
                0x00000000       0x18 build/sam_c21n_xpro/debug/_ext/1993392304/plib_sercom3_usart.o
 .text.SERCOM3_USART_ReadThresholdSet
                0x00000000       0x10 build/sam_c21n_xpro/debug/_ext/1993392304/plib_sercom3_usart.o
 .text.SERCOM3_USART_ReadCallbackRegister
                0x00000000        0xc build/sam_c21n_xpro/debug/_ext/1993392304/plib_sercom3_usart.o
 .text.SERCOM3_USART_TransmitComplete
                0x00000000       0x10 build/sam_c21n_xpro/debug/_ext/1993392304/plib_sercom3_usart.o
 .text.SERCOM3_USART_WriteBufferSizeGet
                0x00000000        0xc build/sam_c21n_xpro/debug/_ext/1993392304/plib_sercom3_usart.o
 .text.SERCOM3_USART_WriteNotificationEnable
                0x00000000       0x10 build/sam_c21n_xpro/debug/_ext/1993392304/plib_sercom3_usart.o
 .text.SERCOM3_USART_WriteThresholdSet
                0x00000000       0x10 build/sam_c21n_xpro/debug/_ext/1993392304/plib_sercom3_usart.o
 .text.SERCOM3_USART_WriteCallbackRegister
                0x00000000        0xc build/sam_c21n_xpro/debug/_ext/1993392304/plib_sercom3_usart.o
 .text          0x00000000        0x0 c:/program files/microchip/xc32/v2.40/bin/bin/../../lib/gcc/pic32c/6.2.1/../../../../pic32c/lib\libpic32c.a(data_init.o)
 .data          0x00000000        0x0 c:/program files/microchip/xc32/v2.40/bin/bin/../../lib/gcc/pic32c/6.2.1/../../../../pic32c/lib\libpic32c.a(data_init.o)
 .bss           0x00000000        0x0 c:/program files/microchip/xc32/v2.40/bin/bin/../../lib/gcc/pic32c/6.2.1/../../../../pic32c/lib\libpic32c.a(data_init.o)
 .data          0x00000000        0x0 c:/program files/microchip/xc32/v2.40/bin/bin/../../lib/gcc/pic32c/6.2.1\libgcc.a(_udivsi3.o)
 .bss           0x00000000        0x0 c:/program files/microchip/xc32/v2.40/bin/bin/../../lib/gcc/pic32c/6.2.1\libgcc.a(_udivsi3.o)
 .data          0x00000000        0x0 c:/program files/microchip/xc32/v2.40/bin/bin/../../lib/gcc/pic32c/6.2.1\libgcc.a(_dvmd_tls.o)
 .bss           0x00000000        0x0 c:/program files/microchip/xc32/v2.40/bin/bin/../../lib/gcc/pic32c/6.2.1\libgcc.a(_dvmd_tls.o)
 .data          0x00000000        0x0 c:/program files/microchip/xc32/v2.40/bin/bin/../../lib/gcc/pic32c/6.2.1\libgcc.a(_aeabi_uldivmod.o)
 .bss           0x00000000        0x0 c:/program files/microchip/xc32/v2.40/bin/bin/../../lib/gcc/pic32c/6.2.1\libgcc.a(_aeabi_uldivmod.o)
 .data          0x00000000        0x0 c:/program files/microchip/xc32/v2.40/bin/bin/../../lib/gcc/pic32c/6.2.1\libgcc.a(_muldi3.o)
 .bss           0x00000000        0x0 c:/program files/microchip/xc32/v2.40/bin/bin/../../lib/gcc/pic32c/6.2.1\libgcc.a(_muldi3.o)
 .text          0x00000000       0x2e c:/program files/microchip/xc32/v2.40/bin/bin/../../lib/gcc/pic32c/6.2.1\libgcc.a(_fixunssfsi.o)
 .data          0x00000000        0x0 c:/program files/microchip/xc32/v2.40/bin/bin/../../lib/gcc/pic32c/6.2.1\libgcc.a(_fixunssfsi.o)
 .bss           0x00000000        0x0 c:/program files/microchip/xc32/v2.40/bin/bin/../../lib/gcc/pic32c/6.2.1\libgcc.a(_fixunssfsi.o)
 .debug_info    0x00000000     0x12a0 c:/program files/microchip/xc32/v2.40/bin/bin/../../lib/gcc/pic32c/6.2.1\libgcc.a(_fixunssfsi.o)
 .debug_abbrev  0x00000000      0x11b c:/program files/microchip/xc32/v2.40/bin/bin/../../lib/gcc/pic32c/6.2.1\libgcc.a(_fixunssfsi.o)
 .debug_loc     0x00000000       0x5a c:/program files/microchip/xc32/v2.40/bin/bin/../../lib/gcc/pic32c/6.2.1\libgcc.a(_fixunssfsi.o)
 .debug_aranges
                0x00000000       0x20 c:/program files/microchip/xc32/v2.40/bin/bin/../../lib/gcc/pic32c/6.2.1\libgcc.a(_fixunssfsi.o)
 .debug_line    0x00000000      0x28e c:/program files/microchip/xc32/v2.40/bin/bin/../../lib/gcc/pic32c/6.2.1\libgcc.a(_fixunssfsi.o)
 .debug_str     0x00000000        0x0 c:/program files/microchip/xc32/v2.40/bin/bin/../../lib/gcc/pic32c/6.2.1\libgcc.a(_fixunssfsi.o)
 .comment       0x00000000       0x3d c:/program files/microchip/xc32/v2.40/bin/bin/../../lib/gcc/pic32c/6.2.1\libgcc.a(_fixunssfsi.o)
 .debug_frame   0x00000000       0x28 c:/program files/microchip/xc32/v2.40/bin/bin/../../lib/gcc/pic32c/6.2.1\libgcc.a(_fixunssfsi.o)
 .ARM.attributes
                0x00000000       0x2c c:/program files/microchip/xc32/v2.40/bin/bin/../../lib/gcc/pic32c/6.2.1\libgcc.a(_fixunssfsi.o)
 .data          0x00000000        0x0 c:/program files/microchip/xc32/v2.40/bin/bin/../../lib/gcc/pic32c/6.2.1\libgcc.a(_udivmoddi4.o)
 .bss           0x00000000        0x0 c:/program files/microchip/xc32/v2.40/bin/bin/../../lib/gcc/pic32c/6.2.1\libgcc.a(_udivmoddi4.o)
 .ARM.extab     0x00000000        0x0 c:/program files/microchip/xc32/v2.40/bin/bin/../../lib/gcc/pic32c/6.2.1\libgcc.a(_udivmoddi4.o)
 .text          0x00000000      0x2e4 c:/program files/microchip/xc32/v2.40/bin/bin/../../lib/gcc/pic32c/6.2.1\libgcc.a(addsf3.o)
 .data          0x00000000        0x0 c:/program files/microchip/xc32/v2.40/bin/bin/../../lib/gcc/pic32c/6.2.1\libgcc.a(addsf3.o)
 .bss           0x00000000        0x0 c:/program files/microchip/xc32/v2.40/bin/bin/../../lib/gcc/pic32c/6.2.1\libgcc.a(addsf3.o)
 .debug_info    0x00000000      0x556 c:/program files/microchip/xc32/v2.40/bin/bin/../../lib/gcc/pic32c/6.2.1\libgcc.a(addsf3.o)
 .debug_abbrev  0x00000000      0x149 c:/program files/microchip/xc32/v2.40/bin/bin/../../lib/gcc/pic32c/6.2.1\libgcc.a(addsf3.o)
 .debug_loc     0x00000000      0xb1f c:/program files/microchip/xc32/v2.40/bin/bin/../../lib/gcc/pic32c/6.2.1\libgcc.a(addsf3.o)
 .debug_aranges
                0x00000000       0x20 c:/program files/microchip/xc32/v2.40/bin/bin/../../lib/gcc/pic32c/6.2.1\libgcc.a(addsf3.o)
 .debug_ranges  0x00000000       0xe8 c:/program files/microchip/xc32/v2.40/bin/bin/../../lib/gcc/pic32c/6.2.1\libgcc.a(addsf3.o)
 .debug_line    0x00000000      0x197 c:/program files/microchip/xc32/v2.40/bin/bin/../../lib/gcc/pic32c/6.2.1\libgcc.a(addsf3.o)
 .debug_str     0x00000000       0x2c c:/program files/microchip/xc32/v2.40/bin/bin/../../lib/gcc/pic32c/6.2.1\libgcc.a(addsf3.o)
 .comment       0x00000000       0x3d c:/program files/microchip/xc32/v2.40/bin/bin/../../lib/gcc/pic32c/6.2.1\libgcc.a(addsf3.o)
 .debug_frame   0x00000000       0x34 c:/program files/microchip/xc32/v2.40/bin/bin/../../lib/gcc/pic32c/6.2.1\libgcc.a(addsf3.o)
 .ARM.attributes
                0x00000000       0x2c c:/program files/microchip/xc32/v2.40/bin/bin/../../lib/gcc/pic32c/6.2.1\libgcc.a(addsf3.o)
 .data          0x00000000        0x0 c:/program files/microchip/xc32/v2.40/bin/bin/../../lib/gcc/pic32c/6.2.1\libgcc.a(divsf3.o)
 .bss           0x00000000        0x0 c:/program files/microchip/xc32/v2.40/bin/bin/../../lib/gcc/pic32c/6.2.1\libgcc.a(divsf3.o)
 .text          0x00000000      0x1d8 c:/program files/microchip/xc32/v2.40/bin/bin/../../lib/gcc/pic32c/6.2.1\libgcc.a(mulsf3.o)
 .data          0x00000000        0x0 c:/program files/microchip/xc32/v2.40/bin/bin/../../lib/gcc/pic32c/6.2.1\libgcc.a(mulsf3.o)
 .bss           0x00000000        0x0 c:/program files/microchip/xc32/v2.40/bin/bin/../../lib/gcc/pic32c/6.2.1\libgcc.a(mulsf3.o)
 .debug_info    0x00000000      0x5d5 c:/program files/microchip/xc32/v2.40/bin/bin/../../lib/gcc/pic32c/6.2.1\libgcc.a(mulsf3.o)
 .debug_abbrev  0x00000000      0x13c c:/program files/microchip/xc32/v2.40/bin/bin/../../lib/gcc/pic32c/6.2.1\libgcc.a(mulsf3.o)
 .debug_loc     0x00000000      0x791 c:/program files/microchip/xc32/v2.40/bin/bin/../../lib/gcc/pic32c/6.2.1\libgcc.a(mulsf3.o)
 .debug_aranges
                0x00000000       0x20 c:/program files/microchip/xc32/v2.40/bin/bin/../../lib/gcc/pic32c/6.2.1\libgcc.a(mulsf3.o)
 .debug_ranges  0x00000000       0x50 c:/program files/microchip/xc32/v2.40/bin/bin/../../lib/gcc/pic32c/6.2.1\libgcc.a(mulsf3.o)
 .debug_line    0x00000000      0x15f c:/program files/microchip/xc32/v2.40/bin/bin/../../lib/gcc/pic32c/6.2.1\libgcc.a(mulsf3.o)
 .debug_str     0x00000000       0x30 c:/program files/microchip/xc32/v2.40/bin/bin/../../lib/gcc/pic32c/6.2.1\libgcc.a(mulsf3.o)
 .comment       0x00000000       0x3d c:/program files/microchip/xc32/v2.40/bin/bin/../../lib/gcc/pic32c/6.2.1\libgcc.a(mulsf3.o)
 .debug_frame   0x00000000       0x30 c:/program files/microchip/xc32/v2.40/bin/bin/../../lib/gcc/pic32c/6.2.1\libgcc.a(mulsf3.o)
 .ARM.attributes
                0x00000000       0x2c c:/program files/microchip/xc32/v2.40/bin/bin/../../lib/gcc/pic32c/6.2.1\libgcc.a(mulsf3.o)
 .text          0x00000000      0x2f4 c:/program files/microchip/xc32/v2.40/bin/bin/../../lib/gcc/pic32c/6.2.1\libgcc.a(subsf3.o)
 .data          0x00000000        0x0 c:/program files/microchip/xc32/v2.40/bin/bin/../../lib/gcc/pic32c/6.2.1\libgcc.a(subsf3.o)
 .bss           0x00000000        0x0 c:/program files/microchip/xc32/v2.40/bin/bin/../../lib/gcc/pic32c/6.2.1\libgcc.a(subsf3.o)
 .debug_info    0x00000000      0x556 c:/program files/microchip/xc32/v2.40/bin/bin/../../lib/gcc/pic32c/6.2.1\libgcc.a(subsf3.o)
 .debug_abbrev  0x00000000      0x149 c:/program files/microchip/xc32/v2.40/bin/bin/../../lib/gcc/pic32c/6.2.1\libgcc.a(subsf3.o)
 .debug_loc     0x00000000      0xb1b c:/program files/microchip/xc32/v2.40/bin/bin/../../lib/gcc/pic32c/6.2.1\libgcc.a(subsf3.o)
 .debug_aranges
                0x00000000       0x20 c:/program files/microchip/xc32/v2.40/bin/bin/../../lib/gcc/pic32c/6.2.1\libgcc.a(subsf3.o)
 .debug_ranges  0x00000000       0xf0 c:/program files/microchip/xc32/v2.40/bin/bin/../../lib/gcc/pic32c/6.2.1\libgcc.a(subsf3.o)
 .debug_line    0x00000000      0x19a c:/program files/microchip/xc32/v2.40/bin/bin/../../lib/gcc/pic32c/6.2.1\libgcc.a(subsf3.o)
 .debug_str     0x00000000       0x2c c:/program files/microchip/xc32/v2.40/bin/bin/../../lib/gcc/pic32c/6.2.1\libgcc.a(subsf3.o)
 .comment       0x00000000       0x3d c:/program files/microchip/xc32/v2.40/bin/bin/../../lib/gcc/pic32c/6.2.1\libgcc.a(subsf3.o)
 .debug_frame   0x00000000       0x34 c:/program files/microchip/xc32/v2.40/bin/bin/../../lib/gcc/pic32c/6.2.1\libgcc.a(subsf3.o)
 .ARM.attributes
                0x00000000       0x2c c:/program files/microchip/xc32/v2.40/bin/bin/../../lib/gcc/pic32c/6.2.1\libgcc.a(subsf3.o)
 .text          0x00000000       0x3c c:/program files/microchip/xc32/v2.40/bin/bin/../../lib/gcc/pic32c/6.2.1\libgcc.a(fixsfsi.o)
 .data          0x00000000        0x0 c:/program files/microchip/xc32/v2.40/bin/bin/../../lib/gcc/pic32c/6.2.1\libgcc.a(fixsfsi.o)
 .bss           0x00000000        0x0 c:/program files/microchip/xc32/v2.40/bin/bin/../../lib/gcc/pic32c/6.2.1\libgcc.a(fixsfsi.o)
 .debug_info    0x00000000      0x39d c:/program files/microchip/xc32/v2.40/bin/bin/../../lib/gcc/pic32c/6.2.1\libgcc.a(fixsfsi.o)
 .debug_abbrev  0x00000000      0x12e c:/program files/microchip/xc32/v2.40/bin/bin/../../lib/gcc/pic32c/6.2.1\libgcc.a(fixsfsi.o)
 .debug_loc     0x00000000       0xe7 c:/program files/microchip/xc32/v2.40/bin/bin/../../lib/gcc/pic32c/6.2.1\libgcc.a(fixsfsi.o)
 .debug_aranges
                0x00000000       0x20 c:/program files/microchip/xc32/v2.40/bin/bin/../../lib/gcc/pic32c/6.2.1\libgcc.a(fixsfsi.o)
 .debug_line    0x00000000      0x12a c:/program files/microchip/xc32/v2.40/bin/bin/../../lib/gcc/pic32c/6.2.1\libgcc.a(fixsfsi.o)
 .debug_str     0x00000000       0x13 c:/program files/microchip/xc32/v2.40/bin/bin/../../lib/gcc/pic32c/6.2.1\libgcc.a(fixsfsi.o)
 .comment       0x00000000       0x3d c:/program files/microchip/xc32/v2.40/bin/bin/../../lib/gcc/pic32c/6.2.1\libgcc.a(fixsfsi.o)
 .debug_frame   0x00000000       0x20 c:/program files/microchip/xc32/v2.40/bin/bin/../../lib/gcc/pic32c/6.2.1\libgcc.a(fixsfsi.o)
 .ARM.attributes
                0x00000000       0x2c c:/program files/microchip/xc32/v2.40/bin/bin/../../lib/gcc/pic32c/6.2.1\libgcc.a(fixsfsi.o)
 .text          0x00000000       0x84 c:/program files/microchip/xc32/v2.40/bin/bin/../../lib/gcc/pic32c/6.2.1\libgcc.a(floatsisf.o)
 .data          0x00000000        0x0 c:/program files/microchip/xc32/v2.40/bin/bin/../../lib/gcc/pic32c/6.2.1\libgcc.a(floatsisf.o)
 .bss           0x00000000        0x0 c:/program files/microchip/xc32/v2.40/bin/bin/../../lib/gcc/pic32c/6.2.1\libgcc.a(floatsisf.o)
 .debug_info    0x00000000      0x477 c:/program files/microchip/xc32/v2.40/bin/bin/../../lib/gcc/pic32c/6.2.1\libgcc.a(floatsisf.o)
 .debug_abbrev  0x00000000      0x12d c:/program files/microchip/xc32/v2.40/bin/bin/../../lib/gcc/pic32c/6.2.1\libgcc.a(floatsisf.o)
 .debug_loc     0x00000000      0x180 c:/program files/microchip/xc32/v2.40/bin/bin/../../lib/gcc/pic32c/6.2.1\libgcc.a(floatsisf.o)
 .debug_aranges
                0x00000000       0x20 c:/program files/microchip/xc32/v2.40/bin/bin/../../lib/gcc/pic32c/6.2.1\libgcc.a(floatsisf.o)
 .debug_ranges  0x00000000       0x38 c:/program files/microchip/xc32/v2.40/bin/bin/../../lib/gcc/pic32c/6.2.1\libgcc.a(floatsisf.o)
 .debug_line    0x00000000      0x132 c:/program files/microchip/xc32/v2.40/bin/bin/../../lib/gcc/pic32c/6.2.1\libgcc.a(floatsisf.o)
 .debug_str     0x00000000        0x0 c:/program files/microchip/xc32/v2.40/bin/bin/../../lib/gcc/pic32c/6.2.1\libgcc.a(floatsisf.o)
 .comment       0x00000000       0x3d c:/program files/microchip/xc32/v2.40/bin/bin/../../lib/gcc/pic32c/6.2.1\libgcc.a(floatsisf.o)
 .debug_frame   0x00000000       0x2c c:/program files/microchip/xc32/v2.40/bin/bin/../../lib/gcc/pic32c/6.2.1\libgcc.a(floatsisf.o)
 .ARM.attributes
                0x00000000       0x2c c:/program files/microchip/xc32/v2.40/bin/bin/../../lib/gcc/pic32c/6.2.1\libgcc.a(floatsisf.o)
 .data          0x00000000        0x0 c:/program files/microchip/xc32/v2.40/bin/bin/../../lib/gcc/pic32c/6.2.1\libgcc.a(floatunsisf.o)
 .bss           0x00000000        0x0 c:/program files/microchip/xc32/v2.40/bin/bin/../../lib/gcc/pic32c/6.2.1\libgcc.a(floatunsisf.o)
 .text          0x00000000      0x424 c:/program files/microchip/xc32/v2.40/bin/bin/../../lib/gcc/pic32c/6.2.1\libgcc.a(muldf3.o)
 .data          0x00000000        0x0 c:/program files/microchip/xc32/v2.40/bin/bin/../../lib/gcc/pic32c/6.2.1\libgcc.a(muldf3.o)
 .bss           0x00000000        0x0 c:/program files/microchip/xc32/v2.40/bin/bin/../../lib/gcc/pic32c/6.2.1\libgcc.a(muldf3.o)
 .debug_info    0x00000000      0xa41 c:/program files/microchip/xc32/v2.40/bin/bin/../../lib/gcc/pic32c/6.2.1\libgcc.a(muldf3.o)
 .debug_abbrev  0x00000000      0x14a c:/program files/microchip/xc32/v2.40/bin/bin/../../lib/gcc/pic32c/6.2.1\libgcc.a(muldf3.o)
 .debug_loc     0x00000000      0xfde c:/program files/microchip/xc32/v2.40/bin/bin/../../lib/gcc/pic32c/6.2.1\libgcc.a(muldf3.o)
 .debug_aranges
                0x00000000       0x20 c:/program files/microchip/xc32/v2.40/bin/bin/../../lib/gcc/pic32c/6.2.1\libgcc.a(muldf3.o)
 .debug_ranges  0x00000000      0x1d0 c:/program files/microchip/xc32/v2.40/bin/bin/../../lib/gcc/pic32c/6.2.1\libgcc.a(muldf3.o)
 .debug_line    0x00000000      0x182 c:/program files/microchip/xc32/v2.40/bin/bin/../../lib/gcc/pic32c/6.2.1\libgcc.a(muldf3.o)
 .debug_str     0x00000000       0x56 c:/program files/microchip/xc32/v2.40/bin/bin/../../lib/gcc/pic32c/6.2.1\libgcc.a(muldf3.o)
 .comment       0x00000000       0x3d c:/program files/microchip/xc32/v2.40/bin/bin/../../lib/gcc/pic32c/6.2.1\libgcc.a(muldf3.o)
 .debug_frame   0x00000000       0x30 c:/program files/microchip/xc32/v2.40/bin/bin/../../lib/gcc/pic32c/6.2.1\libgcc.a(muldf3.o)
 .ARM.attributes
                0x00000000       0x2c c:/program files/microchip/xc32/v2.40/bin/bin/../../lib/gcc/pic32c/6.2.1\libgcc.a(muldf3.o)
 .text          0x00000000       0x74 c:/program files/microchip/xc32/v2.40/bin/bin/../../lib/gcc/pic32c/6.2.1\libgcc.a(floatsidf.o)
 .data          0x00000000        0x0 c:/program files/microchip/xc32/v2.40/bin/bin/../../lib/gcc/pic32c/6.2.1\libgcc.a(floatsidf.o)
 .bss           0x00000000        0x0 c:/program files/microchip/xc32/v2.40/bin/bin/../../lib/gcc/pic32c/6.2.1\libgcc.a(floatsidf.o)
 .debug_info    0x00000000      0x4fc c:/program files/microchip/xc32/v2.40/bin/bin/../../lib/gcc/pic32c/6.2.1\libgcc.a(floatsidf.o)
 .debug_abbrev  0x00000000      0x118 c:/program files/microchip/xc32/v2.40/bin/bin/../../lib/gcc/pic32c/6.2.1\libgcc.a(floatsidf.o)
 .debug_loc     0x00000000      0x1c1 c:/program files/microchip/xc32/v2.40/bin/bin/../../lib/gcc/pic32c/6.2.1\libgcc.a(floatsidf.o)
 .debug_aranges
                0x00000000       0x20 c:/program files/microchip/xc32/v2.40/bin/bin/../../lib/gcc/pic32c/6.2.1\libgcc.a(floatsidf.o)
 .debug_ranges  0x00000000       0x50 c:/program files/microchip/xc32/v2.40/bin/bin/../../lib/gcc/pic32c/6.2.1\libgcc.a(floatsidf.o)
 .debug_line    0x00000000      0x12a c:/program files/microchip/xc32/v2.40/bin/bin/../../lib/gcc/pic32c/6.2.1\libgcc.a(floatsidf.o)
 .debug_str     0x00000000        0x0 c:/program files/microchip/xc32/v2.40/bin/bin/../../lib/gcc/pic32c/6.2.1\libgcc.a(floatsidf.o)
 .comment       0x00000000       0x3d c:/program files/microchip/xc32/v2.40/bin/bin/../../lib/gcc/pic32c/6.2.1\libgcc.a(floatsidf.o)
 .debug_frame   0x00000000       0x30 c:/program files/microchip/xc32/v2.40/bin/bin/../../lib/gcc/pic32c/6.2.1\libgcc.a(floatsidf.o)
 .ARM.attributes
                0x00000000       0x2c c:/program files/microchip/xc32/v2.40/bin/bin/../../lib/gcc/pic32c/6.2.1\libgcc.a(floatsidf.o)
 .text          0x00000000       0x98 c:/program files/microchip/xc32/v2.40/bin/bin/../../lib/gcc/pic32c/6.2.1\libgcc.a(extendsfdf2.o)
 .data          0x00000000        0x0 c:/program files/microchip/xc32/v2.40/bin/bin/../../lib/gcc/pic32c/6.2.1\libgcc.a(extendsfdf2.o)
 .bss           0x00000000        0x0 c:/program files/microchip/xc32/v2.40/bin/bin/../../lib/gcc/pic32c/6.2.1\libgcc.a(extendsfdf2.o)
 .debug_info    0x00000000      0x47d c:/program files/microchip/xc32/v2.40/bin/bin/../../lib/gcc/pic32c/6.2.1\libgcc.a(extendsfdf2.o)
 .debug_abbrev  0x00000000      0x114 c:/program files/microchip/xc32/v2.40/bin/bin/../../lib/gcc/pic32c/6.2.1\libgcc.a(extendsfdf2.o)
 .debug_loc     0x00000000      0x260 c:/program files/microchip/xc32/v2.40/bin/bin/../../lib/gcc/pic32c/6.2.1\libgcc.a(extendsfdf2.o)
 .debug_aranges
                0x00000000       0x20 c:/program files/microchip/xc32/v2.40/bin/bin/../../lib/gcc/pic32c/6.2.1\libgcc.a(extendsfdf2.o)
 .debug_ranges  0x00000000       0x20 c:/program files/microchip/xc32/v2.40/bin/bin/../../lib/gcc/pic32c/6.2.1\libgcc.a(extendsfdf2.o)
 .debug_line    0x00000000      0x145 c:/program files/microchip/xc32/v2.40/bin/bin/../../lib/gcc/pic32c/6.2.1\libgcc.a(extendsfdf2.o)
 .debug_str     0x00000000        0x0 c:/program files/microchip/xc32/v2.40/bin/bin/../../lib/gcc/pic32c/6.2.1\libgcc.a(extendsfdf2.o)
 .comment       0x00000000       0x3d c:/program files/microchip/xc32/v2.40/bin/bin/../../lib/gcc/pic32c/6.2.1\libgcc.a(extendsfdf2.o)
 .debug_frame   0x00000000       0x2c c:/program files/microchip/xc32/v2.40/bin/bin/../../lib/gcc/pic32c/6.2.1\libgcc.a(extendsfdf2.o)
 .ARM.attributes
                0x00000000       0x2c c:/program files/microchip/xc32/v2.40/bin/bin/../../lib/gcc/pic32c/6.2.1\libgcc.a(extendsfdf2.o)
 .text          0x00000000      0x100 c:/program files/microchip/xc32/v2.40/bin/bin/../../lib/gcc/pic32c/6.2.1\libgcc.a(truncdfsf2.o)
 .data          0x00000000        0x0 c:/program files/microchip/xc32/v2.40/bin/bin/../../lib/gcc/pic32c/6.2.1\libgcc.a(truncdfsf2.o)
 .bss           0x00000000        0x0 c:/program files/microchip/xc32/v2.40/bin/bin/../../lib/gcc/pic32c/6.2.1\libgcc.a(truncdfsf2.o)
 .debug_info    0x00000000      0x4ee c:/program files/microchip/xc32/v2.40/bin/bin/../../lib/gcc/pic32c/6.2.1\libgcc.a(truncdfsf2.o)
 .debug_abbrev  0x00000000      0x10e c:/program files/microchip/xc32/v2.40/bin/bin/../../lib/gcc/pic32c/6.2.1\libgcc.a(truncdfsf2.o)
 .debug_loc     0x00000000      0x2e6 c:/program files/microchip/xc32/v2.40/bin/bin/../../lib/gcc/pic32c/6.2.1\libgcc.a(truncdfsf2.o)
 .debug_aranges
                0x00000000       0x20 c:/program files/microchip/xc32/v2.40/bin/bin/../../lib/gcc/pic32c/6.2.1\libgcc.a(truncdfsf2.o)
 .debug_ranges  0x00000000       0x38 c:/program files/microchip/xc32/v2.40/bin/bin/../../lib/gcc/pic32c/6.2.1\libgcc.a(truncdfsf2.o)
 .debug_line    0x00000000      0x154 c:/program files/microchip/xc32/v2.40/bin/bin/../../lib/gcc/pic32c/6.2.1\libgcc.a(truncdfsf2.o)
 .debug_str     0x00000000        0x0 c:/program files/microchip/xc32/v2.40/bin/bin/../../lib/gcc/pic32c/6.2.1\libgcc.a(truncdfsf2.o)
 .comment       0x00000000       0x3d c:/program files/microchip/xc32/v2.40/bin/bin/../../lib/gcc/pic32c/6.2.1\libgcc.a(truncdfsf2.o)
 .debug_frame   0x00000000       0x30 c:/program files/microchip/xc32/v2.40/bin/bin/../../lib/gcc/pic32c/6.2.1\libgcc.a(truncdfsf2.o)
 .ARM.attributes
                0x00000000       0x2c c:/program files/microchip/xc32/v2.40/bin/bin/../../lib/gcc/pic32c/6.2.1\libgcc.a(truncdfsf2.o)
 .data          0x00000000        0x0 c:/program files/microchip/xc32/v2.40/bin/bin/../../lib/gcc/pic32c/6.2.1\libgcc.a(_thumb1_case_uqi.o)
 .bss           0x00000000        0x0 c:/program files/microchip/xc32/v2.40/bin/bin/../../lib/gcc/pic32c/6.2.1\libgcc.a(_thumb1_case_uqi.o)
 .text          0x00000000       0x14 c:/program files/microchip/xc32/v2.40/bin/bin/../../lib/gcc/pic32c/6.2.1\libgcc.a(_thumb1_case_uhi.o)
 .data          0x00000000        0x0 c:/program files/microchip/xc32/v2.40/bin/bin/../../lib/gcc/pic32c/6.2.1\libgcc.a(_thumb1_case_uhi.o)
 .bss           0x00000000        0x0 c:/program files/microchip/xc32/v2.40/bin/bin/../../lib/gcc/pic32c/6.2.1\libgcc.a(_thumb1_case_uhi.o)
 .debug_line    0x00000000       0xa5 c:/program files/microchip/xc32/v2.40/bin/bin/../../lib/gcc/pic32c/6.2.1\libgcc.a(_thumb1_case_uhi.o)
 .debug_info    0x00000000       0xee c:/program files/microchip/xc32/v2.40/bin/bin/../../lib/gcc/pic32c/6.2.1\libgcc.a(_thumb1_case_uhi.o)
 .debug_abbrev  0x00000000       0x14 c:/program files/microchip/xc32/v2.40/bin/bin/../../lib/gcc/pic32c/6.2.1\libgcc.a(_thumb1_case_uhi.o)
 .debug_aranges
                0x00000000       0x20 c:/program files/microchip/xc32/v2.40/bin/bin/../../lib/gcc/pic32c/6.2.1\libgcc.a(_thumb1_case_uhi.o)
 .ARM.attributes
                0x00000000       0x1e c:/program files/microchip/xc32/v2.40/bin/bin/../../lib/gcc/pic32c/6.2.1\libgcc.a(_thumb1_case_uhi.o)
 .data          0x00000000        0x0 c:/program files/microchip/xc32/v2.40/bin/bin/../../lib/gcc/pic32c/6.2.1\libgcc.a(_lshrdi3.o)
 .bss           0x00000000        0x0 c:/program files/microchip/xc32/v2.40/bin/bin/../../lib/gcc/pic32c/6.2.1\libgcc.a(_lshrdi3.o)
 .data          0x00000000        0x0 c:/program files/microchip/xc32/v2.40/bin/bin/../../lib/gcc/pic32c/6.2.1\libgcc.a(_ashldi3.o)
 .bss           0x00000000        0x0 c:/program files/microchip/xc32/v2.40/bin/bin/../../lib/gcc/pic32c/6.2.1\libgcc.a(_ashldi3.o)
 .text          0x00000000       0x74 c:/program files/microchip/xc32/v2.40/bin/bin/../../lib/gcc/pic32c/6.2.1\libgcc.a(_arm_cmpsf2.o)
 .data          0x00000000        0x0 c:/program files/microchip/xc32/v2.40/bin/bin/../../lib/gcc/pic32c/6.2.1\libgcc.a(_arm_cmpsf2.o)
 .bss           0x00000000        0x0 c:/program files/microchip/xc32/v2.40/bin/bin/../../lib/gcc/pic32c/6.2.1\libgcc.a(_arm_cmpsf2.o)
 .debug_line    0x00000000       0xb1 c:/program files/microchip/xc32/v2.40/bin/bin/../../lib/gcc/pic32c/6.2.1\libgcc.a(_arm_cmpsf2.o)
 .debug_info    0x00000000       0xee c:/program files/microchip/xc32/v2.40/bin/bin/../../lib/gcc/pic32c/6.2.1\libgcc.a(_arm_cmpsf2.o)
 .debug_abbrev  0x00000000       0x14 c:/program files/microchip/xc32/v2.40/bin/bin/../../lib/gcc/pic32c/6.2.1\libgcc.a(_arm_cmpsf2.o)
 .debug_aranges
                0x00000000       0x20 c:/program files/microchip/xc32/v2.40/bin/bin/../../lib/gcc/pic32c/6.2.1\libgcc.a(_arm_cmpsf2.o)
 .ARM.attributes
                0x00000000       0x1e c:/program files/microchip/xc32/v2.40/bin/bin/../../lib/gcc/pic32c/6.2.1\libgcc.a(_arm_cmpsf2.o)
 .data          0x00000000        0x0 c:/program files/microchip/xc32/v2.40/bin/bin/../../lib/gcc/pic32c/6.2.1\libgcc.a(_clzsi2.o)
 .bss           0x00000000        0x0 c:/program files/microchip/xc32/v2.40/bin/bin/../../lib/gcc/pic32c/6.2.1\libgcc.a(_clzsi2.o)
 .data          0x00000000        0x0 c:/program files/microchip/xc32/v2.40/bin/bin/../../lib/gcc/pic32c/6.2.1\libgcc.a(_clzdi2.o)
 .bss           0x00000000        0x0 c:/program files/microchip/xc32/v2.40/bin/bin/../../lib/gcc/pic32c/6.2.1\libgcc.a(_clzdi2.o)
 .text          0x00000000       0x4a c:/program files/microchip/xc32/v2.40/bin/bin/../../lib/gcc/pic32c/6.2.1\libgcc.a(eqsf2.o)
 .data          0x00000000        0x0 c:/program files/microchip/xc32/v2.40/bin/bin/../../lib/gcc/pic32c/6.2.1\libgcc.a(eqsf2.o)
 .bss           0x00000000        0x0 c:/program files/microchip/xc32/v2.40/bin/bin/../../lib/gcc/pic32c/6.2.1\libgcc.a(eqsf2.o)
 .debug_info    0x00000000      0x3e0 c:/program files/microchip/xc32/v2.40/bin/bin/../../lib/gcc/pic32c/6.2.1\libgcc.a(eqsf2.o)
 .debug_abbrev  0x00000000      0x128 c:/program files/microchip/xc32/v2.40/bin/bin/../../lib/gcc/pic32c/6.2.1\libgcc.a(eqsf2.o)
 .debug_loc     0x00000000       0xb8 c:/program files/microchip/xc32/v2.40/bin/bin/../../lib/gcc/pic32c/6.2.1\libgcc.a(eqsf2.o)
 .debug_aranges
                0x00000000       0x20 c:/program files/microchip/xc32/v2.40/bin/bin/../../lib/gcc/pic32c/6.2.1\libgcc.a(eqsf2.o)
 .debug_ranges  0x00000000       0x30 c:/program files/microchip/xc32/v2.40/bin/bin/../../lib/gcc/pic32c/6.2.1\libgcc.a(eqsf2.o)
 .debug_line    0x00000000      0x13e c:/program files/microchip/xc32/v2.40/bin/bin/../../lib/gcc/pic32c/6.2.1\libgcc.a(eqsf2.o)
 .debug_str     0x00000000       0x26 c:/program files/microchip/xc32/v2.40/bin/bin/../../lib/gcc/pic32c/6.2.1\libgcc.a(eqsf2.o)
 .comment       0x00000000       0x3d c:/program files/microchip/xc32/v2.40/bin/bin/../../lib/gcc/pic32c/6.2.1\libgcc.a(eqsf2.o)
 .debug_frame   0x00000000       0x2c c:/program files/microchip/xc32/v2.40/bin/bin/../../lib/gcc/pic32c/6.2.1\libgcc.a(eqsf2.o)
 .ARM.attributes
                0x00000000       0x2c c:/program files/microchip/xc32/v2.40/bin/bin/../../lib/gcc/pic32c/6.2.1\libgcc.a(eqsf2.o)
 .text          0x00000000       0x78 c:/program files/microchip/xc32/v2.40/bin/bin/../../lib/gcc/pic32c/6.2.1\libgcc.a(gesf2.o)
 .data          0x00000000        0x0 c:/program files/microchip/xc32/v2.40/bin/bin/../../lib/gcc/pic32c/6.2.1\libgcc.a(gesf2.o)
 .bss           0x00000000        0x0 c:/program files/microchip/xc32/v2.40/bin/bin/../../lib/gcc/pic32c/6.2.1\libgcc.a(gesf2.o)
 .debug_info    0x00000000      0x404 c:/program files/microchip/xc32/v2.40/bin/bin/../../lib/gcc/pic32c/6.2.1\libgcc.a(gesf2.o)
 .debug_abbrev  0x00000000      0x12a c:/program files/microchip/xc32/v2.40/bin/bin/../../lib/gcc/pic32c/6.2.1\libgcc.a(gesf2.o)
 .debug_loc     0x00000000      0x1ca c:/program files/microchip/xc32/v2.40/bin/bin/../../lib/gcc/pic32c/6.2.1\libgcc.a(gesf2.o)
 .debug_aranges
                0x00000000       0x20 c:/program files/microchip/xc32/v2.40/bin/bin/../../lib/gcc/pic32c/6.2.1\libgcc.a(gesf2.o)
 .debug_ranges  0x00000000       0x58 c:/program files/microchip/xc32/v2.40/bin/bin/../../lib/gcc/pic32c/6.2.1\libgcc.a(gesf2.o)
 .debug_line    0x00000000      0x149 c:/program files/microchip/xc32/v2.40/bin/bin/../../lib/gcc/pic32c/6.2.1\libgcc.a(gesf2.o)
 .debug_str     0x00000000       0x26 c:/program files/microchip/xc32/v2.40/bin/bin/../../lib/gcc/pic32c/6.2.1\libgcc.a(gesf2.o)
 .comment       0x00000000       0x3d c:/program files/microchip/xc32/v2.40/bin/bin/../../lib/gcc/pic32c/6.2.1\libgcc.a(gesf2.o)
 .debug_frame   0x00000000       0x30 c:/program files/microchip/xc32/v2.40/bin/bin/../../lib/gcc/pic32c/6.2.1\libgcc.a(gesf2.o)
 .ARM.attributes
                0x00000000       0x2c c:/program files/microchip/xc32/v2.40/bin/bin/../../lib/gcc/pic32c/6.2.1\libgcc.a(gesf2.o)
 .text          0x00000000       0x76 c:/program files/microchip/xc32/v2.40/bin/bin/../../lib/gcc/pic32c/6.2.1\libgcc.a(lesf2.o)
 .data          0x00000000        0x0 c:/program files/microchip/xc32/v2.40/bin/bin/../../lib/gcc/pic32c/6.2.1\libgcc.a(lesf2.o)
 .bss           0x00000000        0x0 c:/program files/microchip/xc32/v2.40/bin/bin/../../lib/gcc/pic32c/6.2.1\libgcc.a(lesf2.o)
 .debug_info    0x00000000      0x408 c:/program files/microchip/xc32/v2.40/bin/bin/../../lib/gcc/pic32c/6.2.1\libgcc.a(lesf2.o)
 .debug_abbrev  0x00000000      0x135 c:/program files/microchip/xc32/v2.40/bin/bin/../../lib/gcc/pic32c/6.2.1\libgcc.a(lesf2.o)
 .debug_loc     0x00000000      0x163 c:/program files/microchip/xc32/v2.40/bin/bin/../../lib/gcc/pic32c/6.2.1\libgcc.a(lesf2.o)
 .debug_aranges
                0x00000000       0x20 c:/program files/microchip/xc32/v2.40/bin/bin/../../lib/gcc/pic32c/6.2.1\libgcc.a(lesf2.o)
 .debug_ranges  0x00000000       0x30 c:/program files/microchip/xc32/v2.40/bin/bin/../../lib/gcc/pic32c/6.2.1\libgcc.a(lesf2.o)
 .debug_line    0x00000000      0x147 c:/program files/microchip/xc32/v2.40/bin/bin/../../lib/gcc/pic32c/6.2.1\libgcc.a(lesf2.o)
 .debug_str     0x00000000       0x26 c:/program files/microchip/xc32/v2.40/bin/bin/../../lib/gcc/pic32c/6.2.1\libgcc.a(lesf2.o)
 .comment       0x00000000       0x3d c:/program files/microchip/xc32/v2.40/bin/bin/../../lib/gcc/pic32c/6.2.1\libgcc.a(lesf2.o)
 .debug_frame   0x00000000       0x30 c:/program files/microchip/xc32/v2.40/bin/bin/../../lib/gcc/pic32c/6.2.1\libgcc.a(lesf2.o)
 .ARM.attributes
                0x00000000       0x2c c:/program files/microchip/xc32/v2.40/bin/bin/../../lib/gcc/pic32c/6.2.1\libgcc.a(lesf2.o)
 .text          0x00000000        0x0 c:/program files/microchip/xc32/v2.40/bin/bin/../../lib/gcc/pic32c/6.2.1/../../../../pic32c/lib\libg_nano.a(lib_a-init.o)
 .data          0x00000000        0x0 c:/program files/microchip/xc32/v2.40/bin/bin/../../lib/gcc/pic32c/6.2.1/../../../../pic32c/lib\libg_nano.a(lib_a-init.o)
 .bss           0x00000000        0x0 c:/program files/microchip/xc32/v2.40/bin/bin/../../lib/gcc/pic32c/6.2.1/../../../../pic32c/lib\libg_nano.a(lib_a-init.o)
 .text          0x00000000        0x0 c:/program files/microchip/xc32/v2.40/bin/bin/../../lib/gcc/pic32c/6.2.1/../../../../pic32c/lib\libg_nano.a(lib_a-memcmp.o)
 .data          0x00000000        0x0 c:/program files/microchip/xc32/v2.40/bin/bin/../../lib/gcc/pic32c/6.2.1/../../../../pic32c/lib\libg_nano.a(lib_a-memcmp.o)
 .bss           0x00000000        0x0 c:/program files/microchip/xc32/v2.40/bin/bin/../../lib/gcc/pic32c/6.2.1/../../../../pic32c/lib\libg_nano.a(lib_a-memcmp.o)
 .text          0x00000000        0x0 c:/program files/microchip/xc32/v2.40/bin/bin/../../lib/gcc/pic32c/6.2.1/../../../../pic32c/lib\libg_nano.a(lib_a-memcpy-stub.o)
 .data          0x00000000        0x0 c:/program files/microchip/xc32/v2.40/bin/bin/../../lib/gcc/pic32c/6.2.1/../../../../pic32c/lib\libg_nano.a(lib_a-memcpy-stub.o)
 .bss           0x00000000        0x0 c:/program files/microchip/xc32/v2.40/bin/bin/../../lib/gcc/pic32c/6.2.1/../../../../pic32c/lib\libg_nano.a(lib_a-memcpy-stub.o)
 .text          0x00000000        0x0 c:/program files/microchip/xc32/v2.40/bin/bin/../../lib/gcc/pic32c/6.2.1/../../../../pic32c/lib\libg_nano.a(lib_a-memset.o)
 .data          0x00000000        0x0 c:/program files/microchip/xc32/v2.40/bin/bin/../../lib/gcc/pic32c/6.2.1/../../../../pic32c/lib\libg_nano.a(lib_a-memset.o)
 .bss           0x00000000        0x0 c:/program files/microchip/xc32/v2.40/bin/bin/../../lib/gcc/pic32c/6.2.1/../../../../pic32c/lib\libg_nano.a(lib_a-memset.o)
 .text          0x00000000        0x0 c:/program files/microchip/xc32/v2.40/bin/bin/../../lib/gcc/pic32c/6.2.1/../../../../pic32c/lib\libg_nano.a(_lib_a-sprintf.cdnopuxX.o)
 .data          0x00000000        0x0 c:/program files/microchip/xc32/v2.40/bin/bin/../../lib/gcc/pic32c/6.2.1/../../../../pic32c/lib\libg_nano.a(_lib_a-sprintf.cdnopuxX.o)
 .bss           0x00000000        0x0 c:/program files/microchip/xc32/v2.40/bin/bin/../../lib/gcc/pic32c/6.2.1/../../../../pic32c/lib\libg_nano.a(_lib_a-sprintf.cdnopuxX.o)
 .data          0x00000000        0x0 c:/program files/microchip/xc32/v2.40/bin/bin/../../lib/gcc/pic32c/6.2.1/../../../../pic32c/lib\libg_nano.a(lib_a-strlen.o)
 .bss           0x00000000        0x0 c:/program files/microchip/xc32/v2.40/bin/bin/../../lib/gcc/pic32c/6.2.1/../../../../pic32c/lib\libg_nano.a(lib_a-strlen.o)
 .text          0x00000000        0x0 c:/program files/microchip/xc32/v2.40/bin/bin/../../lib/gcc/pic32c/6.2.1/../../../../pic32c/lib\libg_nano.a(_lib_a-nano-vfprintf.cdnopuxX.o)
 .data          0x00000000        0x0 c:/program files/microchip/xc32/v2.40/bin/bin/../../lib/gcc/pic32c/6.2.1/../../../../pic32c/lib\libg_nano.a(_lib_a-nano-vfprintf.cdnopuxX.o)
 .bss           0x00000000        0x0 c:/program files/microchip/xc32/v2.40/bin/bin/../../lib/gcc/pic32c/6.2.1/../../../../pic32c/lib\libg_nano.a(_lib_a-nano-vfprintf.cdnopuxX.o)
 .text.__printf_float
                0x00000000        0x6 c:/program files/microchip/xc32/v2.40/bin/bin/../../lib/gcc/pic32c/6.2.1/../../../../pic32c/lib\libg_nano.a(_lib_a-nano-vfprintf.cdnopuxX.o)
 .text          0x00000000        0x0 c:/program files/microchip/xc32/v2.40/bin/bin/../../lib/gcc/pic32c/6.2.1/../../../../pic32c/lib\libg_nano.a(lib_a-nano-vfprintf_i.o)
 .data          0x00000000        0x0 c:/program files/microchip/xc32/v2.40/bin/bin/../../lib/gcc/pic32c/6.2.1/../../../../pic32c/lib\libg_nano.a(lib_a-nano-vfprintf_i.o)
 .bss           0x00000000        0x0 c:/program files/microchip/xc32/v2.40/bin/bin/../../lib/gcc/pic32c/6.2.1/../../../../pic32c/lib\libg_nano.a(lib_a-nano-vfprintf_i.o)
 .text._printf_i
                0x00000000      0x234 c:/program files/microchip/xc32/v2.40/bin/bin/../../lib/gcc/pic32c/6.2.1/../../../../pic32c/lib\libg_nano.a(lib_a-nano-vfprintf_i.o)
 .rodata        0x00000000       0x22 c:/program files/microchip/xc32/v2.40/bin/bin/../../lib/gcc/pic32c/6.2.1/../../../../pic32c/lib\libg_nano.a(lib_a-nano-vfprintf_i.o)
 .text          0x00000000        0x0 c:/program files/microchip/xc32/v2.40/bin/bin/../../lib/gcc/pic32c/6.2.1/../../../../pic32c/lib\libg_nano.a(lib_a-__ssfputs.o)
 .data          0x00000000        0x0 c:/program files/microchip/xc32/v2.40/bin/bin/../../lib/gcc/pic32c/6.2.1/../../../../pic32c/lib\libg_nano.a(lib_a-__ssfputs.o)
 .bss           0x00000000        0x0 c:/program files/microchip/xc32/v2.40/bin/bin/../../lib/gcc/pic32c/6.2.1/../../../../pic32c/lib\libg_nano.a(lib_a-__ssfputs.o)
 .text          0x00000000        0x0 c:/program files/microchip/xc32/v2.40/bin/bin/../../lib/gcc/pic32c/6.2.1/../../../../pic32c/lib\libg_nano.a(lib_a-wbuf.o)
 .data          0x00000000        0x0 c:/program files/microchip/xc32/v2.40/bin/bin/../../lib/gcc/pic32c/6.2.1/../../../../pic32c/lib\libg_nano.a(lib_a-wbuf.o)
 .bss           0x00000000        0x0 c:/program files/microchip/xc32/v2.40/bin/bin/../../lib/gcc/pic32c/6.2.1/../../../../pic32c/lib\libg_nano.a(lib_a-wbuf.o)
 .text.__swbuf  0x00000000       0x14 c:/program files/microchip/xc32/v2.40/bin/bin/../../lib/gcc/pic32c/6.2.1/../../../../pic32c/lib\libg_nano.a(lib_a-wbuf.o)
 .text          0x00000000        0x0 c:/program files/microchip/xc32/v2.40/bin/bin/../../lib/gcc/pic32c/6.2.1/../../../../pic32c/lib\libg_nano.a(lib_a-wsetup.o)
 .data          0x00000000        0x0 c:/program files/microchip/xc32/v2.40/bin/bin/../../lib/gcc/pic32c/6.2.1/../../../../pic32c/lib\libg_nano.a(lib_a-wsetup.o)
 .bss           0x00000000        0x0 c:/program files/microchip/xc32/v2.40/bin/bin/../../lib/gcc/pic32c/6.2.1/../../../../pic32c/lib\libg_nano.a(lib_a-wsetup.o)
 .text          0x00000000        0x0 c:/program files/microchip/xc32/v2.40/bin/bin/../../lib/gcc/pic32c/6.2.1/../../../../pic32c/lib\libg_nano.a(lib_a-fflush.o)
 .data          0x00000000        0x0 c:/program files/microchip/xc32/v2.40/bin/bin/../../lib/gcc/pic32c/6.2.1/../../../../pic32c/lib\libg_nano.a(lib_a-fflush.o)
 .bss           0x00000000        0x0 c:/program files/microchip/xc32/v2.40/bin/bin/../../lib/gcc/pic32c/6.2.1/../../../../pic32c/lib\libg_nano.a(lib_a-fflush.o)
 .text.fflush   0x00000000       0x28 c:/program files/microchip/xc32/v2.40/bin/bin/../../lib/gcc/pic32c/6.2.1/../../../../pic32c/lib\libg_nano.a(lib_a-fflush.o)
 .text          0x00000000        0x0 c:/program files/microchip/xc32/v2.40/bin/bin/../../lib/gcc/pic32c/6.2.1/../../../../pic32c/lib\libg_nano.a(lib_a-findfp.o)
 .data          0x00000000        0x0 c:/program files/microchip/xc32/v2.40/bin/bin/../../lib/gcc/pic32c/6.2.1/../../../../pic32c/lib\libg_nano.a(lib_a-findfp.o)
 .bss           0x00000000        0x0 c:/program files/microchip/xc32/v2.40/bin/bin/../../lib/gcc/pic32c/6.2.1/../../../../pic32c/lib\libg_nano.a(lib_a-findfp.o)
 .text._cleanup
                0x00000000       0x10 c:/program files/microchip/xc32/v2.40/bin/bin/../../lib/gcc/pic32c/6.2.1/../../../../pic32c/lib\libg_nano.a(lib_a-findfp.o)
 .text          0x00000000        0x0 c:/program files/microchip/xc32/v2.40/bin/bin/../../lib/gcc/pic32c/6.2.1/../../../../pic32c/lib\libg_nano.a(lib_a-fputwc.o)
 .data          0x00000000        0x0 c:/program files/microchip/xc32/v2.40/bin/bin/../../lib/gcc/pic32c/6.2.1/../../../../pic32c/lib\libg_nano.a(lib_a-fputwc.o)
 .bss           0x00000000        0x0 c:/program files/microchip/xc32/v2.40/bin/bin/../../lib/gcc/pic32c/6.2.1/../../../../pic32c/lib\libg_nano.a(lib_a-fputwc.o)
 .text.fputwc   0x00000000       0x54 c:/program files/microchip/xc32/v2.40/bin/bin/../../lib/gcc/pic32c/6.2.1/../../../../pic32c/lib\libg_nano.a(lib_a-fputwc.o)
 .text          0x00000000        0x0 c:/program files/microchip/xc32/v2.40/bin/bin/../../lib/gcc/pic32c/6.2.1/../../../../pic32c/lib\libg_nano.a(lib_a-fwalk.o)
 .data          0x00000000        0x0 c:/program files/microchip/xc32/v2.40/bin/bin/../../lib/gcc/pic32c/6.2.1/../../../../pic32c/lib\libg_nano.a(lib_a-fwalk.o)
 .bss           0x00000000        0x0 c:/program files/microchip/xc32/v2.40/bin/bin/../../lib/gcc/pic32c/6.2.1/../../../../pic32c/lib\libg_nano.a(lib_a-fwalk.o)
 .text._fwalk   0x00000000       0x38 c:/program files/microchip/xc32/v2.40/bin/bin/../../lib/gcc/pic32c/6.2.1/../../../../pic32c/lib\libg_nano.a(lib_a-fwalk.o)
 .text          0x00000000        0x0 c:/program files/microchip/xc32/v2.40/bin/bin/../../lib/gcc/pic32c/6.2.1/../../../../pic32c/lib\libg_nano.a(lib_a-impure.o)
 .data          0x00000000        0x0 c:/program files/microchip/xc32/v2.40/bin/bin/../../lib/gcc/pic32c/6.2.1/../../../../pic32c/lib\libg_nano.a(lib_a-impure.o)
 .bss           0x00000000        0x0 c:/program files/microchip/xc32/v2.40/bin/bin/../../lib/gcc/pic32c/6.2.1/../../../../pic32c/lib\libg_nano.a(lib_a-impure.o)
 .text          0x00000000        0x0 c:/program files/microchip/xc32/v2.40/bin/bin/../../lib/gcc/pic32c/6.2.1/../../../../pic32c/lib\libg_nano.a(lib_a-locale.o)
 .data          0x00000000        0x0 c:/program files/microchip/xc32/v2.40/bin/bin/../../lib/gcc/pic32c/6.2.1/../../../../pic32c/lib\libg_nano.a(lib_a-locale.o)
 .bss           0x00000000        0x0 c:/program files/microchip/xc32/v2.40/bin/bin/../../lib/gcc/pic32c/6.2.1/../../../../pic32c/lib\libg_nano.a(lib_a-locale.o)
 .text._setlocale_r
                0x00000000       0x3c c:/program files/microchip/xc32/v2.40/bin/bin/../../lib/gcc/pic32c/6.2.1/../../../../pic32c/lib\libg_nano.a(lib_a-locale.o)
 .text.__locale_ctype_ptr_l
                0x00000000        0x6 c:/program files/microchip/xc32/v2.40/bin/bin/../../lib/gcc/pic32c/6.2.1/../../../../pic32c/lib\libg_nano.a(lib_a-locale.o)
 .text.__locale_ctype_ptr
                0x00000000       0x1c c:/program files/microchip/xc32/v2.40/bin/bin/../../lib/gcc/pic32c/6.2.1/../../../../pic32c/lib\libg_nano.a(lib_a-locale.o)
 .text.setlocale
                0x00000000       0x14 c:/program files/microchip/xc32/v2.40/bin/bin/../../lib/gcc/pic32c/6.2.1/../../../../pic32c/lib\libg_nano.a(lib_a-locale.o)
 .bss._PathLocale
                0x00000000        0x4 c:/program files/microchip/xc32/v2.40/bin/bin/../../lib/gcc/pic32c/6.2.1/../../../../pic32c/lib\libg_nano.a(lib_a-locale.o)
 .text          0x00000000        0x0 c:/program files/microchip/xc32/v2.40/bin/bin/../../lib/gcc/pic32c/6.2.1/../../../../pic32c/lib\libg_nano.a(lib_a-makebuf.o)
 .data          0x00000000        0x0 c:/program files/microchip/xc32/v2.40/bin/bin/../../lib/gcc/pic32c/6.2.1/../../../../pic32c/lib\libg_nano.a(lib_a-makebuf.o)
 .bss           0x00000000        0x0 c:/program files/microchip/xc32/v2.40/bin/bin/../../lib/gcc/pic32c/6.2.1/../../../../pic32c/lib\libg_nano.a(lib_a-makebuf.o)
 .text          0x00000000        0x0 c:/program files/microchip/xc32/v2.40/bin/bin/../../lib/gcc/pic32c/6.2.1/../../../../pic32c/lib\libg_nano.a(lib_a-mbtowc_r.o)
 .data          0x00000000        0x0 c:/program files/microchip/xc32/v2.40/bin/bin/../../lib/gcc/pic32c/6.2.1/../../../../pic32c/lib\libg_nano.a(lib_a-mbtowc_r.o)
 .bss           0x00000000        0x0 c:/program files/microchip/xc32/v2.40/bin/bin/../../lib/gcc/pic32c/6.2.1/../../../../pic32c/lib\libg_nano.a(lib_a-mbtowc_r.o)
 .text._mbtowc_r
                0x00000000       0x24 c:/program files/microchip/xc32/v2.40/bin/bin/../../lib/gcc/pic32c/6.2.1/../../../../pic32c/lib\libg_nano.a(lib_a-mbtowc_r.o)
 .text          0x00000000        0x0 c:/program files/microchip/xc32/v2.40/bin/bin/../../lib/gcc/pic32c/6.2.1/../../../../pic32c/lib\libg_nano.a(lib_a-memchr-stub.o)
 .data          0x00000000        0x0 c:/program files/microchip/xc32/v2.40/bin/bin/../../lib/gcc/pic32c/6.2.1/../../../../pic32c/lib\libg_nano.a(lib_a-memchr-stub.o)
 .bss           0x00000000        0x0 c:/program files/microchip/xc32/v2.40/bin/bin/../../lib/gcc/pic32c/6.2.1/../../../../pic32c/lib\libg_nano.a(lib_a-memchr-stub.o)
 .text          0x00000000        0x0 c:/program files/microchip/xc32/v2.40/bin/bin/../../lib/gcc/pic32c/6.2.1/../../../../pic32c/lib\libg_nano.a(lib_a-nano-freer.o)
 .data          0x00000000        0x0 c:/program files/microchip/xc32/v2.40/bin/bin/../../lib/gcc/pic32c/6.2.1/../../../../pic32c/lib\libg_nano.a(lib_a-nano-freer.o)
 .bss           0x00000000        0x0 c:/program files/microchip/xc32/v2.40/bin/bin/../../lib/gcc/pic32c/6.2.1/../../../../pic32c/lib\libg_nano.a(lib_a-nano-freer.o)
 .text          0x00000000        0x0 c:/program files/microchip/xc32/v2.40/bin/bin/../../lib/gcc/pic32c/6.2.1/../../../../pic32c/lib\libg_nano.a(lib_a-nano-mallocr.o)
 .data          0x00000000        0x0 c:/program files/microchip/xc32/v2.40/bin/bin/../../lib/gcc/pic32c/6.2.1/../../../../pic32c/lib\libg_nano.a(lib_a-nano-mallocr.o)
 .bss           0x00000000        0x0 c:/program files/microchip/xc32/v2.40/bin/bin/../../lib/gcc/pic32c/6.2.1/../../../../pic32c/lib\libg_nano.a(lib_a-nano-mallocr.o)
 .text          0x00000000        0x0 c:/program files/microchip/xc32/v2.40/bin/bin/../../lib/gcc/pic32c/6.2.1/../../../../pic32c/lib\libg_nano.a(lib_a-sbrkr.o)
 .data          0x00000000        0x0 c:/program files/microchip/xc32/v2.40/bin/bin/../../lib/gcc/pic32c/6.2.1/../../../../pic32c/lib\libg_nano.a(lib_a-sbrkr.o)
 .bss           0x00000000        0x0 c:/program files/microchip/xc32/v2.40/bin/bin/../../lib/gcc/pic32c/6.2.1/../../../../pic32c/lib\libg_nano.a(lib_a-sbrkr.o)
 .text          0x00000000        0x0 c:/program files/microchip/xc32/v2.40/bin/bin/../../lib/gcc/pic32c/6.2.1/../../../../pic32c/lib\libg_nano.a(lib_a-stdio.o)
 .data          0x00000000        0x0 c:/program files/microchip/xc32/v2.40/bin/bin/../../lib/gcc/pic32c/6.2.1/../../../../pic32c/lib\libg_nano.a(lib_a-stdio.o)
 .bss           0x00000000        0x0 c:/program files/microchip/xc32/v2.40/bin/bin/../../lib/gcc/pic32c/6.2.1/../../../../pic32c/lib\libg_nano.a(lib_a-stdio.o)
 .text.__seofread
                0x00000000        0x4 c:/program files/microchip/xc32/v2.40/bin/bin/../../lib/gcc/pic32c/6.2.1/../../../../pic32c/lib\libg_nano.a(lib_a-stdio.o)
 .text          0x00000000       0x14 c:/program files/microchip/xc32/v2.40/bin/bin/../../lib/gcc/pic32c/6.2.1/../../../../pic32c/lib\libg_nano.a(lib_a-strcmp.o)
 .data          0x00000000        0x0 c:/program files/microchip/xc32/v2.40/bin/bin/../../lib/gcc/pic32c/6.2.1/../../../../pic32c/lib\libg_nano.a(lib_a-strcmp.o)
 .bss           0x00000000        0x0 c:/program files/microchip/xc32/v2.40/bin/bin/../../lib/gcc/pic32c/6.2.1/../../../../pic32c/lib\libg_nano.a(lib_a-strcmp.o)
 .debug_line    0x00000000       0xb1 c:/program files/microchip/xc32/v2.40/bin/bin/../../lib/gcc/pic32c/6.2.1/../../../../pic32c/lib\libg_nano.a(lib_a-strcmp.o)
 .debug_info    0x00000000      0x114 c:/program files/microchip/xc32/v2.40/bin/bin/../../lib/gcc/pic32c/6.2.1/../../../../pic32c/lib\libg_nano.a(lib_a-strcmp.o)
 .debug_abbrev  0x00000000       0x14 c:/program files/microchip/xc32/v2.40/bin/bin/../../lib/gcc/pic32c/6.2.1/../../../../pic32c/lib\libg_nano.a(lib_a-strcmp.o)
 .debug_aranges
                0x00000000       0x20 c:/program files/microchip/xc32/v2.40/bin/bin/../../lib/gcc/pic32c/6.2.1/../../../../pic32c/lib\libg_nano.a(lib_a-strcmp.o)
 .debug_frame   0x00000000       0x20 c:/program files/microchip/xc32/v2.40/bin/bin/../../lib/gcc/pic32c/6.2.1/../../../../pic32c/lib\libg_nano.a(lib_a-strcmp.o)
 .ARM.attributes
                0x00000000       0x1c c:/program files/microchip/xc32/v2.40/bin/bin/../../lib/gcc/pic32c/6.2.1/../../../../pic32c/lib\libg_nano.a(lib_a-strcmp.o)
 .text          0x00000000        0x0 c:/program files/microchip/xc32/v2.40/bin/bin/../../lib/gcc/pic32c/6.2.1/../../../../pic32c/lib\libg_nano.a(lib_a-wcrtomb.o)
 .data          0x00000000        0x0 c:/program files/microchip/xc32/v2.40/bin/bin/../../lib/gcc/pic32c/6.2.1/../../../../pic32c/lib\libg_nano.a(lib_a-wcrtomb.o)
 .bss           0x00000000        0x0 c:/program files/microchip/xc32/v2.40/bin/bin/../../lib/gcc/pic32c/6.2.1/../../../../pic32c/lib\libg_nano.a(lib_a-wcrtomb.o)
 .text.wcrtomb  0x00000000       0x18 c:/program files/microchip/xc32/v2.40/bin/bin/../../lib/gcc/pic32c/6.2.1/../../../../pic32c/lib\libg_nano.a(lib_a-wcrtomb.o)
 .text          0x00000000        0x0 c:/program files/microchip/xc32/v2.40/bin/bin/../../lib/gcc/pic32c/6.2.1/../../../../pic32c/lib\libg_nano.a(lib_a-wctomb_r.o)
 .data          0x00000000        0x0 c:/program files/microchip/xc32/v2.40/bin/bin/../../lib/gcc/pic32c/6.2.1/../../../../pic32c/lib\libg_nano.a(lib_a-wctomb_r.o)
 .bss           0x00000000        0x0 c:/program files/microchip/xc32/v2.40/bin/bin/../../lib/gcc/pic32c/6.2.1/../../../../pic32c/lib\libg_nano.a(lib_a-wctomb_r.o)
 .text._wctomb_r
                0x00000000       0x20 c:/program files/microchip/xc32/v2.40/bin/bin/../../lib/gcc/pic32c/6.2.1/../../../../pic32c/lib\libg_nano.a(lib_a-wctomb_r.o)
 .text          0x00000000        0x0 c:/program files/microchip/xc32/v2.40/bin/bin/../../lib/gcc/pic32c/6.2.1/../../../../pic32c/lib\libg_nano.a(lib_a-writer.o)
 .data          0x00000000        0x0 c:/program files/microchip/xc32/v2.40/bin/bin/../../lib/gcc/pic32c/6.2.1/../../../../pic32c/lib\libg_nano.a(lib_a-writer.o)
 .bss           0x00000000        0x0 c:/program files/microchip/xc32/v2.40/bin/bin/../../lib/gcc/pic32c/6.2.1/../../../../pic32c/lib\libg_nano.a(lib_a-writer.o)
 .text          0x00000000        0x0 c:/program files/microchip/xc32/v2.40/bin/bin/../../lib/gcc/pic32c/6.2.1/../../../../pic32c/lib\libg_nano.a(lib_a-closer.o)
 .data          0x00000000        0x0 c:/program files/microchip/xc32/v2.40/bin/bin/../../lib/gcc/pic32c/6.2.1/../../../../pic32c/lib\libg_nano.a(lib_a-closer.o)
 .bss           0x00000000        0x0 c:/program files/microchip/xc32/v2.40/bin/bin/../../lib/gcc/pic32c/6.2.1/../../../../pic32c/lib\libg_nano.a(lib_a-closer.o)
 .text          0x00000000        0x0 c:/program files/microchip/xc32/v2.40/bin/bin/../../lib/gcc/pic32c/6.2.1/../../../../pic32c/lib\libg_nano.a(lib_a-ctype_.o)
 .data          0x00000000        0x0 c:/program files/microchip/xc32/v2.40/bin/bin/../../lib/gcc/pic32c/6.2.1/../../../../pic32c/lib\libg_nano.a(lib_a-ctype_.o)
 .bss           0x00000000        0x0 c:/program files/microchip/xc32/v2.40/bin/bin/../../lib/gcc/pic32c/6.2.1/../../../../pic32c/lib\libg_nano.a(lib_a-ctype_.o)
 .text          0x00000000        0x0 c:/program files/microchip/xc32/v2.40/bin/bin/../../lib/gcc/pic32c/6.2.1/../../../../pic32c/lib\libg_nano.a(lib_a-fstatr.o)
 .data          0x00000000        0x0 c:/program files/microchip/xc32/v2.40/bin/bin/../../lib/gcc/pic32c/6.2.1/../../../../pic32c/lib\libg_nano.a(lib_a-fstatr.o)
 .bss           0x00000000        0x0 c:/program files/microchip/xc32/v2.40/bin/bin/../../lib/gcc/pic32c/6.2.1/../../../../pic32c/lib\libg_nano.a(lib_a-fstatr.o)
 .text          0x00000000        0x0 c:/program files/microchip/xc32/v2.40/bin/bin/../../lib/gcc/pic32c/6.2.1/../../../../pic32c/lib\libg_nano.a(lib_a-isattyr.o)
 .data          0x00000000        0x0 c:/program files/microchip/xc32/v2.40/bin/bin/../../lib/gcc/pic32c/6.2.1/../../../../pic32c/lib\libg_nano.a(lib_a-isattyr.o)
 .bss           0x00000000        0x0 c:/program files/microchip/xc32/v2.40/bin/bin/../../lib/gcc/pic32c/6.2.1/../../../../pic32c/lib\libg_nano.a(lib_a-isattyr.o)
 .text          0x00000000        0x0 c:/program files/microchip/xc32/v2.40/bin/bin/../../lib/gcc/pic32c/6.2.1/../../../../pic32c/lib\libg_nano.a(lib_a-lseekr.o)
 .data          0x00000000        0x0 c:/program files/microchip/xc32/v2.40/bin/bin/../../lib/gcc/pic32c/6.2.1/../../../../pic32c/lib\libg_nano.a(lib_a-lseekr.o)
 .bss           0x00000000        0x0 c:/program files/microchip/xc32/v2.40/bin/bin/../../lib/gcc/pic32c/6.2.1/../../../../pic32c/lib\libg_nano.a(lib_a-lseekr.o)
 .text          0x00000000        0x0 c:/program files/microchip/xc32/v2.40/bin/bin/../../lib/gcc/pic32c/6.2.1/../../../../pic32c/lib\libg_nano.a(lib_a-mlock.o)
 .data          0x00000000        0x0 c:/program files/microchip/xc32/v2.40/bin/bin/../../lib/gcc/pic32c/6.2.1/../../../../pic32c/lib\libg_nano.a(lib_a-mlock.o)
 .bss           0x00000000        0x0 c:/program files/microchip/xc32/v2.40/bin/bin/../../lib/gcc/pic32c/6.2.1/../../../../pic32c/lib\libg_nano.a(lib_a-mlock.o)
 .text          0x00000000        0x0 c:/program files/microchip/xc32/v2.40/bin/bin/../../lib/gcc/pic32c/6.2.1/../../../../pic32c/lib\libg_nano.a(lib_a-readr.o)
 .data          0x00000000        0x0 c:/program files/microchip/xc32/v2.40/bin/bin/../../lib/gcc/pic32c/6.2.1/../../../../pic32c/lib\libg_nano.a(lib_a-readr.o)
 .bss           0x00000000        0x0 c:/program files/microchip/xc32/v2.40/bin/bin/../../lib/gcc/pic32c/6.2.1/../../../../pic32c/lib\libg_nano.a(lib_a-readr.o)
 .text          0x00000000        0x0 c:/program files/microchip/xc32/v2.40/bin/bin/../../lib/gcc/pic32c/6.2.1/../../../../pic32c/lib\libg_nano.a(lib_a-reent.o)
 .data          0x00000000        0x0 c:/program files/microchip/xc32/v2.40/bin/bin/../../lib/gcc/pic32c/6.2.1/../../../../pic32c/lib\libg_nano.a(lib_a-reent.o)
 .bss           0x00000000        0x0 c:/program files/microchip/xc32/v2.40/bin/bin/../../lib/gcc/pic32c/6.2.1/../../../../pic32c/lib\libg_nano.a(lib_a-reent.o)
 .text.cleanup_glue
                0x00000000       0x1a c:/program files/microchip/xc32/v2.40/bin/bin/../../lib/gcc/pic32c/6.2.1/../../../../pic32c/lib\libg_nano.a(lib_a-reent.o)
 .text._reclaim_reent
                0x00000000       0xcc c:/program files/microchip/xc32/v2.40/bin/bin/../../lib/gcc/pic32c/6.2.1/../../../../pic32c/lib\libg_nano.a(lib_a-reent.o)
 .text          0x00000000        0x0 c:/program files/microchip/xc32/v2.40/bin/bin/../../lib/gcc/pic32c/6.2.1/../../../../pic32c/lib\libpic32c.a(_close.o)
 .data          0x00000000        0x0 c:/program files/microchip/xc32/v2.40/bin/bin/../../lib/gcc/pic32c/6.2.1/../../../../pic32c/lib\libpic32c.a(_close.o)
 .bss           0x00000000        0x0 c:/program files/microchip/xc32/v2.40/bin/bin/../../lib/gcc/pic32c/6.2.1/../../../../pic32c/lib\libpic32c.a(_close.o)
 .text          0x00000000        0x0 c:/program files/microchip/xc32/v2.40/bin/bin/../../lib/gcc/pic32c/6.2.1/../../../../pic32c/lib\libpic32c.a(_fstat.o)
 .data          0x00000000        0x0 c:/program files/microchip/xc32/v2.40/bin/bin/../../lib/gcc/pic32c/6.2.1/../../../../pic32c/lib\libpic32c.a(_fstat.o)
 .bss           0x00000000        0x0 c:/program files/microchip/xc32/v2.40/bin/bin/../../lib/gcc/pic32c/6.2.1/../../../../pic32c/lib\libpic32c.a(_fstat.o)
 .text          0x00000000        0x0 c:/program files/microchip/xc32/v2.40/bin/bin/../../lib/gcc/pic32c/6.2.1/../../../../pic32c/lib\libpic32c.a(_isatty.o)
 .data          0x00000000        0x0 c:/program files/microchip/xc32/v2.40/bin/bin/../../lib/gcc/pic32c/6.2.1/../../../../pic32c/lib\libpic32c.a(_isatty.o)
 .bss           0x00000000        0x0 c:/program files/microchip/xc32/v2.40/bin/bin/../../lib/gcc/pic32c/6.2.1/../../../../pic32c/lib\libpic32c.a(_isatty.o)
 .text          0x00000000        0x0 c:/program files/microchip/xc32/v2.40/bin/bin/../../lib/gcc/pic32c/6.2.1/../../../../pic32c/lib\libpic32c.a(_lseek.o)
 .data          0x00000000        0x0 c:/program files/microchip/xc32/v2.40/bin/bin/../../lib/gcc/pic32c/6.2.1/../../../../pic32c/lib\libpic32c.a(_lseek.o)
 .bss           0x00000000        0x0 c:/program files/microchip/xc32/v2.40/bin/bin/../../lib/gcc/pic32c/6.2.1/../../../../pic32c/lib\libpic32c.a(_lseek.o)
 .text          0x00000000        0x0 c:/program files/microchip/xc32/v2.40/bin/bin/../../lib/gcc/pic32c/6.2.1/../../../../pic32c/lib\libpic32c.a(_read.o)
 .data          0x00000000        0x0 c:/program files/microchip/xc32/v2.40/bin/bin/../../lib/gcc/pic32c/6.2.1/../../../../pic32c/lib\libpic32c.a(_read.o)
 .bss           0x00000000        0x0 c:/program files/microchip/xc32/v2.40/bin/bin/../../lib/gcc/pic32c/6.2.1/../../../../pic32c/lib\libpic32c.a(_read.o)
 .text          0x00000000        0x0 c:/program files/microchip/xc32/v2.40/bin/bin/../../lib/gcc/pic32c/6.2.1/../../../../pic32c/lib\libpic32c.a(sbrk.o)
 .data          0x00000000        0x0 c:/program files/microchip/xc32/v2.40/bin/bin/../../lib/gcc/pic32c/6.2.1/../../../../pic32c/lib\libpic32c.a(sbrk.o)
 .text          0x00000000        0x0 c:/program files/microchip/xc32/v2.40/bin/bin/../../lib/gcc/pic32c/6.2.1/../../../../pic32c/lib\libpic32c.a(_write.o)
 .data          0x00000000        0x0 c:/program files/microchip/xc32/v2.40/bin/bin/../../lib/gcc/pic32c/6.2.1/../../../../pic32c/lib\libpic32c.a(_write.o)
 .bss           0x00000000        0x0 c:/program files/microchip/xc32/v2.40/bin/bin/../../lib/gcc/pic32c/6.2.1/../../../../pic32c/lib\libpic32c.a(_write.o)
 .text          0x00000000        0x0 c:/program files/microchip/xc32/v2.40/bin/bin/../../lib/gcc/pic32c/6.2.1/../../../../pic32c/lib\libpic32c.a(close.o)
 .data          0x00000000        0x0 c:/program files/microchip/xc32/v2.40/bin/bin/../../lib/gcc/pic32c/6.2.1/../../../../pic32c/lib\libpic32c.a(close.o)
 .bss           0x00000000        0x0 c:/program files/microchip/xc32/v2.40/bin/bin/../../lib/gcc/pic32c/6.2.1/../../../../pic32c/lib\libpic32c.a(close.o)
 .gnu.warning.closestub
                0x00000000        0x0 c:/program files/microchip/xc32/v2.40/bin/bin/../../lib/gcc/pic32c/6.2.1/../../../../pic32c/lib\libpic32c.a(close.o)
 .text          0x00000000        0x0 c:/program files/microchip/xc32/v2.40/bin/bin/../../lib/gcc/pic32c/6.2.1/../../../../pic32c/lib\libpic32c.a(fstat.o)
 .data          0x00000000        0x0 c:/program files/microchip/xc32/v2.40/bin/bin/../../lib/gcc/pic32c/6.2.1/../../../../pic32c/lib\libpic32c.a(fstat.o)
 .bss           0x00000000        0x0 c:/program files/microchip/xc32/v2.40/bin/bin/../../lib/gcc/pic32c/6.2.1/../../../../pic32c/lib\libpic32c.a(fstat.o)
 .text          0x00000000        0x0 c:/program files/microchip/xc32/v2.40/bin/bin/../../lib/gcc/pic32c/6.2.1/../../../../pic32c/lib\libpic32c.a(isatty.o)
 .data          0x00000000        0x0 c:/program files/microchip/xc32/v2.40/bin/bin/../../lib/gcc/pic32c/6.2.1/../../../../pic32c/lib\libpic32c.a(isatty.o)
 .bss           0x00000000        0x0 c:/program files/microchip/xc32/v2.40/bin/bin/../../lib/gcc/pic32c/6.2.1/../../../../pic32c/lib\libpic32c.a(isatty.o)
 .text          0x00000000        0x0 c:/program files/microchip/xc32/v2.40/bin/bin/../../lib/gcc/pic32c/6.2.1/../../../../pic32c/lib\libpic32c.a(lseek.o)
 .data          0x00000000        0x0 c:/program files/microchip/xc32/v2.40/bin/bin/../../lib/gcc/pic32c/6.2.1/../../../../pic32c/lib\libpic32c.a(lseek.o)
 .bss           0x00000000        0x0 c:/program files/microchip/xc32/v2.40/bin/bin/../../lib/gcc/pic32c/6.2.1/../../../../pic32c/lib\libpic32c.a(lseek.o)
 .text          0x00000000        0x0 c:/program files/microchip/xc32/v2.40/bin/bin/../../lib/gcc/pic32c/6.2.1/crtend.o
 .data          0x00000000        0x0 c:/program files/microchip/xc32/v2.40/bin/bin/../../lib/gcc/pic32c/6.2.1/crtend.o
 .bss           0x00000000        0x0 c:/program files/microchip/xc32/v2.40/bin/bin/../../lib/gcc/pic32c/6.2.1/crtend.o
 .eh_frame      0x00000000        0x4 c:/program files/microchip/xc32/v2.40/bin/bin/../../lib/gcc/pic32c/6.2.1/crtend.o
 .comment       0x00000000       0x3d c:/program files/microchip/xc32/v2.40/bin/bin/../../lib/gcc/pic32c/6.2.1/crtend.o
 .ARM.attributes
                0x00000000       0x2c c:/program files/microchip/xc32/v2.40/bin/bin/../../lib/gcc/pic32c/6.2.1/crtend.o
 .text          0x00000000        0x0 c:/program files/microchip/xc32/v2.40/bin/bin/../../lib/gcc/pic32c/6.2.1/crtn.o
 .data          0x00000000        0x0 c:/program files/microchip/xc32/v2.40/bin/bin/../../lib/gcc/pic32c/6.2.1/crtn.o
 .bss           0x00000000        0x0 c:/program files/microchip/xc32/v2.40/bin/bin/../../lib/gcc/pic32c/6.2.1/crtn.o

Memory Configuration

Name             Origin             Length             Attributes
rom              0x00000000         0x00040000         xrl
ram              0x20000000         0x00008000         xw !r
config_00804000  0x00804000         0x00000004
config_00804004  0x00804004         0x00000004
*default*        0x00000000         0xffffffff

Linker script and memory map

LOAD c:/program files/microchip/xc32/v2.40/bin/bin/../../lib/gcc/pic32c/6.2.1/crti.o
LOAD c:/program files/microchip/xc32/v2.40/bin/bin/../../lib/gcc/pic32c/6.2.1/crtbegin.o
LOAD build/sam_c21n_xpro/debug/_ext/1360937237/appiot.o
LOAD build/sam_c21n_xpro/debug/_ext/1360937237/moden.o
LOAD build/sam_c21n_xpro/debug/_ext/1360937237/canapp.o
LOAD build/sam_c21n_xpro/debug/_ext/1360937237/appuart.o
LOAD build/sam_c21n_xpro/debug/_ext/1360937237/appemueeprom.o
LOAD build/sam_c21n_xpro/debug/_ext/1360937237/apptimer.o
LOAD build/sam_c21n_xpro/debug/_ext/1936826263/drv_at24.o
LOAD build/sam_c21n_xpro/debug/_ext/513394604/drv_spi.o
LOAD build/sam_c21n_xpro/debug/_ext/1274584173/drv_usart.o
LOAD build/sam_c21n_xpro/debug/_ext/1019481632/emulated_eeprom.o
LOAD build/sam_c21n_xpro/debug/_ext/1617700295/plib_adc0.o
LOAD build/sam_c21n_xpro/debug/_ext/1617702135/plib_can0.o
LOAD build/sam_c21n_xpro/debug/_ext/166077579/plib_clock.o
LOAD build/sam_c21n_xpro/debug/_ext/1617704294/plib_eic.o
LOAD build/sam_c21n_xpro/debug/_ext/163928093/plib_evsys.o
LOAD build/sam_c21n_xpro/debug/_ext/1390493541/plib_nvic.o
LOAD build/sam_c21n_xpro/debug/_ext/770299191/plib_nvmctrl.o
LOAD build/sam_c21n_xpro/debug/_ext/1390440390/plib_port.o
LOAD build/sam_c21n_xpro/debug/_ext/1451668420/plib_sercom2_i2c_master.o
LOAD build/sam_c21n_xpro/debug/_ext/1942903062/plib_sercom0_spi_master.o
LOAD build/sam_c21n_xpro/debug/_ext/1993392304/plib_sercom1_usart.o
LOAD build/sam_c21n_xpro/debug/_ext/1004774289/plib_systick.o
LOAD build/sam_c21n_xpro/debug/_ext/1617721454/plib_wdt.o
LOAD build/sam_c21n_xpro/debug/_ext/730014449/xc32_monitor.o
LOAD build/sam_c21n_xpro/debug/_ext/855761890/sys_int.o
LOAD build/sam_c21n_xpro/debug/_ext/1758384875/initialization.o
LOAD build/sam_c21n_xpro/debug/_ext/1758384875/interrupts.o
LOAD build/sam_c21n_xpro/debug/_ext/1758384875/exceptions.o
LOAD build/sam_c21n_xpro/debug/_ext/1758384875/startup_xc32.o
LOAD build/sam_c21n_xpro/debug/_ext/1758384875/libc_syscalls.o
LOAD build/sam_c21n_xpro/debug/_ext/1758384875/tasks.o
LOAD build/sam_c21n_xpro/debug/_ext/1360937237/main.o
LOAD build/sam_c21n_xpro/debug/_ext/1360937237/app.o
LOAD build/sam_c21n_xpro/debug/_ext/1205691902/sys_debug.o
LOAD build/sam_c21n_xpro/debug/_ext/1639364742/sys_console.o
LOAD build/sam_c21n_xpro/debug/_ext/1639364742/sys_console_uart.o
LOAD build/sam_c21n_xpro/debug/_ext/1993392304/plib_sercom3_usart.o
                0x00000001                __MPLAB_BUILD = 0x1
                0x00040000                __rom_end = (ORIGIN (rom) + LENGTH (rom))
                0x20008000                __ram_end = (ORIGIN (ram) + LENGTH (ram))

.config_00804000
                0x00804000        0x4
 *(.config_00804000)
 .config_00804000
                0x00804000        0x4 build/sam_c21n_xpro/debug/_ext/1758384875/initialization.o

.config_00804004
                0x00804004        0x4
 *(.config_00804004)
 .config_00804004
                0x00804004        0x4 build/sam_c21n_xpro/debug/_ext/1758384875/initialization.o

.vectors        0x00000000       0xbc
                0x00000000                . = ALIGN (0x4)
                0x00000000                _sfixed = .
 *(.vectors .vectors.* .vectors_default .vectors_default.*)
 .vectors       0x00000000       0xbc build/sam_c21n_xpro/debug/_ext/1758384875/interrupts.o
                0x00000000                exception_table
 *(.isr_vector)
 *(.reset*)
 *(.after_vectors)

.text           0x000000bc       0x20
                0x000000bc                . = ALIGN (0x4)
 *(.glue_7t)
 .glue_7t       0x000000bc        0x0 linker stubs
 *(.glue_7)
 .glue_7        0x000000bc        0x0 linker stubs
 *(.gnu.linkonce.r.*)
 *(.ARM.extab* .gnu.linkonce.armextab.*)
                0x000000bc                . = ALIGN (0x4)
 *(.init)
 .init          0x000000bc        0x4 c:/program files/microchip/xc32/v2.40/bin/bin/../../lib/gcc/pic32c/6.2.1/crti.o
                0x000000bc                _init
 .init          0x000000c0        0x8 c:/program files/microchip/xc32/v2.40/bin/bin/../../lib/gcc/pic32c/6.2.1/crtn.o
                0x000000c8                . = ALIGN (0x4)
                0x000000c8                __preinit_array_start = .
 *(.preinit_array)
                0x000000c8                __preinit_array_end = .
                0x000000c8                . = ALIGN (0x4)
                0x000000c8                __init_array_start = .
 *(SORT(.init_array.*))
 *(.init_array)
 .init_array    0x000000c8        0x4 c:/program files/microchip/xc32/v2.40/bin/bin/../../lib/gcc/pic32c/6.2.1/crtbegin.o
                0x000000cc                __init_array_end = .
                0x000000cc                . = ALIGN (0x4)
 *crtbegin.o(.ctors)
 *(EXCLUDE_FILE(*crtend.o) .ctors)
 *(SORT(.ctors.*))
 *crtend.o(.ctors)
                0x000000cc                . = ALIGN (0x4)
 *(.fini)
 .fini          0x000000cc        0x4 c:/program files/microchip/xc32/v2.40/bin/bin/../../lib/gcc/pic32c/6.2.1/crti.o
                0x000000cc                _fini
 .fini          0x000000d0        0x8 c:/program files/microchip/xc32/v2.40/bin/bin/../../lib/gcc/pic32c/6.2.1/crtn.o
                0x000000d8                . = ALIGN (0x4)
                0x000000d8                __fini_array_start = .
 *(.fini_array)
 .fini_array    0x000000d8        0x4 c:/program files/microchip/xc32/v2.40/bin/bin/../../lib/gcc/pic32c/6.2.1/crtbegin.o
 *(SORT(.fini_array.*))
                0x000000dc                __fini_array_end = .
 *crtbegin.o(.dtors)
 *(EXCLUDE_FILE(*crtend.o) .dtors)
 *(SORT(.dtors.*))
 *crtend.o(.dtors)
                0x000000dc                . = ALIGN (0x4)
                0x000000dc                _efixed = .
                [!provide]                PROVIDE (__exidx_start, .)

.ARM.exidx      0x000000dc        0x8
 *(.ARM.exidx* .gnu.linkonce.armexidx.*)
 .ARM.exidx     0x000000dc        0x8 c:/program files/microchip/xc32/v2.40/bin/bin/../../lib/gcc/pic32c/6.2.1\libgcc.a(_udivmoddi4.o)
                [!provide]                PROVIDE (__exidx_end, .)
                0x000000e4                . = ALIGN (0x4)
                0x000000e4                _etext = .

.bss            0x20000000     0x168c
                0x20000000                . = ALIGN (0x4)
                0x20000000                __bss_start__ = .
                0x20000000                _sbss = .
                0x20000000                _szero = .
 *(COMMON)
 COMMON         0x20000000       0x34 build/sam_c21n_xpro/debug/_ext/1360937237/appiot.o
                0x20000000                mqtttime
                0x20000004                _iotdata
                0x20000008                mcahineData
                0x2000000c                _iotram
                0x20000024                _iottimer
 COMMON         0x20000034       0x18 build/sam_c21n_xpro/debug/_ext/1360937237/moden.o
                0x20000034                _moden
                0x20000038                _moden_cmd_data
                0x20000044                _moden_command
                0x20000048                commandtimeouttimer
 *fill*         0x2000004c       0x14 
 COMMON         0x20000060      0x3ec build/sam_c21n_xpro/debug/_ext/1360937237/canapp.o
                0x20000060                rx_message
                0x20000068                appCAN
                0x20000080                Can0MessageRAM
                0x20000264                message
                0x2000026c                CAN_ECU_Data_1
                0x200002ac                ecu_init
                0x200002bc                rx0_buf
                0x20000384                _canrx0buffer
 COMMON         0x2000044c     0x1207 build/sam_c21n_xpro/debug/_ext/1360937237/appuart.o
                0x2000044c                mqtttxbufindex
                0x20000450                rxBuffer
                0x20000550                txBuffer
                0x20000950                platformrxbuffer
                0x20000a50                _atcomd
 *fill*         0x20001653        0x1 
 COMMON         0x20001654       0x15 build/sam_c21n_xpro/debug/_ext/1360937237/apptimer.o
                0x20001654                timer100ms
                0x20001658                timer10ms
                0x2000165c                timer1000ms
                0x20001660                timer1ms
                0x20001664                timermqttupload
                0x20001668                _timer
 *fill*         0x20001669        0x3 
 COMMON         0x2000166c       0x18 build/sam_c21n_xpro/debug/_ext/1758384875/initialization.o
                0x2000166c                sysObj
 COMMON         0x20001684        0x1 build/sam_c21n_xpro/debug/_ext/1360937237/app.o
                0x20001684                appData
 COMMON         0x20001685        0x1 build/sam_c21n_xpro/debug/_ext/1205691902/sys_debug.o
                0x20001685                gblErrLvl
 *fill*         0x20001686        0x2 
 COMMON         0x20001688        0x4 c:/program files/microchip/xc32/v2.40/bin/bin/../../lib/gcc/pic32c/6.2.1/../../../../pic32c/lib\libg_nano.a(lib_a-reent.o)
                0x20001688                errno
                0x2000168c                . = ALIGN (0x4)
                0x2000168c                __bss_end__ = .
                0x2000168c                _ebss = .
                0x2000168c                _ezero = .
                0x2000168c                . = ALIGN (0x4)
                0x2000168c                _end = .
                0x20007fff                _ram_end_ = ((ORIGIN (ram) + LENGTH (ram)) - 0x1)
                0x00000001                __ICD2RAM = 0x1
                0x00000001                __MPLAB_DEBUG = 0x1
                0x00000001                __DEBUG = 0x1
                0x00000200                _min_heap_size = 0x200
START GROUP
LOAD c:/program files/microchip/xc32/v2.40/bin/bin/../../lib/gcc/pic32c/6.2.1/../../../../pic32c/lib\libpic32c.a
LOAD c:/program files/microchip/xc32/v2.40/bin/bin/../../lib/gcc/pic32c/6.2.1\libgcc.a
LOAD c:/program files/microchip/xc32/v2.40/bin/bin/../../lib/gcc/pic32c/6.2.1/../../../../pic32c/lib\libg_nano.a
LOAD c:/program files/microchip/xc32/v2.40/bin/bin/../../lib/gcc/pic32c/6.2.1/../../../../pic32c/lib\libm_nano.a
LOAD c:/program files/microchip/xc32/v2.40/bin/bin/../../lib/gcc/pic32c/6.2.1/../../../../pic32c/lib\libc_nano.a
END GROUP
LOAD c:/program files/microchip/xc32/v2.40/bin/bin/../../lib/gcc/pic32c/6.2.1/crtend.o
LOAD c:/program files/microchip/xc32/v2.40/bin/bin/../../lib/gcc/pic32c/6.2.1/crtn.o
OUTPUT(dist/sam_c21n_xpro/debug/sam_c21n_xpro.X.debug.elf elf32-littlearm)
LOAD stack
LOAD data_init

.ARM.attributes
                0x00000000       0x28
 .ARM.attributes
                0x00000000       0x1e c:/program files/microchip/xc32/v2.40/bin/bin/../../lib/gcc/pic32c/6.2.1/crti.o
 .ARM.attributes
                0x0000001e       0x2c c:/program files/microchip/xc32/v2.40/bin/bin/../../lib/gcc/pic32c/6.2.1/crtbegin.o
 .ARM.attributes
                0x0000004a       0x32 build/sam_c21n_xpro/debug/_ext/1360937237/appiot.o
 .ARM.attributes
                0x0000007c       0x32 build/sam_c21n_xpro/debug/_ext/1360937237/moden.o
 .ARM.attributes
                0x000000ae       0x32 build/sam_c21n_xpro/debug/_ext/1360937237/canapp.o
 .ARM.attributes
                0x000000e0       0x32 build/sam_c21n_xpro/debug/_ext/1360937237/appuart.o
 .ARM.attributes
                0x00000112       0x32 build/sam_c21n_xpro/debug/_ext/1360937237/appemueeprom.o
 .ARM.attributes
                0x00000144       0x32 build/sam_c21n_xpro/debug/_ext/1360937237/apptimer.o
 .ARM.attributes
                0x00000176       0x32 build/sam_c21n_xpro/debug/_ext/1936826263/drv_at24.o
 .ARM.attributes
                0x000001a8       0x32 build/sam_c21n_xpro/debug/_ext/513394604/drv_spi.o
 .ARM.attributes
                0x000001da       0x32 build/sam_c21n_xpro/debug/_ext/1274584173/drv_usart.o
 .ARM.attributes
                0x0000020c       0x32 build/sam_c21n_xpro/debug/_ext/1019481632/emulated_eeprom.o
 .ARM.attributes
                0x0000023e       0x32 build/sam_c21n_xpro/debug/_ext/1617700295/plib_adc0.o
 .ARM.attributes
                0x00000270       0x32 build/sam_c21n_xpro/debug/_ext/1617702135/plib_can0.o
 .ARM.attributes
                0x000002a2       0x32 build/sam_c21n_xpro/debug/_ext/166077579/plib_clock.o
 .ARM.attributes
                0x000002d4       0x32 build/sam_c21n_xpro/debug/_ext/1617704294/plib_eic.o
 .ARM.attributes
                0x00000306       0x32 build/sam_c21n_xpro/debug/_ext/163928093/plib_evsys.o
 .ARM.attributes
                0x00000338       0x32 build/sam_c21n_xpro/debug/_ext/1390493541/plib_nvic.o
 .ARM.attributes
                0x0000036a       0x32 build/sam_c21n_xpro/debug/_ext/770299191/plib_nvmctrl.o
 .ARM.attributes
                0x0000039c       0x32 build/sam_c21n_xpro/debug/_ext/1390440390/plib_port.o
 .ARM.attributes
                0x000003ce       0x32 build/sam_c21n_xpro/debug/_ext/1451668420/plib_sercom2_i2c_master.o
 .ARM.attributes
                0x00000400       0x32 build/sam_c21n_xpro/debug/_ext/1942903062/plib_sercom0_spi_master.o
 .ARM.attributes
                0x00000432       0x32 build/sam_c21n_xpro/debug/_ext/1993392304/plib_sercom1_usart.o
 .ARM.attributes
                0x00000464       0x32 build/sam_c21n_xpro/debug/_ext/1004774289/plib_systick.o
 .ARM.attributes
                0x00000496       0x32 build/sam_c21n_xpro/debug/_ext/1617721454/plib_wdt.o
 .ARM.attributes
                0x000004c8       0x32 build/sam_c21n_xpro/debug/_ext/730014449/xc32_monitor.o
 .ARM.attributes
                0x000004fa       0x32 build/sam_c21n_xpro/debug/_ext/855761890/sys_int.o
 .ARM.attributes
                0x0000052c       0x32 build/sam_c21n_xpro/debug/_ext/1758384875/initialization.o
 .ARM.attributes
                0x0000055e       0x32 build/sam_c21n_xpro/debug/_ext/1758384875/interrupts.o
 .ARM.attributes
                0x00000590       0x32 build/sam_c21n_xpro/debug/_ext/1758384875/exceptions.o
 .ARM.attributes
                0x000005c2       0x32 build/sam_c21n_xpro/debug/_ext/1758384875/startup_xc32.o
 .ARM.attributes
                0x000005f4       0x32 build/sam_c21n_xpro/debug/_ext/1360937237/main.o
 .ARM.attributes
                0x00000626       0x32 build/sam_c21n_xpro/debug/_ext/1360937237/app.o
 .ARM.attributes
                0x00000658       0x32 build/sam_c21n_xpro/debug/_ext/1205691902/sys_debug.o
 .ARM.attributes
                0x0000068a       0x32 build/sam_c21n_xpro/debug/_ext/1639364742/sys_console.o
 .ARM.attributes
                0x000006bc       0x32 build/sam_c21n_xpro/debug/_ext/1639364742/sys_console_uart.o
 .ARM.attributes
                0x000006ee       0x32 build/sam_c21n_xpro/debug/_ext/1993392304/plib_sercom3_usart.o
 .ARM.attributes
                0x00000720       0x2c c:/program files/microchip/xc32/v2.40/bin/bin/../../lib/gcc/pic32c/6.2.1/../../../../pic32c/lib\libpic32c.a(data_init.o)
 .ARM.attributes
                0x0000074c       0x1e c:/program files/microchip/xc32/v2.40/bin/bin/../../lib/gcc/pic32c/6.2.1\libgcc.a(_udivsi3.o)
 .ARM.attributes
                0x0000076a       0x1e c:/program files/microchip/xc32/v2.40/bin/bin/../../lib/gcc/pic32c/6.2.1\libgcc.a(_dvmd_tls.o)
 .ARM.attributes
                0x00000788       0x1e c:/program files/microchip/xc32/v2.40/bin/bin/../../lib/gcc/pic32c/6.2.1\libgcc.a(_aeabi_uldivmod.o)
 .ARM.attributes
                0x000007a6       0x2c c:/program files/microchip/xc32/v2.40/bin/bin/../../lib/gcc/pic32c/6.2.1\libgcc.a(_muldi3.o)
 .ARM.attributes
                0x000007d2       0x2c c:/program files/microchip/xc32/v2.40/bin/bin/../../lib/gcc/pic32c/6.2.1\libgcc.a(_udivmoddi4.o)
 .ARM.attributes
                0x000007fe       0x2c c:/program files/microchip/xc32/v2.40/bin/bin/../../lib/gcc/pic32c/6.2.1\libgcc.a(divsf3.o)
 .ARM.attributes
                0x0000082a       0x2c c:/program files/microchip/xc32/v2.40/bin/bin/../../lib/gcc/pic32c/6.2.1\libgcc.a(floatunsisf.o)
 .ARM.attributes
                0x00000856       0x1e c:/program files/microchip/xc32/v2.40/bin/bin/../../lib/gcc/pic32c/6.2.1\libgcc.a(_thumb1_case_uqi.o)
 .ARM.attributes
                0x00000874       0x1e c:/program files/microchip/xc32/v2.40/bin/bin/../../lib/gcc/pic32c/6.2.1\libgcc.a(_lshrdi3.o)
 .ARM.attributes
                0x00000892       0x1e c:/program files/microchip/xc32/v2.40/bin/bin/../../lib/gcc/pic32c/6.2.1\libgcc.a(_ashldi3.o)
 .ARM.attributes
                0x000008b0       0x1e c:/program files/microchip/xc32/v2.40/bin/bin/../../lib/gcc/pic32c/6.2.1\libgcc.a(_clzsi2.o)
 .ARM.attributes
                0x000008ce       0x1e c:/program files/microchip/xc32/v2.40/bin/bin/../../lib/gcc/pic32c/6.2.1\libgcc.a(_clzdi2.o)
 .ARM.attributes
                0x000008ec       0x2c c:/program files/microchip/xc32/v2.40/bin/bin/../../lib/gcc/pic32c/6.2.1/../../../../pic32c/lib\libg_nano.a(lib_a-init.o)
 .ARM.attributes
                0x00000918       0x2c c:/program files/microchip/xc32/v2.40/bin/bin/../../lib/gcc/pic32c/6.2.1/../../../../pic32c/lib\libg_nano.a(lib_a-memcmp.o)
 .ARM.attributes
                0x00000944       0x2c c:/program files/microchip/xc32/v2.40/bin/bin/../../lib/gcc/pic32c/6.2.1/../../../../pic32c/lib\libg_nano.a(lib_a-memcpy-stub.o)
 .ARM.attributes
                0x00000970       0x2c c:/program files/microchip/xc32/v2.40/bin/bin/../../lib/gcc/pic32c/6.2.1/../../../../pic32c/lib\libg_nano.a(lib_a-memset.o)
 .ARM.attributes
                0x0000099c       0x2c c:/program files/microchip/xc32/v2.40/bin/bin/../../lib/gcc/pic32c/6.2.1/../../../../pic32c/lib\libg_nano.a(_lib_a-sprintf.cdnopuxX.o)
 .ARM.attributes
                0x000009c8       0x1c c:/program files/microchip/xc32/v2.40/bin/bin/../../lib/gcc/pic32c/6.2.1/../../../../pic32c/lib\libg_nano.a(lib_a-strlen.o)
 .ARM.attributes
                0x000009e4       0x2c c:/program files/microchip/xc32/v2.40/bin/bin/../../lib/gcc/pic32c/6.2.1/../../../../pic32c/lib\libg_nano.a(_lib_a-nano-vfprintf.cdnopuxX.o)
 .ARM.attributes
                0x00000a10       0x2c c:/program files/microchip/xc32/v2.40/bin/bin/../../lib/gcc/pic32c/6.2.1/../../../../pic32c/lib\libg_nano.a(lib_a-nano-vfprintf_i.o)
 .ARM.attributes
                0x00000a3c       0x2c c:/program files/microchip/xc32/v2.40/bin/bin/../../lib/gcc/pic32c/6.2.1/../../../../pic32c/lib\libg_nano.a(lib_a-__ssfputs.o)
 .ARM.attributes
                0x00000a68       0x2c c:/program files/microchip/xc32/v2.40/bin/bin/../../lib/gcc/pic32c/6.2.1/../../../../pic32c/lib\libg_nano.a(lib_a-wbuf.o)
 .ARM.attributes
                0x00000a94       0x2c c:/program files/microchip/xc32/v2.40/bin/bin/../../lib/gcc/pic32c/6.2.1/../../../../pic32c/lib\libg_nano.a(lib_a-wsetup.o)
 .ARM.attributes
                0x00000ac0       0x2c c:/program files/microchip/xc32/v2.40/bin/bin/../../lib/gcc/pic32c/6.2.1/../../../../pic32c/lib\libg_nano.a(lib_a-fflush.o)
 .ARM.attributes
                0x00000aec       0x2c c:/program files/microchip/xc32/v2.40/bin/bin/../../lib/gcc/pic32c/6.2.1/../../../../pic32c/lib\libg_nano.a(lib_a-findfp.o)
 .ARM.attributes
                0x00000b18       0x2c c:/program files/microchip/xc32/v2.40/bin/bin/../../lib/gcc/pic32c/6.2.1/../../../../pic32c/lib\libg_nano.a(lib_a-fputwc.o)
 .ARM.attributes
                0x00000b44       0x2c c:/program files/microchip/xc32/v2.40/bin/bin/../../lib/gcc/pic32c/6.2.1/../../../../pic32c/lib\libg_nano.a(lib_a-fwalk.o)
 .ARM.attributes
                0x00000b70       0x2c c:/program files/microchip/xc32/v2.40/bin/bin/../../lib/gcc/pic32c/6.2.1/../../../../pic32c/lib\libg_nano.a(lib_a-impure.o)
 .ARM.attributes
                0x00000b9c       0x2c c:/program files/microchip/xc32/v2.40/bin/bin/../../lib/gcc/pic32c/6.2.1/../../../../pic32c/lib\libg_nano.a(lib_a-locale.o)
 .ARM.attributes
                0x00000bc8       0x2c c:/program files/microchip/xc32/v2.40/bin/bin/../../lib/gcc/pic32c/6.2.1/../../../../pic32c/lib\libg_nano.a(lib_a-makebuf.o)
 .ARM.attributes
                0x00000bf4       0x2c c:/program files/microchip/xc32/v2.40/bin/bin/../../lib/gcc/pic32c/6.2.1/../../../../pic32c/lib\libg_nano.a(lib_a-mbtowc_r.o)
 .ARM.attributes
                0x00000c20       0x2c c:/program files/microchip/xc32/v2.40/bin/bin/../../lib/gcc/pic32c/6.2.1/../../../../pic32c/lib\libg_nano.a(lib_a-memchr-stub.o)
 .ARM.attributes
                0x00000c4c       0x2c c:/program files/microchip/xc32/v2.40/bin/bin/../../lib/gcc/pic32c/6.2.1/../../../../pic32c/lib\libg_nano.a(lib_a-nano-freer.o)
 .ARM.attributes
                0x00000c78       0x2c c:/program files/microchip/xc32/v2.40/bin/bin/../../lib/gcc/pic32c/6.2.1/../../../../pic32c/lib\libg_nano.a(lib_a-nano-mallocr.o)
 .ARM.attributes
                0x00000ca4       0x2c c:/program files/microchip/xc32/v2.40/bin/bin/../../lib/gcc/pic32c/6.2.1/../../../../pic32c/lib\libg_nano.a(lib_a-sbrkr.o)
 .ARM.attributes
                0x00000cd0       0x2c c:/program files/microchip/xc32/v2.40/bin/bin/../../lib/gcc/pic32c/6.2.1/../../../../pic32c/lib\libg_nano.a(lib_a-stdio.o)
 .ARM.attributes
                0x00000cfc       0x2c c:/program files/microchip/xc32/v2.40/bin/bin/../../lib/gcc/pic32c/6.2.1/../../../../pic32c/lib\libg_nano.a(lib_a-wcrtomb.o)
 .ARM.attributes
                0x00000d28       0x2c c:/program files/microchip/xc32/v2.40/bin/bin/../../lib/gcc/pic32c/6.2.1/../../../../pic32c/lib\libg_nano.a(lib_a-wctomb_r.o)
 .ARM.attributes
                0x00000d54       0x2c c:/program files/microchip/xc32/v2.40/bin/bin/../../lib/gcc/pic32c/6.2.1/../../../../pic32c/lib\libg_nano.a(lib_a-writer.o)
 .ARM.attributes
                0x00000d80       0x2c c:/program files/microchip/xc32/v2.40/bin/bin/../../lib/gcc/pic32c/6.2.1/../../../../pic32c/lib\libg_nano.a(lib_a-closer.o)
 .ARM.attributes
                0x00000dac       0x2c c:/program files/microchip/xc32/v2.40/bin/bin/../../lib/gcc/pic32c/6.2.1/../../../../pic32c/lib\libg_nano.a(lib_a-ctype_.o)
 .ARM.attributes
                0x00000dd8       0x2c c:/program files/microchip/xc32/v2.40/bin/bin/../../lib/gcc/pic32c/6.2.1/../../../../pic32c/lib\libg_nano.a(lib_a-fstatr.o)
 .ARM.attributes
                0x00000e04       0x2c c:/program files/microchip/xc32/v2.40/bin/bin/../../lib/gcc/pic32c/6.2.1/../../../../pic32c/lib\libg_nano.a(lib_a-isattyr.o)
 .ARM.attributes
                0x00000e30       0x2c c:/program files/microchip/xc32/v2.40/bin/bin/../../lib/gcc/pic32c/6.2.1/../../../../pic32c/lib\libg_nano.a(lib_a-lseekr.o)
 .ARM.attributes
                0x00000e5c       0x2c c:/program files/microchip/xc32/v2.40/bin/bin/../../lib/gcc/pic32c/6.2.1/../../../../pic32c/lib\libg_nano.a(lib_a-mlock.o)
 .ARM.attributes
                0x00000e88       0x2c c:/program files/microchip/xc32/v2.40/bin/bin/../../lib/gcc/pic32c/6.2.1/../../../../pic32c/lib\libg_nano.a(lib_a-readr.o)
 .ARM.attributes
                0x00000eb4       0x2c c:/program files/microchip/xc32/v2.40/bin/bin/../../lib/gcc/pic32c/6.2.1/../../../../pic32c/lib\libg_nano.a(lib_a-reent.o)
 .ARM.attributes
                0x00000ee0       0x2c c:/program files/microchip/xc32/v2.40/bin/bin/../../lib/gcc/pic32c/6.2.1/../../../../pic32c/lib\libpic32c.a(_close.o)
 .ARM.attributes
                0x00000f0c       0x2c c:/program files/microchip/xc32/v2.40/bin/bin/../../lib/gcc/pic32c/6.2.1/../../../../pic32c/lib\libpic32c.a(_fstat.o)
 .ARM.attributes
                0x00000f38       0x2c c:/program files/microchip/xc32/v2.40/bin/bin/../../lib/gcc/pic32c/6.2.1/../../../../pic32c/lib\libpic32c.a(_isatty.o)
 .ARM.attributes
                0x00000f64       0x2c c:/program files/microchip/xc32/v2.40/bin/bin/../../lib/gcc/pic32c/6.2.1/../../../../pic32c/lib\libpic32c.a(_lseek.o)
 .ARM.attributes
                0x00000f90       0x2c c:/program files/microchip/xc32/v2.40/bin/bin/../../lib/gcc/pic32c/6.2.1/../../../../pic32c/lib\libpic32c.a(_read.o)
 .ARM.attributes
                0x00000fbc       0x2c c:/program files/microchip/xc32/v2.40/bin/bin/../../lib/gcc/pic32c/6.2.1/../../../../pic32c/lib\libpic32c.a(sbrk.o)
 .ARM.attributes
                0x00000fe8       0x2c c:/program files/microchip/xc32/v2.40/bin/bin/../../lib/gcc/pic32c/6.2.1/../../../../pic32c/lib\libpic32c.a(_write.o)
 .ARM.attributes
                0x00001014       0x2c c:/program files/microchip/xc32/v2.40/bin/bin/../../lib/gcc/pic32c/6.2.1/../../../../pic32c/lib\libpic32c.a(close.o)
 .ARM.attributes
                0x00001040       0x2c c:/program files/microchip/xc32/v2.40/bin/bin/../../lib/gcc/pic32c/6.2.1/../../../../pic32c/lib\libpic32c.a(fstat.o)
 .ARM.attributes
                0x0000106c       0x2c c:/program files/microchip/xc32/v2.40/bin/bin/../../lib/gcc/pic32c/6.2.1/../../../../pic32c/lib\libpic32c.a(isatty.o)
 .ARM.attributes
                0x00001098       0x2c c:/program files/microchip/xc32/v2.40/bin/bin/../../lib/gcc/pic32c/6.2.1/../../../../pic32c/lib\libpic32c.a(lseek.o)
 .ARM.attributes
                0x000010c4       0x1e c:/program files/microchip/xc32/v2.40/bin/bin/../../lib/gcc/pic32c/6.2.1/crtn.o

.comment        0x00000000       0x3c
 .comment       0x00000000       0x3c c:/program files/microchip/xc32/v2.40/bin/bin/../../lib/gcc/pic32c/6.2.1/crtbegin.o
                                 0x3d (size before relaxing)
 .comment       0x0000003c       0x3d build/sam_c21n_xpro/debug/_ext/1360937237/appiot.o
 .comment       0x0000003c       0x3d build/sam_c21n_xpro/debug/_ext/1360937237/moden.o
 .comment       0x0000003c       0x3d build/sam_c21n_xpro/debug/_ext/1360937237/canapp.o
 .comment       0x0000003c       0x3d build/sam_c21n_xpro/debug/_ext/1360937237/appuart.o
 .comment       0x0000003c       0x3d build/sam_c21n_xpro/debug/_ext/1360937237/appemueeprom.o
 .comment       0x0000003c       0x3d build/sam_c21n_xpro/debug/_ext/1360937237/apptimer.o
 .comment       0x0000003c       0x3d build/sam_c21n_xpro/debug/_ext/1936826263/drv_at24.o
 .comment       0x0000003c       0x3d build/sam_c21n_xpro/debug/_ext/513394604/drv_spi.o
 .comment       0x0000003c       0x3d build/sam_c21n_xpro/debug/_ext/1274584173/drv_usart.o
 .comment       0x0000003c       0x3d build/sam_c21n_xpro/debug/_ext/1019481632/emulated_eeprom.o
 .comment       0x0000003c       0x3d build/sam_c21n_xpro/debug/_ext/1617700295/plib_adc0.o
 .comment       0x0000003c       0x3d build/sam_c21n_xpro/debug/_ext/1617702135/plib_can0.o
 .comment       0x0000003c       0x3d build/sam_c21n_xpro/debug/_ext/166077579/plib_clock.o
 .comment       0x0000003c       0x3d build/sam_c21n_xpro/debug/_ext/1617704294/plib_eic.o
 .comment       0x0000003c       0x3d build/sam_c21n_xpro/debug/_ext/163928093/plib_evsys.o
 .comment       0x0000003c       0x3d build/sam_c21n_xpro/debug/_ext/1390493541/plib_nvic.o
 .comment       0x0000003c       0x3d build/sam_c21n_xpro/debug/_ext/770299191/plib_nvmctrl.o
 .comment       0x0000003c       0x3d build/sam_c21n_xpro/debug/_ext/1390440390/plib_port.o
 .comment       0x0000003c       0x3d build/sam_c21n_xpro/debug/_ext/1451668420/plib_sercom2_i2c_master.o
 .comment       0x0000003c       0x3d build/sam_c21n_xpro/debug/_ext/1942903062/plib_sercom0_spi_master.o
 .comment       0x0000003c       0x3d build/sam_c21n_xpro/debug/_ext/1993392304/plib_sercom1_usart.o
 .comment       0x0000003c       0x3d build/sam_c21n_xpro/debug/_ext/1004774289/plib_systick.o
 .comment       0x0000003c       0x3d build/sam_c21n_xpro/debug/_ext/1617721454/plib_wdt.o
 .comment       0x0000003c       0x3d build/sam_c21n_xpro/debug/_ext/730014449/xc32_monitor.o
 .comment       0x0000003c       0x3d build/sam_c21n_xpro/debug/_ext/855761890/sys_int.o
 .comment       0x0000003c       0x3d build/sam_c21n_xpro/debug/_ext/1758384875/initialization.o
 .comment       0x0000003c       0x3d build/sam_c21n_xpro/debug/_ext/1758384875/interrupts.o
 .comment       0x0000003c       0x3d build/sam_c21n_xpro/debug/_ext/1758384875/exceptions.o
 .comment       0x0000003c       0x3d build/sam_c21n_xpro/debug/_ext/1758384875/startup_xc32.o
 .comment       0x0000003c       0x3d build/sam_c21n_xpro/debug/_ext/1360937237/main.o
 .comment       0x0000003c       0x3d build/sam_c21n_xpro/debug/_ext/1360937237/app.o
 .comment       0x0000003c       0x3d build/sam_c21n_xpro/debug/_ext/1205691902/sys_debug.o
 .comment       0x0000003c       0x3d build/sam_c21n_xpro/debug/_ext/1639364742/sys_console.o
 .comment       0x0000003c       0x3d build/sam_c21n_xpro/debug/_ext/1639364742/sys_console_uart.o
 .comment       0x0000003c       0x3d build/sam_c21n_xpro/debug/_ext/1993392304/plib_sercom3_usart.o
 .comment       0x0000003c       0x3d c:/program files/microchip/xc32/v2.40/bin/bin/../../lib/gcc/pic32c/6.2.1/../../../../pic32c/lib\libpic32c.a(data_init.o)
 .comment       0x0000003c       0x3d c:/program files/microchip/xc32/v2.40/bin/bin/../../lib/gcc/pic32c/6.2.1\libgcc.a(_muldi3.o)
 .comment       0x0000003c       0x3d c:/program files/microchip/xc32/v2.40/bin/bin/../../lib/gcc/pic32c/6.2.1\libgcc.a(_udivmoddi4.o)
 .comment       0x0000003c       0x3d c:/program files/microchip/xc32/v2.40/bin/bin/../../lib/gcc/pic32c/6.2.1\libgcc.a(divsf3.o)
 .comment       0x0000003c       0x3d c:/program files/microchip/xc32/v2.40/bin/bin/../../lib/gcc/pic32c/6.2.1\libgcc.a(floatunsisf.o)
 .comment       0x0000003c       0x3d c:/program files/microchip/xc32/v2.40/bin/bin/../../lib/gcc/pic32c/6.2.1/../../../../pic32c/lib\libg_nano.a(lib_a-init.o)
 .comment       0x0000003c       0x3d c:/program files/microchip/xc32/v2.40/bin/bin/../../lib/gcc/pic32c/6.2.1/../../../../pic32c/lib\libg_nano.a(lib_a-memcmp.o)
 .comment       0x0000003c       0x3d c:/program files/microchip/xc32/v2.40/bin/bin/../../lib/gcc/pic32c/6.2.1/../../../../pic32c/lib\libg_nano.a(lib_a-memcpy-stub.o)
 .comment       0x0000003c       0x3d c:/program files/microchip/xc32/v2.40/bin/bin/../../lib/gcc/pic32c/6.2.1/../../../../pic32c/lib\libg_nano.a(lib_a-memset.o)
 .comment       0x0000003c       0x3d c:/program files/microchip/xc32/v2.40/bin/bin/../../lib/gcc/pic32c/6.2.1/../../../../pic32c/lib\libg_nano.a(_lib_a-sprintf.cdnopuxX.o)
 .comment       0x0000003c       0x3d c:/program files/microchip/xc32/v2.40/bin/bin/../../lib/gcc/pic32c/6.2.1/../../../../pic32c/lib\libg_nano.a(_lib_a-nano-vfprintf.cdnopuxX.o)
 .comment       0x0000003c       0x3d c:/program files/microchip/xc32/v2.40/bin/bin/../../lib/gcc/pic32c/6.2.1/../../../../pic32c/lib\libg_nano.a(lib_a-nano-vfprintf_i.o)
 .comment       0x0000003c       0x3d c:/program files/microchip/xc32/v2.40/bin/bin/../../lib/gcc/pic32c/6.2.1/../../../../pic32c/lib\libg_nano.a(lib_a-__ssfputs.o)
 .comment       0x0000003c       0x3d c:/program files/microchip/xc32/v2.40/bin/bin/../../lib/gcc/pic32c/6.2.1/../../../../pic32c/lib\libg_nano.a(lib_a-wbuf.o)
 .comment       0x0000003c       0x3d c:/program files/microchip/xc32/v2.40/bin/bin/../../lib/gcc/pic32c/6.2.1/../../../../pic32c/lib\libg_nano.a(lib_a-wsetup.o)
 .comment       0x0000003c       0x3d c:/program files/microchip/xc32/v2.40/bin/bin/../../lib/gcc/pic32c/6.2.1/../../../../pic32c/lib\libg_nano.a(lib_a-fflush.o)
 .comment       0x0000003c       0x3d c:/program files/microchip/xc32/v2.40/bin/bin/../../lib/gcc/pic32c/6.2.1/../../../../pic32c/lib\libg_nano.a(lib_a-findfp.o)
 .comment       0x0000003c       0x3d c:/program files/microchip/xc32/v2.40/bin/bin/../../lib/gcc/pic32c/6.2.1/../../../../pic32c/lib\libg_nano.a(lib_a-fputwc.o)
 .comment       0x0000003c       0x3d c:/program files/microchip/xc32/v2.40/bin/bin/../../lib/gcc/pic32c/6.2.1/../../../../pic32c/lib\libg_nano.a(lib_a-fwalk.o)
 .comment       0x0000003c       0x3d c:/program files/microchip/xc32/v2.40/bin/bin/../../lib/gcc/pic32c/6.2.1/../../../../pic32c/lib\libg_nano.a(lib_a-impure.o)
 .comment       0x0000003c       0x3d c:/program files/microchip/xc32/v2.40/bin/bin/../../lib/gcc/pic32c/6.2.1/../../../../pic32c/lib\libg_nano.a(lib_a-locale.o)
 .comment       0x0000003c       0x3d c:/program files/microchip/xc32/v2.40/bin/bin/../../lib/gcc/pic32c/6.2.1/../../../../pic32c/lib\libg_nano.a(lib_a-makebuf.o)
 .comment       0x0000003c       0x3d c:/program files/microchip/xc32/v2.40/bin/bin/../../lib/gcc/pic32c/6.2.1/../../../../pic32c/lib\libg_nano.a(lib_a-mbtowc_r.o)
 .comment       0x0000003c       0x3d c:/program files/microchip/xc32/v2.40/bin/bin/../../lib/gcc/pic32c/6.2.1/../../../../pic32c/lib\libg_nano.a(lib_a-memchr-stub.o)
 .comment       0x0000003c       0x3d c:/program files/microchip/xc32/v2.40/bin/bin/../../lib/gcc/pic32c/6.2.1/../../../../pic32c/lib\libg_nano.a(lib_a-nano-freer.o)
 .comment       0x0000003c       0x3d c:/program files/microchip/xc32/v2.40/bin/bin/../../lib/gcc/pic32c/6.2.1/../../../../pic32c/lib\libg_nano.a(lib_a-nano-mallocr.o)
 .comment       0x0000003c       0x3d c:/program files/microchip/xc32/v2.40/bin/bin/../../lib/gcc/pic32c/6.2.1/../../../../pic32c/lib\libg_nano.a(lib_a-sbrkr.o)
 .comment       0x0000003c       0x3d c:/program files/microchip/xc32/v2.40/bin/bin/../../lib/gcc/pic32c/6.2.1/../../../../pic32c/lib\libg_nano.a(lib_a-stdio.o)
 .comment       0x0000003c       0x3d c:/program files/microchip/xc32/v2.40/bin/bin/../../lib/gcc/pic32c/6.2.1/../../../../pic32c/lib\libg_nano.a(lib_a-wcrtomb.o)
 .comment       0x0000003c       0x3d c:/program files/microchip/xc32/v2.40/bin/bin/../../lib/gcc/pic32c/6.2.1/../../../../pic32c/lib\libg_nano.a(lib_a-wctomb_r.o)
 .comment       0x0000003c       0x3d c:/program files/microchip/xc32/v2.40/bin/bin/../../lib/gcc/pic32c/6.2.1/../../../../pic32c/lib\libg_nano.a(lib_a-writer.o)
 .comment       0x0000003c       0x3d c:/program files/microchip/xc32/v2.40/bin/bin/../../lib/gcc/pic32c/6.2.1/../../../../pic32c/lib\libg_nano.a(lib_a-closer.o)
 .comment       0x0000003c       0x3d c:/program files/microchip/xc32/v2.40/bin/bin/../../lib/gcc/pic32c/6.2.1/../../../../pic32c/lib\libg_nano.a(lib_a-ctype_.o)
 .comment       0x0000003c       0x3d c:/program files/microchip/xc32/v2.40/bin/bin/../../lib/gcc/pic32c/6.2.1/../../../../pic32c/lib\libg_nano.a(lib_a-fstatr.o)
 .comment       0x0000003c       0x3d c:/program files/microchip/xc32/v2.40/bin/bin/../../lib/gcc/pic32c/6.2.1/../../../../pic32c/lib\libg_nano.a(lib_a-isattyr.o)
 .comment       0x0000003c       0x3d c:/program files/microchip/xc32/v2.40/bin/bin/../../lib/gcc/pic32c/6.2.1/../../../../pic32c/lib\libg_nano.a(lib_a-lseekr.o)
 .comment       0x0000003c       0x3d c:/program files/microchip/xc32/v2.40/bin/bin/../../lib/gcc/pic32c/6.2.1/../../../../pic32c/lib\libg_nano.a(lib_a-mlock.o)
 .comment       0x0000003c       0x3d c:/program files/microchip/xc32/v2.40/bin/bin/../../lib/gcc/pic32c/6.2.1/../../../../pic32c/lib\libg_nano.a(lib_a-readr.o)
 .comment       0x0000003c       0x3d c:/program files/microchip/xc32/v2.40/bin/bin/../../lib/gcc/pic32c/6.2.1/../../../../pic32c/lib\libg_nano.a(lib_a-reent.o)
 .comment       0x0000003c       0x3d c:/program files/microchip/xc32/v2.40/bin/bin/../../lib/gcc/pic32c/6.2.1/../../../../pic32c/lib\libpic32c.a(_close.o)
 .comment       0x0000003c       0x3d c:/program files/microchip/xc32/v2.40/bin/bin/../../lib/gcc/pic32c/6.2.1/../../../../pic32c/lib\libpic32c.a(_fstat.o)
 .comment       0x0000003c       0x3d c:/program files/microchip/xc32/v2.40/bin/bin/../../lib/gcc/pic32c/6.2.1/../../../../pic32c/lib\libpic32c.a(_isatty.o)
 .comment       0x0000003c       0x3d c:/program files/microchip/xc32/v2.40/bin/bin/../../lib/gcc/pic32c/6.2.1/../../../../pic32c/lib\libpic32c.a(_lseek.o)
 .comment       0x0000003c       0x3d c:/program files/microchip/xc32/v2.40/bin/bin/../../lib/gcc/pic32c/6.2.1/../../../../pic32c/lib\libpic32c.a(_read.o)
 .comment       0x0000003c       0x3d c:/program files/microchip/xc32/v2.40/bin/bin/../../lib/gcc/pic32c/6.2.1/../../../../pic32c/lib\libpic32c.a(sbrk.o)
 .comment       0x0000003c       0x3d c:/program files/microchip/xc32/v2.40/bin/bin/../../lib/gcc/pic32c/6.2.1/../../../../pic32c/lib\libpic32c.a(_write.o)
 .comment       0x0000003c       0x3d c:/program files/microchip/xc32/v2.40/bin/bin/../../lib/gcc/pic32c/6.2.1/../../../../pic32c/lib\libpic32c.a(close.o)
 .comment       0x0000003c       0x3d c:/program files/microchip/xc32/v2.40/bin/bin/../../lib/gcc/pic32c/6.2.1/../../../../pic32c/lib\libpic32c.a(fstat.o)
 .comment       0x0000003c       0x3d c:/program files/microchip/xc32/v2.40/bin/bin/../../lib/gcc/pic32c/6.2.1/../../../../pic32c/lib\libpic32c.a(isatty.o)
 .comment       0x0000003c       0x3d c:/program files/microchip/xc32/v2.40/bin/bin/../../lib/gcc/pic32c/6.2.1/../../../../pic32c/lib\libpic32c.a(lseek.o)

.debug_info     0x00000000    0x5f115
 .debug_info    0x00000000     0x1a2e build/sam_c21n_xpro/debug/_ext/1360937237/appiot.o
 .debug_info    0x00001a2e     0x1a3d build/sam_c21n_xpro/debug/_ext/1360937237/moden.o
 .debug_info    0x0000346b     0x32f2 build/sam_c21n_xpro/debug/_ext/1360937237/canapp.o
 .debug_info    0x0000675d     0x1746 build/sam_c21n_xpro/debug/_ext/1360937237/appuart.o
 .debug_info    0x00007ea3     0x15c6 build/sam_c21n_xpro/debug/_ext/1360937237/appemueeprom.o
 .debug_info    0x00009469     0x1bbd build/sam_c21n_xpro/debug/_ext/1360937237/apptimer.o
 .debug_info    0x0000b026     0x1d66 build/sam_c21n_xpro/debug/_ext/1936826263/drv_at24.o
 .debug_info    0x0000cd8c     0x3d13 build/sam_c21n_xpro/debug/_ext/513394604/drv_spi.o
 .debug_info    0x00010a9f     0x2a1a build/sam_c21n_xpro/debug/_ext/1274584173/drv_usart.o
 .debug_info    0x000134b9     0x28fb build/sam_c21n_xpro/debug/_ext/1019481632/emulated_eeprom.o
 .debug_info    0x00015db4      0xc48 build/sam_c21n_xpro/debug/_ext/1617700295/plib_adc0.o
 .debug_info    0x000169fc     0x287a build/sam_c21n_xpro/debug/_ext/1617702135/plib_can0.o
 .debug_info    0x00019276      0xb00 build/sam_c21n_xpro/debug/_ext/166077579/plib_clock.o
 .debug_info    0x00019d76      0x6e7 build/sam_c21n_xpro/debug/_ext/1617704294/plib_eic.o
 .debug_info    0x0001a45d      0x354 build/sam_c21n_xpro/debug/_ext/163928093/plib_evsys.o
 .debug_info    0x0001a7b1      0xb5b build/sam_c21n_xpro/debug/_ext/1390493541/plib_nvic.o
 .debug_info    0x0001b30c     0x167d build/sam_c21n_xpro/debug/_ext/770299191/plib_nvmctrl.o
 .debug_info    0x0001c989      0xbba build/sam_c21n_xpro/debug/_ext/1390440390/plib_port.o
 .debug_info    0x0001d543     0x16f2 build/sam_c21n_xpro/debug/_ext/1451668420/plib_sercom2_i2c_master.o
 .debug_info    0x0001ec35     0x139f build/sam_c21n_xpro/debug/_ext/1942903062/plib_sercom0_spi_master.o
 .debug_info    0x0001ffd4     0x1f07 build/sam_c21n_xpro/debug/_ext/1993392304/plib_sercom1_usart.o
 .debug_info    0x00021edb      0x905 build/sam_c21n_xpro/debug/_ext/1004774289/plib_systick.o
 .debug_info    0x000227e0      0x61d build/sam_c21n_xpro/debug/_ext/1617721454/plib_wdt.o
 .debug_info    0x00022dfd      0x342 build/sam_c21n_xpro/debug/_ext/730014449/xc32_monitor.o
 .debug_info    0x0002313f      0x9c6 build/sam_c21n_xpro/debug/_ext/855761890/sys_int.o
 .debug_info    0x00023b05     0x3dcd build/sam_c21n_xpro/debug/_ext/1758384875/initialization.o
 .debug_info    0x000278d2     0x1651 build/sam_c21n_xpro/debug/_ext/1758384875/interrupts.o
 .debug_info    0x00028f23     0x101f build/sam_c21n_xpro/debug/_ext/1758384875/exceptions.o
 .debug_info    0x00029f42      0x4d8 build/sam_c21n_xpro/debug/_ext/1758384875/startup_xc32.o
 .debug_info    0x0002a41a     0x2004 build/sam_c21n_xpro/debug/_ext/1360937237/main.o
 .debug_info    0x0002c41e      0xf29 build/sam_c21n_xpro/debug/_ext/1360937237/app.o
 .debug_info    0x0002d347     0x12d7 build/sam_c21n_xpro/debug/_ext/1205691902/sys_debug.o
 .debug_info    0x0002e61e     0x1eb4 build/sam_c21n_xpro/debug/_ext/1639364742/sys_console.o
 .debug_info    0x000304d2     0x20bf build/sam_c21n_xpro/debug/_ext/1639364742/sys_console_uart.o
 .debug_info    0x00032591     0x1f07 build/sam_c21n_xpro/debug/_ext/1993392304/plib_sercom3_usart.o
 .debug_info    0x00034498      0x1f0 c:/program files/microchip/xc32/v2.40/bin/bin/../../lib/gcc/pic32c/6.2.1/../../../../pic32c/lib\libpic32c.a(data_init.o)
 .debug_info    0x00034688       0xee c:/program files/microchip/xc32/v2.40/bin/bin/../../lib/gcc/pic32c/6.2.1\libgcc.a(_udivsi3.o)
 .debug_info    0x00034776       0xee c:/program files/microchip/xc32/v2.40/bin/bin/../../lib/gcc/pic32c/6.2.1\libgcc.a(_dvmd_tls.o)
 .debug_info    0x00034864       0xee c:/program files/microchip/xc32/v2.40/bin/bin/../../lib/gcc/pic32c/6.2.1\libgcc.a(_aeabi_uldivmod.o)
 .debug_info    0x00034952     0x13d1 c:/program files/microchip/xc32/v2.40/bin/bin/../../lib/gcc/pic32c/6.2.1\libgcc.a(_muldi3.o)
 .debug_info    0x00035d23     0x132c c:/program files/microchip/xc32/v2.40/bin/bin/../../lib/gcc/pic32c/6.2.1\libgcc.a(_udivmoddi4.o)
 .debug_info    0x0003704f      0x58b c:/program files/microchip/xc32/v2.40/bin/bin/../../lib/gcc/pic32c/6.2.1\libgcc.a(divsf3.o)
 .debug_info    0x000375da      0x465 c:/program files/microchip/xc32/v2.40/bin/bin/../../lib/gcc/pic32c/6.2.1\libgcc.a(floatunsisf.o)
 .debug_info    0x00037a3f       0xee c:/program files/microchip/xc32/v2.40/bin/bin/../../lib/gcc/pic32c/6.2.1\libgcc.a(_thumb1_case_uqi.o)
 .debug_info    0x00037b2d       0xee c:/program files/microchip/xc32/v2.40/bin/bin/../../lib/gcc/pic32c/6.2.1\libgcc.a(_lshrdi3.o)
 .debug_info    0x00037c1b       0xee c:/program files/microchip/xc32/v2.40/bin/bin/../../lib/gcc/pic32c/6.2.1\libgcc.a(_ashldi3.o)
 .debug_info    0x00037d09       0xee c:/program files/microchip/xc32/v2.40/bin/bin/../../lib/gcc/pic32c/6.2.1\libgcc.a(_clzsi2.o)
 .debug_info    0x00037df7       0xee c:/program files/microchip/xc32/v2.40/bin/bin/../../lib/gcc/pic32c/6.2.1\libgcc.a(_clzdi2.o)
 .debug_info    0x00037ee5      0x359 c:/program files/microchip/xc32/v2.40/bin/bin/../../lib/gcc/pic32c/6.2.1/../../../../pic32c/lib\libg_nano.a(lib_a-init.o)
 .debug_info    0x0003823e      0xd94 c:/program files/microchip/xc32/v2.40/bin/bin/../../lib/gcc/pic32c/6.2.1/../../../../pic32c/lib\libg_nano.a(lib_a-memcmp.o)
 .debug_info    0x00038fd2      0xdb3 c:/program files/microchip/xc32/v2.40/bin/bin/../../lib/gcc/pic32c/6.2.1/../../../../pic32c/lib\libg_nano.a(lib_a-memcpy-stub.o)
 .debug_info    0x00039d85     0x14e8 c:/program files/microchip/xc32/v2.40/bin/bin/../../lib/gcc/pic32c/6.2.1/../../../../pic32c/lib\libg_nano.a(lib_a-memset.o)
 .debug_info    0x0003b26d      0xe2e c:/program files/microchip/xc32/v2.40/bin/bin/../../lib/gcc/pic32c/6.2.1/../../../../pic32c/lib\libg_nano.a(_lib_a-sprintf.cdnopuxX.o)
 .debug_info    0x0003c09b      0x117 c:/program files/microchip/xc32/v2.40/bin/bin/../../lib/gcc/pic32c/6.2.1/../../../../pic32c/lib\libg_nano.a(lib_a-strlen.o)
 .debug_info    0x0003c1b2     0x1e92 c:/program files/microchip/xc32/v2.40/bin/bin/../../lib/gcc/pic32c/6.2.1/../../../../pic32c/lib\libg_nano.a(_lib_a-nano-vfprintf.cdnopuxX.o)
 .debug_info    0x0003e044     0x1d15 c:/program files/microchip/xc32/v2.40/bin/bin/../../lib/gcc/pic32c/6.2.1/../../../../pic32c/lib\libg_nano.a(lib_a-nano-vfprintf_i.o)
 .debug_info    0x0003fd59     0x188d c:/program files/microchip/xc32/v2.40/bin/bin/../../lib/gcc/pic32c/6.2.1/../../../../pic32c/lib\libg_nano.a(lib_a-__ssfputs.o)
 .debug_info    0x000415e6     0x11b3 c:/program files/microchip/xc32/v2.40/bin/bin/../../lib/gcc/pic32c/6.2.1/../../../../pic32c/lib\libg_nano.a(lib_a-wbuf.o)
 .debug_info    0x00042799     0x112e c:/program files/microchip/xc32/v2.40/bin/bin/../../lib/gcc/pic32c/6.2.1/../../../../pic32c/lib\libg_nano.a(lib_a-wsetup.o)
 .debug_info    0x000438c7     0x1298 c:/program files/microchip/xc32/v2.40/bin/bin/../../lib/gcc/pic32c/6.2.1/../../../../pic32c/lib\libg_nano.a(lib_a-fflush.o)
 .debug_info    0x00044b5f     0x1470 c:/program files/microchip/xc32/v2.40/bin/bin/../../lib/gcc/pic32c/6.2.1/../../../../pic32c/lib\libg_nano.a(lib_a-findfp.o)
 .debug_info    0x00045fcf     0x12ea c:/program files/microchip/xc32/v2.40/bin/bin/../../lib/gcc/pic32c/6.2.1/../../../../pic32c/lib\libg_nano.a(lib_a-fputwc.o)
 .debug_info    0x000472b9     0x11a9 c:/program files/microchip/xc32/v2.40/bin/bin/../../lib/gcc/pic32c/6.2.1/../../../../pic32c/lib\libg_nano.a(lib_a-fwalk.o)
 .debug_info    0x00048462      0xd3c c:/program files/microchip/xc32/v2.40/bin/bin/../../lib/gcc/pic32c/6.2.1/../../../../pic32c/lib\libg_nano.a(lib_a-impure.o)
 .debug_info    0x0004919e     0x17cf c:/program files/microchip/xc32/v2.40/bin/bin/../../lib/gcc/pic32c/6.2.1/../../../../pic32c/lib\libg_nano.a(lib_a-locale.o)
 .debug_info    0x0004a96d     0x14e5 c:/program files/microchip/xc32/v2.40/bin/bin/../../lib/gcc/pic32c/6.2.1/../../../../pic32c/lib\libg_nano.a(lib_a-makebuf.o)
 .debug_info    0x0004be52     0x16a8 c:/program files/microchip/xc32/v2.40/bin/bin/../../lib/gcc/pic32c/6.2.1/../../../../pic32c/lib\libg_nano.a(lib_a-mbtowc_r.o)
 .debug_info    0x0004d4fa      0xdb2 c:/program files/microchip/xc32/v2.40/bin/bin/../../lib/gcc/pic32c/6.2.1/../../../../pic32c/lib\libg_nano.a(lib_a-memchr-stub.o)
 .debug_info    0x0004e2ac     0x10ed c:/program files/microchip/xc32/v2.40/bin/bin/../../lib/gcc/pic32c/6.2.1/../../../../pic32c/lib\libg_nano.a(lib_a-nano-freer.o)
 .debug_info    0x0004f399     0x119a c:/program files/microchip/xc32/v2.40/bin/bin/../../lib/gcc/pic32c/6.2.1/../../../../pic32c/lib\libg_nano.a(lib_a-nano-mallocr.o)
 .debug_info    0x00050533      0xe2c c:/program files/microchip/xc32/v2.40/bin/bin/../../lib/gcc/pic32c/6.2.1/../../../../pic32c/lib\libg_nano.a(lib_a-sbrkr.o)
 .debug_info    0x0005135f     0x135a c:/program files/microchip/xc32/v2.40/bin/bin/../../lib/gcc/pic32c/6.2.1/../../../../pic32c/lib\libg_nano.a(lib_a-stdio.o)
 .debug_info    0x000526b9     0x16a4 c:/program files/microchip/xc32/v2.40/bin/bin/../../lib/gcc/pic32c/6.2.1/../../../../pic32c/lib\libg_nano.a(lib_a-wcrtomb.o)
 .debug_info    0x00053d5d     0x166c c:/program files/microchip/xc32/v2.40/bin/bin/../../lib/gcc/pic32c/6.2.1/../../../../pic32c/lib\libg_nano.a(lib_a-wctomb_r.o)
 .debug_info    0x000553c9      0xe4b c:/program files/microchip/xc32/v2.40/bin/bin/../../lib/gcc/pic32c/6.2.1/../../../../pic32c/lib\libg_nano.a(lib_a-writer.o)
 .debug_info    0x00056214      0xdfa c:/program files/microchip/xc32/v2.40/bin/bin/../../lib/gcc/pic32c/6.2.1/../../../../pic32c/lib\libg_nano.a(lib_a-closer.o)
 .debug_info    0x0005700e     0x14b9 c:/program files/microchip/xc32/v2.40/bin/bin/../../lib/gcc/pic32c/6.2.1/../../../../pic32c/lib\libg_nano.a(lib_a-ctype_.o)
 .debug_info    0x000584c7     0x10f5 c:/program files/microchip/xc32/v2.40/bin/bin/../../lib/gcc/pic32c/6.2.1/../../../../pic32c/lib\libg_nano.a(lib_a-fstatr.o)
 .debug_info    0x000595bc      0xe07 c:/program files/microchip/xc32/v2.40/bin/bin/../../lib/gcc/pic32c/6.2.1/../../../../pic32c/lib\libg_nano.a(lib_a-isattyr.o)
 .debug_info    0x0005a3c3      0xe32 c:/program files/microchip/xc32/v2.40/bin/bin/../../lib/gcc/pic32c/6.2.1/../../../../pic32c/lib\libg_nano.a(lib_a-lseekr.o)
 .debug_info    0x0005b1f5      0xd79 c:/program files/microchip/xc32/v2.40/bin/bin/../../lib/gcc/pic32c/6.2.1/../../../../pic32c/lib\libg_nano.a(lib_a-mlock.o)
 .debug_info    0x0005bf6e      0xe49 c:/program files/microchip/xc32/v2.40/bin/bin/../../lib/gcc/pic32c/6.2.1/../../../../pic32c/lib\libg_nano.a(lib_a-readr.o)
 .debug_info    0x0005cdb7      0xf2f c:/program files/microchip/xc32/v2.40/bin/bin/../../lib/gcc/pic32c/6.2.1/../../../../pic32c/lib\libg_nano.a(lib_a-reent.o)
 .debug_info    0x0005dce6      0x1d7 c:/program files/microchip/xc32/v2.40/bin/bin/../../lib/gcc/pic32c/6.2.1/../../../../pic32c/lib\libpic32c.a(_close.o)
 .debug_info    0x0005debd      0x1d7 c:/program files/microchip/xc32/v2.40/bin/bin/../../lib/gcc/pic32c/6.2.1/../../../../pic32c/lib\libpic32c.a(_fstat.o)
 .debug_info    0x0005e094      0x1d9 c:/program files/microchip/xc32/v2.40/bin/bin/../../lib/gcc/pic32c/6.2.1/../../../../pic32c/lib\libpic32c.a(_isatty.o)
 .debug_info    0x0005e26d      0x1d7 c:/program files/microchip/xc32/v2.40/bin/bin/../../lib/gcc/pic32c/6.2.1/../../../../pic32c/lib\libpic32c.a(_lseek.o)
 .debug_info    0x0005e444      0x1d5 c:/program files/microchip/xc32/v2.40/bin/bin/../../lib/gcc/pic32c/6.2.1/../../../../pic32c/lib\libpic32c.a(_read.o)
 .debug_info    0x0005e619      0x1d3 c:/program files/microchip/xc32/v2.40/bin/bin/../../lib/gcc/pic32c/6.2.1/../../../../pic32c/lib\libpic32c.a(sbrk.o)
 .debug_info    0x0005e7ec      0x1d7 c:/program files/microchip/xc32/v2.40/bin/bin/../../lib/gcc/pic32c/6.2.1/../../../../pic32c/lib\libpic32c.a(_write.o)
 .debug_info    0x0005e9c3      0x1d4 c:/program files/microchip/xc32/v2.40/bin/bin/../../lib/gcc/pic32c/6.2.1/../../../../pic32c/lib\libpic32c.a(close.o)
 .debug_info    0x0005eb97      0x1d4 c:/program files/microchip/xc32/v2.40/bin/bin/../../lib/gcc/pic32c/6.2.1/../../../../pic32c/lib\libpic32c.a(fstat.o)
 .debug_info    0x0005ed6b      0x1d6 c:/program files/microchip/xc32/v2.40/bin/bin/../../lib/gcc/pic32c/6.2.1/../../../../pic32c/lib\libpic32c.a(isatty.o)
 .debug_info    0x0005ef41      0x1d4 c:/program files/microchip/xc32/v2.40/bin/bin/../../lib/gcc/pic32c/6.2.1/../../../../pic32c/lib\libpic32c.a(lseek.o)

.debug_abbrev   0x00000000     0xa066
 .debug_abbrev  0x00000000      0x27e build/sam_c21n_xpro/debug/_ext/1360937237/appiot.o
 .debug_abbrev  0x0000027e      0x2fa build/sam_c21n_xpro/debug/_ext/1360937237/moden.o
 .debug_abbrev  0x00000578      0x450 build/sam_c21n_xpro/debug/_ext/1360937237/canapp.o
 .debug_abbrev  0x000009c8      0x2e4 build/sam_c21n_xpro/debug/_ext/1360937237/appuart.o
 .debug_abbrev  0x00000cac      0x21e build/sam_c21n_xpro/debug/_ext/1360937237/appemueeprom.o
 .debug_abbrev  0x00000eca      0x238 build/sam_c21n_xpro/debug/_ext/1360937237/apptimer.o
 .debug_abbrev  0x00001102      0x3b0 build/sam_c21n_xpro/debug/_ext/1936826263/drv_at24.o
 .debug_abbrev  0x000014b2      0x4e7 build/sam_c21n_xpro/debug/_ext/513394604/drv_spi.o
 .debug_abbrev  0x00001999      0x506 build/sam_c21n_xpro/debug/_ext/1274584173/drv_usart.o
 .debug_abbrev  0x00001e9f      0x56a build/sam_c21n_xpro/debug/_ext/1019481632/emulated_eeprom.o
 .debug_abbrev  0x00002409      0x154 build/sam_c21n_xpro/debug/_ext/1617700295/plib_adc0.o
 .debug_abbrev  0x0000255d      0x3e5 build/sam_c21n_xpro/debug/_ext/1617702135/plib_can0.o
 .debug_abbrev  0x00002942      0x126 build/sam_c21n_xpro/debug/_ext/166077579/plib_clock.o
 .debug_abbrev  0x00002a68      0x16c build/sam_c21n_xpro/debug/_ext/1617704294/plib_eic.o
 .debug_abbrev  0x00002bd4       0x39 build/sam_c21n_xpro/debug/_ext/163928093/plib_evsys.o
 .debug_abbrev  0x00002c0d      0x1b9 build/sam_c21n_xpro/debug/_ext/1390493541/plib_nvic.o
 .debug_abbrev  0x00002dc6      0x26a build/sam_c21n_xpro/debug/_ext/770299191/plib_nvmctrl.o
 .debug_abbrev  0x00003030      0x1ae build/sam_c21n_xpro/debug/_ext/1390440390/plib_port.o
 .debug_abbrev  0x000031de      0x36e build/sam_c21n_xpro/debug/_ext/1451668420/plib_sercom2_i2c_master.o
 .debug_abbrev  0x0000354c      0x255 build/sam_c21n_xpro/debug/_ext/1942903062/plib_sercom0_spi_master.o
 .debug_abbrev  0x000037a1      0x3e5 build/sam_c21n_xpro/debug/_ext/1993392304/plib_sercom1_usart.o
 .debug_abbrev  0x00003b86      0x1e0 build/sam_c21n_xpro/debug/_ext/1004774289/plib_systick.o
 .debug_abbrev  0x00003d66       0xc5 build/sam_c21n_xpro/debug/_ext/1617721454/plib_wdt.o
 .debug_abbrev  0x00003e2b       0x89 build/sam_c21n_xpro/debug/_ext/730014449/xc32_monitor.o
 .debug_abbrev  0x00003eb4      0x1f7 build/sam_c21n_xpro/debug/_ext/855761890/sys_int.o
 .debug_abbrev  0x000040ab      0x2b6 build/sam_c21n_xpro/debug/_ext/1758384875/initialization.o
 .debug_abbrev  0x00004361      0x1be build/sam_c21n_xpro/debug/_ext/1758384875/interrupts.o
 .debug_abbrev  0x0000451f      0x1aa build/sam_c21n_xpro/debug/_ext/1758384875/exceptions.o
 .debug_abbrev  0x000046c9      0x10b build/sam_c21n_xpro/debug/_ext/1758384875/startup_xc32.o
 .debug_abbrev  0x000047d4      0x279 build/sam_c21n_xpro/debug/_ext/1360937237/main.o
 .debug_abbrev  0x00004a4d      0x1ea build/sam_c21n_xpro/debug/_ext/1360937237/app.o
 .debug_abbrev  0x00004c37      0x237 build/sam_c21n_xpro/debug/_ext/1205691902/sys_debug.o
 .debug_abbrev  0x00004e6e      0x418 build/sam_c21n_xpro/debug/_ext/1639364742/sys_console.o
 .debug_abbrev  0x00005286      0x3f9 build/sam_c21n_xpro/debug/_ext/1639364742/sys_console_uart.o
 .debug_abbrev  0x0000567f      0x3e5 build/sam_c21n_xpro/debug/_ext/1993392304/plib_sercom3_usart.o
 .debug_abbrev  0x00005a64       0x2a c:/program files/microchip/xc32/v2.40/bin/bin/../../lib/gcc/pic32c/6.2.1/../../../../pic32c/lib\libpic32c.a(data_init.o)
 .debug_abbrev  0x00005a8e       0x14 c:/program files/microchip/xc32/v2.40/bin/bin/../../lib/gcc/pic32c/6.2.1\libgcc.a(_udivsi3.o)
 .debug_abbrev  0x00005aa2       0x14 c:/program files/microchip/xc32/v2.40/bin/bin/../../lib/gcc/pic32c/6.2.1\libgcc.a(_dvmd_tls.o)
 .debug_abbrev  0x00005ab6       0x14 c:/program files/microchip/xc32/v2.40/bin/bin/../../lib/gcc/pic32c/6.2.1\libgcc.a(_aeabi_uldivmod.o)
 .debug_abbrev  0x00005aca      0x176 c:/program files/microchip/xc32/v2.40/bin/bin/../../lib/gcc/pic32c/6.2.1\libgcc.a(_muldi3.o)
 .debug_abbrev  0x00005c40      0x13b c:/program files/microchip/xc32/v2.40/bin/bin/../../lib/gcc/pic32c/6.2.1\libgcc.a(_udivmoddi4.o)
 .debug_abbrev  0x00005d7b      0x135 c:/program files/microchip/xc32/v2.40/bin/bin/../../lib/gcc/pic32c/6.2.1\libgcc.a(divsf3.o)
 .debug_abbrev  0x00005eb0      0x12d c:/program files/microchip/xc32/v2.40/bin/bin/../../lib/gcc/pic32c/6.2.1\libgcc.a(floatunsisf.o)
 .debug_abbrev  0x00005fdd       0x14 c:/program files/microchip/xc32/v2.40/bin/bin/../../lib/gcc/pic32c/6.2.1\libgcc.a(_thumb1_case_uqi.o)
 .debug_abbrev  0x00005ff1       0x14 c:/program files/microchip/xc32/v2.40/bin/bin/../../lib/gcc/pic32c/6.2.1\libgcc.a(_lshrdi3.o)
 .debug_abbrev  0x00006005       0x14 c:/program files/microchip/xc32/v2.40/bin/bin/../../lib/gcc/pic32c/6.2.1\libgcc.a(_ashldi3.o)
 .debug_abbrev  0x00006019       0x14 c:/program files/microchip/xc32/v2.40/bin/bin/../../lib/gcc/pic32c/6.2.1\libgcc.a(_clzsi2.o)
 .debug_abbrev  0x0000602d       0x14 c:/program files/microchip/xc32/v2.40/bin/bin/../../lib/gcc/pic32c/6.2.1\libgcc.a(_clzdi2.o)
 .debug_abbrev  0x00006041       0xa3 c:/program files/microchip/xc32/v2.40/bin/bin/../../lib/gcc/pic32c/6.2.1/../../../../pic32c/lib\libg_nano.a(lib_a-init.o)
 .debug_abbrev  0x000060e4      0x16d c:/program files/microchip/xc32/v2.40/bin/bin/../../lib/gcc/pic32c/6.2.1/../../../../pic32c/lib\libg_nano.a(lib_a-memcmp.o)
 .debug_abbrev  0x00006251      0x17c c:/program files/microchip/xc32/v2.40/bin/bin/../../lib/gcc/pic32c/6.2.1/../../../../pic32c/lib\libg_nano.a(lib_a-memcpy-stub.o)
 .debug_abbrev  0x000063cd      0x170 c:/program files/microchip/xc32/v2.40/bin/bin/../../lib/gcc/pic32c/6.2.1/../../../../pic32c/lib\libg_nano.a(lib_a-memset.o)
 .debug_abbrev  0x0000653d      0x1a5 c:/program files/microchip/xc32/v2.40/bin/bin/../../lib/gcc/pic32c/6.2.1/../../../../pic32c/lib\libg_nano.a(_lib_a-sprintf.cdnopuxX.o)
 .debug_abbrev  0x000066e2       0x14 c:/program files/microchip/xc32/v2.40/bin/bin/../../lib/gcc/pic32c/6.2.1/../../../../pic32c/lib\libg_nano.a(lib_a-strlen.o)
 .debug_abbrev  0x000066f6      0x30c c:/program files/microchip/xc32/v2.40/bin/bin/../../lib/gcc/pic32c/6.2.1/../../../../pic32c/lib\libg_nano.a(_lib_a-nano-vfprintf.cdnopuxX.o)
 .debug_abbrev  0x00006a02      0x25f c:/program files/microchip/xc32/v2.40/bin/bin/../../lib/gcc/pic32c/6.2.1/../../../../pic32c/lib\libg_nano.a(lib_a-nano-vfprintf_i.o)
 .debug_abbrev  0x00006c61      0x1f6 c:/program files/microchip/xc32/v2.40/bin/bin/../../lib/gcc/pic32c/6.2.1/../../../../pic32c/lib\libg_nano.a(lib_a-__ssfputs.o)
 .debug_abbrev  0x00006e57      0x208 c:/program files/microchip/xc32/v2.40/bin/bin/../../lib/gcc/pic32c/6.2.1/../../../../pic32c/lib\libg_nano.a(lib_a-wbuf.o)
 .debug_abbrev  0x0000705f      0x1ec c:/program files/microchip/xc32/v2.40/bin/bin/../../lib/gcc/pic32c/6.2.1/../../../../pic32c/lib\libg_nano.a(lib_a-wsetup.o)
 .debug_abbrev  0x0000724b      0x263 c:/program files/microchip/xc32/v2.40/bin/bin/../../lib/gcc/pic32c/6.2.1/../../../../pic32c/lib\libg_nano.a(lib_a-fflush.o)
 .debug_abbrev  0x000074ae      0x295 c:/program files/microchip/xc32/v2.40/bin/bin/../../lib/gcc/pic32c/6.2.1/../../../../pic32c/lib\libg_nano.a(lib_a-findfp.o)
 .debug_abbrev  0x00007743      0x233 c:/program files/microchip/xc32/v2.40/bin/bin/../../lib/gcc/pic32c/6.2.1/../../../../pic32c/lib\libg_nano.a(lib_a-fputwc.o)
 .debug_abbrev  0x00007976      0x1b0 c:/program files/microchip/xc32/v2.40/bin/bin/../../lib/gcc/pic32c/6.2.1/../../../../pic32c/lib\libg_nano.a(lib_a-fwalk.o)
 .debug_abbrev  0x00007b26      0x131 c:/program files/microchip/xc32/v2.40/bin/bin/../../lib/gcc/pic32c/6.2.1/../../../../pic32c/lib\libg_nano.a(lib_a-impure.o)
 .debug_abbrev  0x00007c57      0x264 c:/program files/microchip/xc32/v2.40/bin/bin/../../lib/gcc/pic32c/6.2.1/../../../../pic32c/lib\libg_nano.a(lib_a-locale.o)
 .debug_abbrev  0x00007ebb      0x268 c:/program files/microchip/xc32/v2.40/bin/bin/../../lib/gcc/pic32c/6.2.1/../../../../pic32c/lib\libg_nano.a(lib_a-makebuf.o)
 .debug_abbrev  0x00008123      0x1cd c:/program files/microchip/xc32/v2.40/bin/bin/../../lib/gcc/pic32c/6.2.1/../../../../pic32c/lib\libg_nano.a(lib_a-mbtowc_r.o)
 .debug_abbrev  0x000082f0      0x16d c:/program files/microchip/xc32/v2.40/bin/bin/../../lib/gcc/pic32c/6.2.1/../../../../pic32c/lib\libg_nano.a(lib_a-memchr-stub.o)
 .debug_abbrev  0x0000845d      0x24f c:/program files/microchip/xc32/v2.40/bin/bin/../../lib/gcc/pic32c/6.2.1/../../../../pic32c/lib\libg_nano.a(lib_a-nano-freer.o)
 .debug_abbrev  0x000086ac      0x286 c:/program files/microchip/xc32/v2.40/bin/bin/../../lib/gcc/pic32c/6.2.1/../../../../pic32c/lib\libg_nano.a(lib_a-nano-mallocr.o)
 .debug_abbrev  0x00008932      0x1a8 c:/program files/microchip/xc32/v2.40/bin/bin/../../lib/gcc/pic32c/6.2.1/../../../../pic32c/lib\libg_nano.a(lib_a-sbrkr.o)
 .debug_abbrev  0x00008ada      0x224 c:/program files/microchip/xc32/v2.40/bin/bin/../../lib/gcc/pic32c/6.2.1/../../../../pic32c/lib\libg_nano.a(lib_a-stdio.o)
 .debug_abbrev  0x00008cfe      0x1d5 c:/program files/microchip/xc32/v2.40/bin/bin/../../lib/gcc/pic32c/6.2.1/../../../../pic32c/lib\libg_nano.a(lib_a-wcrtomb.o)
 .debug_abbrev  0x00008ed3      0x1ce c:/program files/microchip/xc32/v2.40/bin/bin/../../lib/gcc/pic32c/6.2.1/../../../../pic32c/lib\libg_nano.a(lib_a-wctomb_r.o)
 .debug_abbrev  0x000090a1      0x198 c:/program files/microchip/xc32/v2.40/bin/bin/../../lib/gcc/pic32c/6.2.1/../../../../pic32c/lib\libg_nano.a(lib_a-writer.o)
 .debug_abbrev  0x00009239      0x193 c:/program files/microchip/xc32/v2.40/bin/bin/../../lib/gcc/pic32c/6.2.1/../../../../pic32c/lib\libg_nano.a(lib_a-closer.o)
 .debug_abbrev  0x000093cc      0x131 c:/program files/microchip/xc32/v2.40/bin/bin/../../lib/gcc/pic32c/6.2.1/../../../../pic32c/lib\libg_nano.a(lib_a-ctype_.o)
 .debug_abbrev  0x000094fd      0x193 c:/program files/microchip/xc32/v2.40/bin/bin/../../lib/gcc/pic32c/6.2.1/../../../../pic32c/lib\libg_nano.a(lib_a-fstatr.o)
 .debug_abbrev  0x00009690      0x193 c:/program files/microchip/xc32/v2.40/bin/bin/../../lib/gcc/pic32c/6.2.1/../../../../pic32c/lib\libg_nano.a(lib_a-isattyr.o)
 .debug_abbrev  0x00009823      0x193 c:/program files/microchip/xc32/v2.40/bin/bin/../../lib/gcc/pic32c/6.2.1/../../../../pic32c/lib\libg_nano.a(lib_a-lseekr.o)
 .debug_abbrev  0x000099b6      0x165 c:/program files/microchip/xc32/v2.40/bin/bin/../../lib/gcc/pic32c/6.2.1/../../../../pic32c/lib\libg_nano.a(lib_a-mlock.o)
 .debug_abbrev  0x00009b1b      0x193 c:/program files/microchip/xc32/v2.40/bin/bin/../../lib/gcc/pic32c/6.2.1/../../../../pic32c/lib\libg_nano.a(lib_a-readr.o)
 .debug_abbrev  0x00009cae      0x1ea c:/program files/microchip/xc32/v2.40/bin/bin/../../lib/gcc/pic32c/6.2.1/../../../../pic32c/lib\libg_nano.a(lib_a-reent.o)
 .debug_abbrev  0x00009e98       0x2a c:/program files/microchip/xc32/v2.40/bin/bin/../../lib/gcc/pic32c/6.2.1/../../../../pic32c/lib\libpic32c.a(_close.o)
 .debug_abbrev  0x00009ec2       0x2a c:/program files/microchip/xc32/v2.40/bin/bin/../../lib/gcc/pic32c/6.2.1/../../../../pic32c/lib\libpic32c.a(_fstat.o)
 .debug_abbrev  0x00009eec       0x2a c:/program files/microchip/xc32/v2.40/bin/bin/../../lib/gcc/pic32c/6.2.1/../../../../pic32c/lib\libpic32c.a(_isatty.o)
 .debug_abbrev  0x00009f16       0x2a c:/program files/microchip/xc32/v2.40/bin/bin/../../lib/gcc/pic32c/6.2.1/../../../../pic32c/lib\libpic32c.a(_lseek.o)
 .debug_abbrev  0x00009f40       0x2a c:/program files/microchip/xc32/v2.40/bin/bin/../../lib/gcc/pic32c/6.2.1/../../../../pic32c/lib\libpic32c.a(_read.o)
 .debug_abbrev  0x00009f6a       0x2a c:/program files/microchip/xc32/v2.40/bin/bin/../../lib/gcc/pic32c/6.2.1/../../../../pic32c/lib\libpic32c.a(sbrk.o)
 .debug_abbrev  0x00009f94       0x2a c:/program files/microchip/xc32/v2.40/bin/bin/../../lib/gcc/pic32c/6.2.1/../../../../pic32c/lib\libpic32c.a(_write.o)
 .debug_abbrev  0x00009fbe       0x2a c:/program files/microchip/xc32/v2.40/bin/bin/../../lib/gcc/pic32c/6.2.1/../../../../pic32c/lib\libpic32c.a(close.o)
 .debug_abbrev  0x00009fe8       0x2a c:/program files/microchip/xc32/v2.40/bin/bin/../../lib/gcc/pic32c/6.2.1/../../../../pic32c/lib\libpic32c.a(fstat.o)
 .debug_abbrev  0x0000a012       0x2a c:/program files/microchip/xc32/v2.40/bin/bin/../../lib/gcc/pic32c/6.2.1/../../../../pic32c/lib\libpic32c.a(isatty.o)
 .debug_abbrev  0x0000a03c       0x2a c:/program files/microchip/xc32/v2.40/bin/bin/../../lib/gcc/pic32c/6.2.1/../../../../pic32c/lib\libpic32c.a(lseek.o)

.debug_loc      0x00000000     0xec57
 .debug_loc     0x00000000       0x20 build/sam_c21n_xpro/debug/_ext/1360937237/appiot.o
 .debug_loc     0x00000020       0xdb build/sam_c21n_xpro/debug/_ext/1360937237/moden.o
 .debug_loc     0x000000fb      0xdd7 build/sam_c21n_xpro/debug/_ext/1360937237/canapp.o
 .debug_loc     0x00000ed2      0x2a8 build/sam_c21n_xpro/debug/_ext/1360937237/appuart.o
 .debug_loc     0x0000117a       0x20 build/sam_c21n_xpro/debug/_ext/1360937237/apptimer.o
 .debug_loc     0x0000119a      0x75f build/sam_c21n_xpro/debug/_ext/1936826263/drv_at24.o
 .debug_loc     0x000018f9     0x19fd build/sam_c21n_xpro/debug/_ext/513394604/drv_spi.o
 .debug_loc     0x000032f6      0xef7 build/sam_c21n_xpro/debug/_ext/1274584173/drv_usart.o
 .debug_loc     0x000041ed     0x14de build/sam_c21n_xpro/debug/_ext/1019481632/emulated_eeprom.o
 .debug_loc     0x000056cb      0x10a build/sam_c21n_xpro/debug/_ext/1617700295/plib_adc0.o
 .debug_loc     0x000057d5      0xb3f build/sam_c21n_xpro/debug/_ext/1617702135/plib_can0.o
 .debug_loc     0x00006314       0x3f build/sam_c21n_xpro/debug/_ext/166077579/plib_clock.o
 .debug_loc     0x00006353       0xe1 build/sam_c21n_xpro/debug/_ext/1617704294/plib_eic.o
 .debug_loc     0x00006434      0x18b build/sam_c21n_xpro/debug/_ext/1390493541/plib_nvic.o
 .debug_loc     0x000065bf      0x53c build/sam_c21n_xpro/debug/_ext/770299191/plib_nvmctrl.o
 .debug_loc     0x00006afb      0x1ee build/sam_c21n_xpro/debug/_ext/1390440390/plib_port.o
 .debug_loc     0x00006ce9      0x938 build/sam_c21n_xpro/debug/_ext/1451668420/plib_sercom2_i2c_master.o
 .debug_loc     0x00007621      0x450 build/sam_c21n_xpro/debug/_ext/1942903062/plib_sercom0_spi_master.o
 .debug_loc     0x00007a71      0xadb build/sam_c21n_xpro/debug/_ext/1993392304/plib_sercom1_usart.o
 .debug_loc     0x0000854c      0x3aa build/sam_c21n_xpro/debug/_ext/1004774289/plib_systick.o
 .debug_loc     0x000088f6       0x21 build/sam_c21n_xpro/debug/_ext/1617721454/plib_wdt.o
 .debug_loc     0x00008917       0x42 build/sam_c21n_xpro/debug/_ext/730014449/xc32_monitor.o
 .debug_loc     0x00008959      0x15b build/sam_c21n_xpro/debug/_ext/855761890/sys_int.o
 .debug_loc     0x00008ab4       0x41 build/sam_c21n_xpro/debug/_ext/1758384875/initialization.o
 .debug_loc     0x00008af5       0x20 build/sam_c21n_xpro/debug/_ext/1758384875/startup_xc32.o
 .debug_loc     0x00008b15       0xcd build/sam_c21n_xpro/debug/_ext/1360937237/main.o
 .debug_loc     0x00008be2       0x14 build/sam_c21n_xpro/debug/_ext/1360937237/app.o
 .debug_loc     0x00008bf6       0x63 build/sam_c21n_xpro/debug/_ext/1205691902/sys_debug.o
 .debug_loc     0x00008c59      0xa64 build/sam_c21n_xpro/debug/_ext/1639364742/sys_console.o
 .debug_loc     0x000096bd      0x772 build/sam_c21n_xpro/debug/_ext/1639364742/sys_console_uart.o
 .debug_loc     0x00009e2f      0xadb build/sam_c21n_xpro/debug/_ext/1993392304/plib_sercom3_usart.o
 .debug_loc     0x0000a90a       0x14 c:/program files/microchip/xc32/v2.40/bin/bin/../../lib/gcc/pic32c/6.2.1/../../../../pic32c/lib\libpic32c.a(data_init.o)
 .debug_loc     0x0000a91e      0x164 c:/program files/microchip/xc32/v2.40/bin/bin/../../lib/gcc/pic32c/6.2.1\libgcc.a(_muldi3.o)
 .debug_loc     0x0000aa82      0x29d c:/program files/microchip/xc32/v2.40/bin/bin/../../lib/gcc/pic32c/6.2.1\libgcc.a(_udivmoddi4.o)
 .debug_loc     0x0000ad1f      0x6a6 c:/program files/microchip/xc32/v2.40/bin/bin/../../lib/gcc/pic32c/6.2.1\libgcc.a(divsf3.o)
 .debug_loc     0x0000b3c5      0x150 c:/program files/microchip/xc32/v2.40/bin/bin/../../lib/gcc/pic32c/6.2.1\libgcc.a(floatunsisf.o)
 .debug_loc     0x0000b515       0x72 c:/program files/microchip/xc32/v2.40/bin/bin/../../lib/gcc/pic32c/6.2.1/../../../../pic32c/lib\libg_nano.a(lib_a-init.o)
 .debug_loc     0x0000b587      0x158 c:/program files/microchip/xc32/v2.40/bin/bin/../../lib/gcc/pic32c/6.2.1/../../../../pic32c/lib\libg_nano.a(lib_a-memcmp.o)
 .debug_loc     0x0000b6df       0xde c:/program files/microchip/xc32/v2.40/bin/bin/../../lib/gcc/pic32c/6.2.1/../../../../pic32c/lib\libg_nano.a(lib_a-memcpy-stub.o)
 .debug_loc     0x0000b7bd       0x72 c:/program files/microchip/xc32/v2.40/bin/bin/../../lib/gcc/pic32c/6.2.1/../../../../pic32c/lib\libg_nano.a(lib_a-memset.o)
 .debug_loc     0x0000b82f       0x73 c:/program files/microchip/xc32/v2.40/bin/bin/../../lib/gcc/pic32c/6.2.1/../../../../pic32c/lib\libg_nano.a(_lib_a-sprintf.cdnopuxX.o)
 .debug_loc     0x0000b8a2      0x996 c:/program files/microchip/xc32/v2.40/bin/bin/../../lib/gcc/pic32c/6.2.1/../../../../pic32c/lib\libg_nano.a(_lib_a-nano-vfprintf.cdnopuxX.o)
 .debug_loc     0x0000c238      0x66f c:/program files/microchip/xc32/v2.40/bin/bin/../../lib/gcc/pic32c/6.2.1/../../../../pic32c/lib\libg_nano.a(lib_a-nano-vfprintf_i.o)
 .debug_loc     0x0000c8a7      0x1da c:/program files/microchip/xc32/v2.40/bin/bin/../../lib/gcc/pic32c/6.2.1/../../../../pic32c/lib\libg_nano.a(lib_a-__ssfputs.o)
 .debug_loc     0x0000ca81      0x194 c:/program files/microchip/xc32/v2.40/bin/bin/../../lib/gcc/pic32c/6.2.1/../../../../pic32c/lib\libg_nano.a(lib_a-wbuf.o)
 .debug_loc     0x0000cc15       0x9e c:/program files/microchip/xc32/v2.40/bin/bin/../../lib/gcc/pic32c/6.2.1/../../../../pic32c/lib\libg_nano.a(lib_a-wsetup.o)
 .debug_loc     0x0000ccb3      0x30b c:/program files/microchip/xc32/v2.40/bin/bin/../../lib/gcc/pic32c/6.2.1/../../../../pic32c/lib\libg_nano.a(lib_a-fflush.o)
 .debug_loc     0x0000cfbe      0x2b8 c:/program files/microchip/xc32/v2.40/bin/bin/../../lib/gcc/pic32c/6.2.1/../../../../pic32c/lib\libg_nano.a(lib_a-findfp.o)
 .debug_loc     0x0000d276      0x2ac c:/program files/microchip/xc32/v2.40/bin/bin/../../lib/gcc/pic32c/6.2.1/../../../../pic32c/lib\libg_nano.a(lib_a-fputwc.o)
 .debug_loc     0x0000d522      0x1d9 c:/program files/microchip/xc32/v2.40/bin/bin/../../lib/gcc/pic32c/6.2.1/../../../../pic32c/lib\libg_nano.a(lib_a-fwalk.o)
 .debug_loc     0x0000d6fb      0x174 c:/program files/microchip/xc32/v2.40/bin/bin/../../lib/gcc/pic32c/6.2.1/../../../../pic32c/lib\libg_nano.a(lib_a-locale.o)
 .debug_loc     0x0000d86f      0x260 c:/program files/microchip/xc32/v2.40/bin/bin/../../lib/gcc/pic32c/6.2.1/../../../../pic32c/lib\libg_nano.a(lib_a-makebuf.o)
 .debug_loc     0x0000dacf      0x19a c:/program files/microchip/xc32/v2.40/bin/bin/../../lib/gcc/pic32c/6.2.1/../../../../pic32c/lib\libg_nano.a(lib_a-mbtowc_r.o)
 .debug_loc     0x0000dc69       0xb4 c:/program files/microchip/xc32/v2.40/bin/bin/../../lib/gcc/pic32c/6.2.1/../../../../pic32c/lib\libg_nano.a(lib_a-memchr-stub.o)
 .debug_loc     0x0000dd1d      0x108 c:/program files/microchip/xc32/v2.40/bin/bin/../../lib/gcc/pic32c/6.2.1/../../../../pic32c/lib\libg_nano.a(lib_a-nano-freer.o)
 .debug_loc     0x0000de25      0x242 c:/program files/microchip/xc32/v2.40/bin/bin/../../lib/gcc/pic32c/6.2.1/../../../../pic32c/lib\libg_nano.a(lib_a-nano-mallocr.o)
 .debug_loc     0x0000e067       0x6d c:/program files/microchip/xc32/v2.40/bin/bin/../../lib/gcc/pic32c/6.2.1/../../../../pic32c/lib\libg_nano.a(lib_a-sbrkr.o)
 .debug_loc     0x0000e0d4      0x382 c:/program files/microchip/xc32/v2.40/bin/bin/../../lib/gcc/pic32c/6.2.1/../../../../pic32c/lib\libg_nano.a(lib_a-stdio.o)
 .debug_loc     0x0000e456      0x1cb c:/program files/microchip/xc32/v2.40/bin/bin/../../lib/gcc/pic32c/6.2.1/../../../../pic32c/lib\libg_nano.a(lib_a-wcrtomb.o)
 .debug_loc     0x0000e621       0xf1 c:/program files/microchip/xc32/v2.40/bin/bin/../../lib/gcc/pic32c/6.2.1/../../../../pic32c/lib\libg_nano.a(lib_a-wctomb_r.o)
 .debug_loc     0x0000e712       0xc5 c:/program files/microchip/xc32/v2.40/bin/bin/../../lib/gcc/pic32c/6.2.1/../../../../pic32c/lib\libg_nano.a(lib_a-writer.o)
 .debug_loc     0x0000e7d7       0x6d c:/program files/microchip/xc32/v2.40/bin/bin/../../lib/gcc/pic32c/6.2.1/../../../../pic32c/lib\libg_nano.a(lib_a-closer.o)
 .debug_loc     0x0000e844       0x99 c:/program files/microchip/xc32/v2.40/bin/bin/../../lib/gcc/pic32c/6.2.1/../../../../pic32c/lib\libg_nano.a(lib_a-fstatr.o)
 .debug_loc     0x0000e8dd       0x6d c:/program files/microchip/xc32/v2.40/bin/bin/../../lib/gcc/pic32c/6.2.1/../../../../pic32c/lib\libg_nano.a(lib_a-isattyr.o)
 .debug_loc     0x0000e94a       0xc5 c:/program files/microchip/xc32/v2.40/bin/bin/../../lib/gcc/pic32c/6.2.1/../../../../pic32c/lib\libg_nano.a(lib_a-lseekr.o)
 .debug_loc     0x0000ea0f       0xc5 c:/program files/microchip/xc32/v2.40/bin/bin/../../lib/gcc/pic32c/6.2.1/../../../../pic32c/lib\libg_nano.a(lib_a-readr.o)
 .debug_loc     0x0000ead4      0x10b c:/program files/microchip/xc32/v2.40/bin/bin/../../lib/gcc/pic32c/6.2.1/../../../../pic32c/lib\libg_nano.a(lib_a-reent.o)
 .debug_loc     0x0000ebdf       0x14 c:/program files/microchip/xc32/v2.40/bin/bin/../../lib/gcc/pic32c/6.2.1/../../../../pic32c/lib\libpic32c.a(_close.o)
 .debug_loc     0x0000ebf3       0x14 c:/program files/microchip/xc32/v2.40/bin/bin/../../lib/gcc/pic32c/6.2.1/../../../../pic32c/lib\libpic32c.a(_fstat.o)
 .debug_loc     0x0000ec07       0x14 c:/program files/microchip/xc32/v2.40/bin/bin/../../lib/gcc/pic32c/6.2.1/../../../../pic32c/lib\libpic32c.a(_isatty.o)
 .debug_loc     0x0000ec1b       0x14 c:/program files/microchip/xc32/v2.40/bin/bin/../../lib/gcc/pic32c/6.2.1/../../../../pic32c/lib\libpic32c.a(_lseek.o)
 .debug_loc     0x0000ec2f       0x14 c:/program files/microchip/xc32/v2.40/bin/bin/../../lib/gcc/pic32c/6.2.1/../../../../pic32c/lib\libpic32c.a(_read.o)
 .debug_loc     0x0000ec43       0x14 c:/program files/microchip/xc32/v2.40/bin/bin/../../lib/gcc/pic32c/6.2.1/../../../../pic32c/lib\libpic32c.a(_write.o)

.debug_aranges  0x00000000     0x1630
 .debug_aranges
                0x00000000       0x68 build/sam_c21n_xpro/debug/_ext/1360937237/appiot.o
 .debug_aranges
                0x00000068       0x58 build/sam_c21n_xpro/debug/_ext/1360937237/moden.o
 .debug_aranges
                0x000000c0      0x140 build/sam_c21n_xpro/debug/_ext/1360937237/canapp.o
 .debug_aranges
                0x00000200       0x58 build/sam_c21n_xpro/debug/_ext/1360937237/appuart.o
 .debug_aranges
                0x00000258       0x60 build/sam_c21n_xpro/debug/_ext/1360937237/appemueeprom.o
 .debug_aranges
                0x000002b8       0x40 build/sam_c21n_xpro/debug/_ext/1360937237/apptimer.o
 .debug_aranges
                0x000002f8       0x80 build/sam_c21n_xpro/debug/_ext/1936826263/drv_at24.o
 .debug_aranges
                0x00000378       0x98 build/sam_c21n_xpro/debug/_ext/513394604/drv_spi.o
 .debug_aranges
                0x00000410       0x70 build/sam_c21n_xpro/debug/_ext/1274584173/drv_usart.o
 .debug_aranges
                0x00000480       0x98 build/sam_c21n_xpro/debug/_ext/1019481632/emulated_eeprom.o
 .debug_aranges
                0x00000518       0x80 build/sam_c21n_xpro/debug/_ext/1617700295/plib_adc0.o
 .debug_aranges
                0x00000598       0xb0 build/sam_c21n_xpro/debug/_ext/1617702135/plib_can0.o
 .debug_aranges
                0x00000648       0x20 build/sam_c21n_xpro/debug/_ext/166077579/plib_clock.o
 .debug_aranges
                0x00000668       0x40 build/sam_c21n_xpro/debug/_ext/1617704294/plib_eic.o
 .debug_aranges
                0x000006a8       0x20 build/sam_c21n_xpro/debug/_ext/163928093/plib_evsys.o
 .debug_aranges
                0x000006c8       0x38 build/sam_c21n_xpro/debug/_ext/1390493541/plib_nvic.o
 .debug_aranges
                0x00000700       0xa0 build/sam_c21n_xpro/debug/_ext/770299191/plib_nvmctrl.o
 .debug_aranges
                0x000007a0       0x70 build/sam_c21n_xpro/debug/_ext/1390440390/plib_port.o
 .debug_aranges
                0x00000810       0x70 build/sam_c21n_xpro/debug/_ext/1451668420/plib_sercom2_i2c_master.o
 .debug_aranges
                0x00000880       0x60 build/sam_c21n_xpro/debug/_ext/1942903062/plib_sercom0_spi_master.o
 .debug_aranges
                0x000008e0       0xc0 build/sam_c21n_xpro/debug/_ext/1993392304/plib_sercom1_usart.o
 .debug_aranges
                0x000009a0       0x98 build/sam_c21n_xpro/debug/_ext/1004774289/plib_systick.o
 .debug_aranges
                0x00000a38       0x68 build/sam_c21n_xpro/debug/_ext/1617721454/plib_wdt.o
 .debug_aranges
                0x00000aa0       0x28 build/sam_c21n_xpro/debug/_ext/730014449/xc32_monitor.o
 .debug_aranges
                0x00000ac8       0x40 build/sam_c21n_xpro/debug/_ext/855761890/sys_int.o
 .debug_aranges
                0x00000b08       0x20 build/sam_c21n_xpro/debug/_ext/1758384875/initialization.o
 .debug_aranges
                0x00000b28       0x20 build/sam_c21n_xpro/debug/_ext/1758384875/interrupts.o
 .debug_aranges
                0x00000b48       0x28 build/sam_c21n_xpro/debug/_ext/1758384875/exceptions.o
 .debug_aranges
                0x00000b70       0x28 build/sam_c21n_xpro/debug/_ext/1758384875/startup_xc32.o
 .debug_aranges
                0x00000b98       0x40 build/sam_c21n_xpro/debug/_ext/1360937237/main.o
 .debug_aranges
                0x00000bd8       0x28 build/sam_c21n_xpro/debug/_ext/1360937237/app.o
 .debug_aranges
                0x00000c00       0x48 build/sam_c21n_xpro/debug/_ext/1205691902/sys_debug.o
 .debug_aranges
                0x00000c48       0x88 build/sam_c21n_xpro/debug/_ext/1639364742/sys_console.o
 .debug_aranges
                0x00000cd0       0x70 build/sam_c21n_xpro/debug/_ext/1639364742/sys_console_uart.o
 .debug_aranges
                0x00000d40       0xc0 build/sam_c21n_xpro/debug/_ext/1993392304/plib_sercom3_usart.o
 .debug_aranges
                0x00000e00       0x20 c:/program files/microchip/xc32/v2.40/bin/bin/../../lib/gcc/pic32c/6.2.1/../../../../pic32c/lib\libpic32c.a(data_init.o)
 .debug_aranges
                0x00000e20       0x20 c:/program files/microchip/xc32/v2.40/bin/bin/../../lib/gcc/pic32c/6.2.1\libgcc.a(_udivsi3.o)
 .debug_aranges
                0x00000e40       0x20 c:/program files/microchip/xc32/v2.40/bin/bin/../../lib/gcc/pic32c/6.2.1\libgcc.a(_dvmd_tls.o)
 .debug_aranges
                0x00000e60       0x20 c:/program files/microchip/xc32/v2.40/bin/bin/../../lib/gcc/pic32c/6.2.1\libgcc.a(_aeabi_uldivmod.o)
 .debug_aranges
                0x00000e80       0x20 c:/program files/microchip/xc32/v2.40/bin/bin/../../lib/gcc/pic32c/6.2.1\libgcc.a(_muldi3.o)
 .debug_aranges
                0x00000ea0       0x20 c:/program files/microchip/xc32/v2.40/bin/bin/../../lib/gcc/pic32c/6.2.1\libgcc.a(_udivmoddi4.o)
 .debug_aranges
                0x00000ec0       0x20 c:/program files/microchip/xc32/v2.40/bin/bin/../../lib/gcc/pic32c/6.2.1\libgcc.a(divsf3.o)
 .debug_aranges
                0x00000ee0       0x20 c:/program files/microchip/xc32/v2.40/bin/bin/../../lib/gcc/pic32c/6.2.1\libgcc.a(floatunsisf.o)
 .debug_aranges
                0x00000f00       0x20 c:/program files/microchip/xc32/v2.40/bin/bin/../../lib/gcc/pic32c/6.2.1\libgcc.a(_thumb1_case_uqi.o)
 .debug_aranges
                0x00000f20       0x20 c:/program files/microchip/xc32/v2.40/bin/bin/../../lib/gcc/pic32c/6.2.1\libgcc.a(_lshrdi3.o)
 .debug_aranges
                0x00000f40       0x20 c:/program files/microchip/xc32/v2.40/bin/bin/../../lib/gcc/pic32c/6.2.1\libgcc.a(_ashldi3.o)
 .debug_aranges
                0x00000f60       0x20 c:/program files/microchip/xc32/v2.40/bin/bin/../../lib/gcc/pic32c/6.2.1\libgcc.a(_clzsi2.o)
 .debug_aranges
                0x00000f80       0x20 c:/program files/microchip/xc32/v2.40/bin/bin/../../lib/gcc/pic32c/6.2.1\libgcc.a(_clzdi2.o)
 .debug_aranges
                0x00000fa0       0x20 c:/program files/microchip/xc32/v2.40/bin/bin/../../lib/gcc/pic32c/6.2.1/../../../../pic32c/lib\libg_nano.a(lib_a-init.o)
 .debug_aranges
                0x00000fc0       0x20 c:/program files/microchip/xc32/v2.40/bin/bin/../../lib/gcc/pic32c/6.2.1/../../../../pic32c/lib\libg_nano.a(lib_a-memcmp.o)
 .debug_aranges
                0x00000fe0       0x20 c:/program files/microchip/xc32/v2.40/bin/bin/../../lib/gcc/pic32c/6.2.1/../../../../pic32c/lib\libg_nano.a(lib_a-memcpy-stub.o)
 .debug_aranges
                0x00001000       0x20 c:/program files/microchip/xc32/v2.40/bin/bin/../../lib/gcc/pic32c/6.2.1/../../../../pic32c/lib\libg_nano.a(lib_a-memset.o)
 .debug_aranges
                0x00001020       0x20 c:/program files/microchip/xc32/v2.40/bin/bin/../../lib/gcc/pic32c/6.2.1/../../../../pic32c/lib\libg_nano.a(_lib_a-sprintf.cdnopuxX.o)
 .debug_aranges
                0x00001040       0x20 c:/program files/microchip/xc32/v2.40/bin/bin/../../lib/gcc/pic32c/6.2.1/../../../../pic32c/lib\libg_nano.a(lib_a-strlen.o)
 .debug_aranges
                0x00001060       0x30 c:/program files/microchip/xc32/v2.40/bin/bin/../../lib/gcc/pic32c/6.2.1/../../../../pic32c/lib\libg_nano.a(_lib_a-nano-vfprintf.cdnopuxX.o)
 .debug_aranges
                0x00001090       0x28 c:/program files/microchip/xc32/v2.40/bin/bin/../../lib/gcc/pic32c/6.2.1/../../../../pic32c/lib\libg_nano.a(lib_a-nano-vfprintf_i.o)
 .debug_aranges
                0x000010b8       0x28 c:/program files/microchip/xc32/v2.40/bin/bin/../../lib/gcc/pic32c/6.2.1/../../../../pic32c/lib\libg_nano.a(lib_a-__ssfputs.o)
 .debug_aranges
                0x000010e0       0x28 c:/program files/microchip/xc32/v2.40/bin/bin/../../lib/gcc/pic32c/6.2.1/../../../../pic32c/lib\libg_nano.a(lib_a-wbuf.o)
 .debug_aranges
                0x00001108       0x20 c:/program files/microchip/xc32/v2.40/bin/bin/../../lib/gcc/pic32c/6.2.1/../../../../pic32c/lib\libg_nano.a(lib_a-wsetup.o)
 .debug_aranges
                0x00001128       0x30 c:/program files/microchip/xc32/v2.40/bin/bin/../../lib/gcc/pic32c/6.2.1/../../../../pic32c/lib\libg_nano.a(lib_a-fflush.o)
 .debug_aranges
                0x00001158       0x48 c:/program files/microchip/xc32/v2.40/bin/bin/../../lib/gcc/pic32c/6.2.1/../../../../pic32c/lib\libg_nano.a(lib_a-findfp.o)
 .debug_aranges
                0x000011a0       0x30 c:/program files/microchip/xc32/v2.40/bin/bin/../../lib/gcc/pic32c/6.2.1/../../../../pic32c/lib\libg_nano.a(lib_a-fputwc.o)
 .debug_aranges
                0x000011d0       0x28 c:/program files/microchip/xc32/v2.40/bin/bin/../../lib/gcc/pic32c/6.2.1/../../../../pic32c/lib\libg_nano.a(lib_a-fwalk.o)
 .debug_aranges
                0x000011f8       0x18 c:/program files/microchip/xc32/v2.40/bin/bin/../../lib/gcc/pic32c/6.2.1/../../../../pic32c/lib\libg_nano.a(lib_a-impure.o)
 .debug_aranges
                0x00001210       0x40 c:/program files/microchip/xc32/v2.40/bin/bin/../../lib/gcc/pic32c/6.2.1/../../../../pic32c/lib\libg_nano.a(lib_a-locale.o)
 .debug_aranges
                0x00001250       0x28 c:/program files/microchip/xc32/v2.40/bin/bin/../../lib/gcc/pic32c/6.2.1/../../../../pic32c/lib\libg_nano.a(lib_a-makebuf.o)
 .debug_aranges
                0x00001278       0x28 c:/program files/microchip/xc32/v2.40/bin/bin/../../lib/gcc/pic32c/6.2.1/../../../../pic32c/lib\libg_nano.a(lib_a-mbtowc_r.o)
 .debug_aranges
                0x000012a0       0x20 c:/program files/microchip/xc32/v2.40/bin/bin/../../lib/gcc/pic32c/6.2.1/../../../../pic32c/lib\libg_nano.a(lib_a-memchr-stub.o)
 .debug_aranges
                0x000012c0       0x20 c:/program files/microchip/xc32/v2.40/bin/bin/../../lib/gcc/pic32c/6.2.1/../../../../pic32c/lib\libg_nano.a(lib_a-nano-freer.o)
 .debug_aranges
                0x000012e0       0x20 c:/program files/microchip/xc32/v2.40/bin/bin/../../lib/gcc/pic32c/6.2.1/../../../../pic32c/lib\libg_nano.a(lib_a-nano-mallocr.o)
 .debug_aranges
                0x00001300       0x20 c:/program files/microchip/xc32/v2.40/bin/bin/../../lib/gcc/pic32c/6.2.1/../../../../pic32c/lib\libg_nano.a(lib_a-sbrkr.o)
 .debug_aranges
                0x00001320       0x40 c:/program files/microchip/xc32/v2.40/bin/bin/../../lib/gcc/pic32c/6.2.1/../../../../pic32c/lib\libg_nano.a(lib_a-stdio.o)
 .debug_aranges
                0x00001360       0x28 c:/program files/microchip/xc32/v2.40/bin/bin/../../lib/gcc/pic32c/6.2.1/../../../../pic32c/lib\libg_nano.a(lib_a-wcrtomb.o)
 .debug_aranges
                0x00001388       0x28 c:/program files/microchip/xc32/v2.40/bin/bin/../../lib/gcc/pic32c/6.2.1/../../../../pic32c/lib\libg_nano.a(lib_a-wctomb_r.o)
 .debug_aranges
                0x000013b0       0x20 c:/program files/microchip/xc32/v2.40/bin/bin/../../lib/gcc/pic32c/6.2.1/../../../../pic32c/lib\libg_nano.a(lib_a-writer.o)
 .debug_aranges
                0x000013d0       0x20 c:/program files/microchip/xc32/v2.40/bin/bin/../../lib/gcc/pic32c/6.2.1/../../../../pic32c/lib\libg_nano.a(lib_a-closer.o)
 .debug_aranges
                0x000013f0       0x18 c:/program files/microchip/xc32/v2.40/bin/bin/../../lib/gcc/pic32c/6.2.1/../../../../pic32c/lib\libg_nano.a(lib_a-ctype_.o)
 .debug_aranges
                0x00001408       0x20 c:/program files/microchip/xc32/v2.40/bin/bin/../../lib/gcc/pic32c/6.2.1/../../../../pic32c/lib\libg_nano.a(lib_a-fstatr.o)
 .debug_aranges
                0x00001428       0x20 c:/program files/microchip/xc32/v2.40/bin/bin/../../lib/gcc/pic32c/6.2.1/../../../../pic32c/lib\libg_nano.a(lib_a-isattyr.o)
 .debug_aranges
                0x00001448       0x20 c:/program files/microchip/xc32/v2.40/bin/bin/../../lib/gcc/pic32c/6.2.1/../../../../pic32c/lib\libg_nano.a(lib_a-lseekr.o)
 .debug_aranges
                0x00001468       0x20 c:/program files/microchip/xc32/v2.40/bin/bin/../../lib/gcc/pic32c/6.2.1/../../../../pic32c/lib\libg_nano.a(lib_a-mlock.o)
 .debug_aranges
                0x00001488       0x20 c:/program files/microchip/xc32/v2.40/bin/bin/../../lib/gcc/pic32c/6.2.1/../../../../pic32c/lib\libg_nano.a(lib_a-readr.o)
 .debug_aranges
                0x000014a8       0x28 c:/program files/microchip/xc32/v2.40/bin/bin/../../lib/gcc/pic32c/6.2.1/../../../../pic32c/lib\libg_nano.a(lib_a-reent.o)
 .debug_aranges
                0x000014d0       0x20 c:/program files/microchip/xc32/v2.40/bin/bin/../../lib/gcc/pic32c/6.2.1/../../../../pic32c/lib\libpic32c.a(_close.o)
 .debug_aranges
                0x000014f0       0x20 c:/program files/microchip/xc32/v2.40/bin/bin/../../lib/gcc/pic32c/6.2.1/../../../../pic32c/lib\libpic32c.a(_fstat.o)
 .debug_aranges
                0x00001510       0x20 c:/program files/microchip/xc32/v2.40/bin/bin/../../lib/gcc/pic32c/6.2.1/../../../../pic32c/lib\libpic32c.a(_isatty.o)
 .debug_aranges
                0x00001530       0x20 c:/program files/microchip/xc32/v2.40/bin/bin/../../lib/gcc/pic32c/6.2.1/../../../../pic32c/lib\libpic32c.a(_lseek.o)
 .debug_aranges
                0x00001550       0x20 c:/program files/microchip/xc32/v2.40/bin/bin/../../lib/gcc/pic32c/6.2.1/../../../../pic32c/lib\libpic32c.a(_read.o)
 .debug_aranges
                0x00001570       0x20 c:/program files/microchip/xc32/v2.40/bin/bin/../../lib/gcc/pic32c/6.2.1/../../../../pic32c/lib\libpic32c.a(sbrk.o)
 .debug_aranges
                0x00001590       0x20 c:/program files/microchip/xc32/v2.40/bin/bin/../../lib/gcc/pic32c/6.2.1/../../../../pic32c/lib\libpic32c.a(_write.o)
 .debug_aranges
                0x000015b0       0x20 c:/program files/microchip/xc32/v2.40/bin/bin/../../lib/gcc/pic32c/6.2.1/../../../../pic32c/lib\libpic32c.a(close.o)
 .debug_aranges
                0x000015d0       0x20 c:/program files/microchip/xc32/v2.40/bin/bin/../../lib/gcc/pic32c/6.2.1/../../../../pic32c/lib\libpic32c.a(fstat.o)
 .debug_aranges
                0x000015f0       0x20 c:/program files/microchip/xc32/v2.40/bin/bin/../../lib/gcc/pic32c/6.2.1/../../../../pic32c/lib\libpic32c.a(isatty.o)
 .debug_aranges
                0x00001610       0x20 c:/program files/microchip/xc32/v2.40/bin/bin/../../lib/gcc/pic32c/6.2.1/../../../../pic32c/lib\libpic32c.a(lseek.o)

.debug_ranges   0x00000000     0x1978
 .debug_ranges  0x00000000       0x58 build/sam_c21n_xpro/debug/_ext/1360937237/appiot.o
 .debug_ranges  0x00000058       0x48 build/sam_c21n_xpro/debug/_ext/1360937237/moden.o
 .debug_ranges  0x000000a0      0x130 build/sam_c21n_xpro/debug/_ext/1360937237/canapp.o
 .debug_ranges  0x000001d0       0x48 build/sam_c21n_xpro/debug/_ext/1360937237/appuart.o
 .debug_ranges  0x00000218       0x50 build/sam_c21n_xpro/debug/_ext/1360937237/appemueeprom.o
 .debug_ranges  0x00000268       0x30 build/sam_c21n_xpro/debug/_ext/1360937237/apptimer.o
 .debug_ranges  0x00000298       0x88 build/sam_c21n_xpro/debug/_ext/1936826263/drv_at24.o
 .debug_ranges  0x00000320      0x1a0 build/sam_c21n_xpro/debug/_ext/513394604/drv_spi.o
 .debug_ranges  0x000004c0      0x130 build/sam_c21n_xpro/debug/_ext/1274584173/drv_usart.o
 .debug_ranges  0x000005f0      0x2a0 build/sam_c21n_xpro/debug/_ext/1019481632/emulated_eeprom.o
 .debug_ranges  0x00000890       0x70 build/sam_c21n_xpro/debug/_ext/1617700295/plib_adc0.o
 .debug_ranges  0x00000900       0xf0 build/sam_c21n_xpro/debug/_ext/1617702135/plib_can0.o
 .debug_ranges  0x000009f0       0x10 build/sam_c21n_xpro/debug/_ext/166077579/plib_clock.o
 .debug_ranges  0x00000a00       0x30 build/sam_c21n_xpro/debug/_ext/1617704294/plib_eic.o
 .debug_ranges  0x00000a30       0x10 build/sam_c21n_xpro/debug/_ext/163928093/plib_evsys.o
 .debug_ranges  0x00000a40       0x28 build/sam_c21n_xpro/debug/_ext/1390493541/plib_nvic.o
 .debug_ranges  0x00000a68       0x90 build/sam_c21n_xpro/debug/_ext/770299191/plib_nvmctrl.o
 .debug_ranges  0x00000af8       0x60 build/sam_c21n_xpro/debug/_ext/1390440390/plib_port.o
 .debug_ranges  0x00000b58       0xe8 build/sam_c21n_xpro/debug/_ext/1451668420/plib_sercom2_i2c_master.o
 .debug_ranges  0x00000c40       0x50 build/sam_c21n_xpro/debug/_ext/1942903062/plib_sercom0_spi_master.o
 .debug_ranges  0x00000c90      0x1b0 build/sam_c21n_xpro/debug/_ext/1993392304/plib_sercom1_usart.o
 .debug_ranges  0x00000e40       0x88 build/sam_c21n_xpro/debug/_ext/1004774289/plib_systick.o
 .debug_ranges  0x00000ec8       0x58 build/sam_c21n_xpro/debug/_ext/1617721454/plib_wdt.o
 .debug_ranges  0x00000f20       0x18 build/sam_c21n_xpro/debug/_ext/730014449/xc32_monitor.o
 .debug_ranges  0x00000f38       0x30 build/sam_c21n_xpro/debug/_ext/855761890/sys_int.o
 .debug_ranges  0x00000f68       0x10 build/sam_c21n_xpro/debug/_ext/1758384875/initialization.o
 .debug_ranges  0x00000f78       0x10 build/sam_c21n_xpro/debug/_ext/1758384875/interrupts.o
 .debug_ranges  0x00000f88       0x18 build/sam_c21n_xpro/debug/_ext/1758384875/exceptions.o
 .debug_ranges  0x00000fa0       0x18 build/sam_c21n_xpro/debug/_ext/1758384875/startup_xc32.o
 .debug_ranges  0x00000fb8       0x30 build/sam_c21n_xpro/debug/_ext/1360937237/main.o
 .debug_ranges  0x00000fe8       0x18 build/sam_c21n_xpro/debug/_ext/1360937237/app.o
 .debug_ranges  0x00001000       0x38 build/sam_c21n_xpro/debug/_ext/1205691902/sys_debug.o
 .debug_ranges  0x00001038       0x78 build/sam_c21n_xpro/debug/_ext/1639364742/sys_console.o
 .debug_ranges  0x000010b0       0x78 build/sam_c21n_xpro/debug/_ext/1639364742/sys_console_uart.o
 .debug_ranges  0x00001128      0x1b0 build/sam_c21n_xpro/debug/_ext/1993392304/plib_sercom3_usart.o
 .debug_ranges  0x000012d8       0x10 c:/program files/microchip/xc32/v2.40/bin/bin/../../lib/gcc/pic32c/6.2.1/../../../../pic32c/lib\libpic32c.a(data_init.o)
 .debug_ranges  0x000012e8       0x28 c:/program files/microchip/xc32/v2.40/bin/bin/../../lib/gcc/pic32c/6.2.1\libgcc.a(_muldi3.o)
 .debug_ranges  0x00001310       0x50 c:/program files/microchip/xc32/v2.40/bin/bin/../../lib/gcc/pic32c/6.2.1\libgcc.a(divsf3.o)
 .debug_ranges  0x00001360       0x38 c:/program files/microchip/xc32/v2.40/bin/bin/../../lib/gcc/pic32c/6.2.1\libgcc.a(floatunsisf.o)
 .debug_ranges  0x00001398       0x10 c:/program files/microchip/xc32/v2.40/bin/bin/../../lib/gcc/pic32c/6.2.1/../../../../pic32c/lib\libg_nano.a(lib_a-init.o)
 .debug_ranges  0x000013a8       0x10 c:/program files/microchip/xc32/v2.40/bin/bin/../../lib/gcc/pic32c/6.2.1/../../../../pic32c/lib\libg_nano.a(lib_a-memcmp.o)
 .debug_ranges  0x000013b8       0x10 c:/program files/microchip/xc32/v2.40/bin/bin/../../lib/gcc/pic32c/6.2.1/../../../../pic32c/lib\libg_nano.a(lib_a-memcpy-stub.o)
 .debug_ranges  0x000013c8       0x10 c:/program files/microchip/xc32/v2.40/bin/bin/../../lib/gcc/pic32c/6.2.1/../../../../pic32c/lib\libg_nano.a(lib_a-memset.o)
 .debug_ranges  0x000013d8       0x10 c:/program files/microchip/xc32/v2.40/bin/bin/../../lib/gcc/pic32c/6.2.1/../../../../pic32c/lib\libg_nano.a(_lib_a-sprintf.cdnopuxX.o)
 .debug_ranges  0x000013e8       0x60 c:/program files/microchip/xc32/v2.40/bin/bin/../../lib/gcc/pic32c/6.2.1/../../../../pic32c/lib\libg_nano.a(_lib_a-nano-vfprintf.cdnopuxX.o)
 .debug_ranges  0x00001448       0x90 c:/program files/microchip/xc32/v2.40/bin/bin/../../lib/gcc/pic32c/6.2.1/../../../../pic32c/lib\libg_nano.a(lib_a-nano-vfprintf_i.o)
 .debug_ranges  0x000014d8       0x30 c:/program files/microchip/xc32/v2.40/bin/bin/../../lib/gcc/pic32c/6.2.1/../../../../pic32c/lib\libg_nano.a(lib_a-__ssfputs.o)
 .debug_ranges  0x00001508       0x30 c:/program files/microchip/xc32/v2.40/bin/bin/../../lib/gcc/pic32c/6.2.1/../../../../pic32c/lib\libg_nano.a(lib_a-wbuf.o)
 .debug_ranges  0x00001538       0x38 c:/program files/microchip/xc32/v2.40/bin/bin/../../lib/gcc/pic32c/6.2.1/../../../../pic32c/lib\libg_nano.a(lib_a-wsetup.o)
 .debug_ranges  0x00001570       0x68 c:/program files/microchip/xc32/v2.40/bin/bin/../../lib/gcc/pic32c/6.2.1/../../../../pic32c/lib\libg_nano.a(lib_a-fflush.o)
 .debug_ranges  0x000015d8       0x38 c:/program files/microchip/xc32/v2.40/bin/bin/../../lib/gcc/pic32c/6.2.1/../../../../pic32c/lib\libg_nano.a(lib_a-findfp.o)
 .debug_ranges  0x00001610       0x50 c:/program files/microchip/xc32/v2.40/bin/bin/../../lib/gcc/pic32c/6.2.1/../../../../pic32c/lib\libg_nano.a(lib_a-fputwc.o)
 .debug_ranges  0x00001660       0x18 c:/program files/microchip/xc32/v2.40/bin/bin/../../lib/gcc/pic32c/6.2.1/../../../../pic32c/lib\libg_nano.a(lib_a-fwalk.o)
 .debug_ranges  0x00001678       0x30 c:/program files/microchip/xc32/v2.40/bin/bin/../../lib/gcc/pic32c/6.2.1/../../../../pic32c/lib\libg_nano.a(lib_a-locale.o)
 .debug_ranges  0x000016a8       0x30 c:/program files/microchip/xc32/v2.40/bin/bin/../../lib/gcc/pic32c/6.2.1/../../../../pic32c/lib\libg_nano.a(lib_a-makebuf.o)
 .debug_ranges  0x000016d8       0x18 c:/program files/microchip/xc32/v2.40/bin/bin/../../lib/gcc/pic32c/6.2.1/../../../../pic32c/lib\libg_nano.a(lib_a-mbtowc_r.o)
 .debug_ranges  0x000016f0       0x10 c:/program files/microchip/xc32/v2.40/bin/bin/../../lib/gcc/pic32c/6.2.1/../../../../pic32c/lib\libg_nano.a(lib_a-memchr-stub.o)
 .debug_ranges  0x00001700       0x28 c:/program files/microchip/xc32/v2.40/bin/bin/../../lib/gcc/pic32c/6.2.1/../../../../pic32c/lib\libg_nano.a(lib_a-nano-freer.o)
 .debug_ranges  0x00001728       0x60 c:/program files/microchip/xc32/v2.40/bin/bin/../../lib/gcc/pic32c/6.2.1/../../../../pic32c/lib\libg_nano.a(lib_a-nano-mallocr.o)
 .debug_ranges  0x00001788       0x10 c:/program files/microchip/xc32/v2.40/bin/bin/../../lib/gcc/pic32c/6.2.1/../../../../pic32c/lib\libg_nano.a(lib_a-sbrkr.o)
 .debug_ranges  0x00001798       0x30 c:/program files/microchip/xc32/v2.40/bin/bin/../../lib/gcc/pic32c/6.2.1/../../../../pic32c/lib\libg_nano.a(lib_a-stdio.o)
 .debug_ranges  0x000017c8       0x30 c:/program files/microchip/xc32/v2.40/bin/bin/../../lib/gcc/pic32c/6.2.1/../../../../pic32c/lib\libg_nano.a(lib_a-wcrtomb.o)
 .debug_ranges  0x000017f8       0x18 c:/program files/microchip/xc32/v2.40/bin/bin/../../lib/gcc/pic32c/6.2.1/../../../../pic32c/lib\libg_nano.a(lib_a-wctomb_r.o)
 .debug_ranges  0x00001810       0x10 c:/program files/microchip/xc32/v2.40/bin/bin/../../lib/gcc/pic32c/6.2.1/../../../../pic32c/lib\libg_nano.a(lib_a-writer.o)
 .debug_ranges  0x00001820       0x10 c:/program files/microchip/xc32/v2.40/bin/bin/../../lib/gcc/pic32c/6.2.1/../../../../pic32c/lib\libg_nano.a(lib_a-closer.o)
 .debug_ranges  0x00001830       0x10 c:/program files/microchip/xc32/v2.40/bin/bin/../../lib/gcc/pic32c/6.2.1/../../../../pic32c/lib\libg_nano.a(lib_a-fstatr.o)
 .debug_ranges  0x00001840       0x10 c:/program files/microchip/xc32/v2.40/bin/bin/../../lib/gcc/pic32c/6.2.1/../../../../pic32c/lib\libg_nano.a(lib_a-isattyr.o)
 .debug_ranges  0x00001850       0x10 c:/program files/microchip/xc32/v2.40/bin/bin/../../lib/gcc/pic32c/6.2.1/../../../../pic32c/lib\libg_nano.a(lib_a-lseekr.o)
 .debug_ranges  0x00001860       0x10 c:/program files/microchip/xc32/v2.40/bin/bin/../../lib/gcc/pic32c/6.2.1/../../../../pic32c/lib\libg_nano.a(lib_a-mlock.o)
 .debug_ranges  0x00001870       0x10 c:/program files/microchip/xc32/v2.40/bin/bin/../../lib/gcc/pic32c/6.2.1/../../../../pic32c/lib\libg_nano.a(lib_a-readr.o)
 .debug_ranges  0x00001880       0x48 c:/program files/microchip/xc32/v2.40/bin/bin/../../lib/gcc/pic32c/6.2.1/../../../../pic32c/lib\libg_nano.a(lib_a-reent.o)
 .debug_ranges  0x000018c8       0x10 c:/program files/microchip/xc32/v2.40/bin/bin/../../lib/gcc/pic32c/6.2.1/../../../../pic32c/lib\libpic32c.a(_close.o)
 .debug_ranges  0x000018d8       0x10 c:/program files/microchip/xc32/v2.40/bin/bin/../../lib/gcc/pic32c/6.2.1/../../../../pic32c/lib\libpic32c.a(_fstat.o)
 .debug_ranges  0x000018e8       0x10 c:/program files/microchip/xc32/v2.40/bin/bin/../../lib/gcc/pic32c/6.2.1/../../../../pic32c/lib\libpic32c.a(_isatty.o)
 .debug_ranges  0x000018f8       0x10 c:/program files/microchip/xc32/v2.40/bin/bin/../../lib/gcc/pic32c/6.2.1/../../../../pic32c/lib\libpic32c.a(_lseek.o)
 .debug_ranges  0x00001908       0x10 c:/program files/microchip/xc32/v2.40/bin/bin/../../lib/gcc/pic32c/6.2.1/../../../../pic32c/lib\libpic32c.a(_read.o)
 .debug_ranges  0x00001918       0x10 c:/program files/microchip/xc32/v2.40/bin/bin/../../lib/gcc/pic32c/6.2.1/../../../../pic32c/lib\libpic32c.a(sbrk.o)
 .debug_ranges  0x00001928       0x10 c:/program files/microchip/xc32/v2.40/bin/bin/../../lib/gcc/pic32c/6.2.1/../../../../pic32c/lib\libpic32c.a(_write.o)
 .debug_ranges  0x00001938       0x10 c:/program files/microchip/xc32/v2.40/bin/bin/../../lib/gcc/pic32c/6.2.1/../../../../pic32c/lib\libpic32c.a(close.o)
 .debug_ranges  0x00001948       0x10 c:/program files/microchip/xc32/v2.40/bin/bin/../../lib/gcc/pic32c/6.2.1/../../../../pic32c/lib\libpic32c.a(fstat.o)
 .debug_ranges  0x00001958       0x10 c:/program files/microchip/xc32/v2.40/bin/bin/../../lib/gcc/pic32c/6.2.1/../../../../pic32c/lib\libpic32c.a(isatty.o)
 .debug_ranges  0x00001968       0x10 c:/program files/microchip/xc32/v2.40/bin/bin/../../lib/gcc/pic32c/6.2.1/../../../../pic32c/lib\libpic32c.a(lseek.o)

.debug_line     0x00000000     0xe176
 .debug_line    0x00000000      0x31f build/sam_c21n_xpro/debug/_ext/1360937237/appiot.o
 .debug_line    0x0000031f      0x3d9 build/sam_c21n_xpro/debug/_ext/1360937237/moden.o
 .debug_line    0x000006f8      0x645 build/sam_c21n_xpro/debug/_ext/1360937237/canapp.o
 .debug_line    0x00000d3d      0x376 build/sam_c21n_xpro/debug/_ext/1360937237/appuart.o
 .debug_line    0x000010b3      0x310 build/sam_c21n_xpro/debug/_ext/1360937237/appemueeprom.o
 .debug_line    0x000013c3      0x323 build/sam_c21n_xpro/debug/_ext/1360937237/apptimer.o
 .debug_line    0x000016e6      0x3d5 build/sam_c21n_xpro/debug/_ext/1936826263/drv_at24.o
 .debug_line    0x00001abb      0x80e build/sam_c21n_xpro/debug/_ext/513394604/drv_spi.o
 .debug_line    0x000022c9      0x565 build/sam_c21n_xpro/debug/_ext/1274584173/drv_usart.o
 .debug_line    0x0000282e      0x75c build/sam_c21n_xpro/debug/_ext/1019481632/emulated_eeprom.o
 .debug_line    0x00002f8a      0x243 build/sam_c21n_xpro/debug/_ext/1617700295/plib_adc0.o
 .debug_line    0x000031cd      0x41f build/sam_c21n_xpro/debug/_ext/1617702135/plib_can0.o
 .debug_line    0x000035ec      0x18d build/sam_c21n_xpro/debug/_ext/166077579/plib_clock.o
 .debug_line    0x00003779      0x1b6 build/sam_c21n_xpro/debug/_ext/1617704294/plib_eic.o
 .debug_line    0x0000392f       0x6a build/sam_c21n_xpro/debug/_ext/163928093/plib_evsys.o
 .debug_line    0x00003999      0x232 build/sam_c21n_xpro/debug/_ext/1390493541/plib_nvic.o
 .debug_line    0x00003bcb      0x30b build/sam_c21n_xpro/debug/_ext/770299191/plib_nvmctrl.o
 .debug_line    0x00003ed6      0x222 build/sam_c21n_xpro/debug/_ext/1390440390/plib_port.o
 .debug_line    0x000040f8      0x374 build/sam_c21n_xpro/debug/_ext/1451668420/plib_sercom2_i2c_master.o
 .debug_line    0x0000446c      0x32b build/sam_c21n_xpro/debug/_ext/1942903062/plib_sercom0_spi_master.o
 .debug_line    0x00004797      0x4a1 build/sam_c21n_xpro/debug/_ext/1993392304/plib_sercom1_usart.o
 .debug_line    0x00004c38      0x29f build/sam_c21n_xpro/debug/_ext/1004774289/plib_systick.o
 .debug_line    0x00004ed7      0x1f3 build/sam_c21n_xpro/debug/_ext/1617721454/plib_wdt.o
 .debug_line    0x000050ca       0xc0 build/sam_c21n_xpro/debug/_ext/730014449/xc32_monitor.o
 .debug_line    0x0000518a      0x261 build/sam_c21n_xpro/debug/_ext/855761890/sys_int.o
 .debug_line    0x000053eb      0x89b build/sam_c21n_xpro/debug/_ext/1758384875/initialization.o
 .debug_line    0x00005c86      0x26a build/sam_c21n_xpro/debug/_ext/1758384875/interrupts.o
 .debug_line    0x00005ef0      0x231 build/sam_c21n_xpro/debug/_ext/1758384875/exceptions.o
 .debug_line    0x00006121      0x18a build/sam_c21n_xpro/debug/_ext/1758384875/startup_xc32.o
 .debug_line    0x000062ab      0x3da build/sam_c21n_xpro/debug/_ext/1360937237/main.o
 .debug_line    0x00006685      0x149 build/sam_c21n_xpro/debug/_ext/1360937237/app.o
 .debug_line    0x000067ce      0x297 build/sam_c21n_xpro/debug/_ext/1205691902/sys_debug.o
 .debug_line    0x00006a65      0x456 build/sam_c21n_xpro/debug/_ext/1639364742/sys_console.o
 .debug_line    0x00006ebb      0x479 build/sam_c21n_xpro/debug/_ext/1639364742/sys_console_uart.o
 .debug_line    0x00007334      0x4a1 build/sam_c21n_xpro/debug/_ext/1993392304/plib_sercom3_usart.o
 .debug_line    0x000077d5       0xe3 c:/program files/microchip/xc32/v2.40/bin/bin/../../lib/gcc/pic32c/6.2.1/../../../../pic32c/lib\libpic32c.a(data_init.o)
 .debug_line    0x000078b8       0xb3 c:/program files/microchip/xc32/v2.40/bin/bin/../../lib/gcc/pic32c/6.2.1\libgcc.a(_udivsi3.o)
 .debug_line    0x0000796b       0x9c c:/program files/microchip/xc32/v2.40/bin/bin/../../lib/gcc/pic32c/6.2.1\libgcc.a(_dvmd_tls.o)
 .debug_line    0x00007a07       0xa7 c:/program files/microchip/xc32/v2.40/bin/bin/../../lib/gcc/pic32c/6.2.1\libgcc.a(_aeabi_uldivmod.o)
 .debug_line    0x00007aae      0x296 c:/program files/microchip/xc32/v2.40/bin/bin/../../lib/gcc/pic32c/6.2.1\libgcc.a(_muldi3.o)
 .debug_line    0x00007d44      0x2b2 c:/program files/microchip/xc32/v2.40/bin/bin/../../lib/gcc/pic32c/6.2.1\libgcc.a(_udivmoddi4.o)
 .debug_line    0x00007ff6      0x161 c:/program files/microchip/xc32/v2.40/bin/bin/../../lib/gcc/pic32c/6.2.1\libgcc.a(divsf3.o)
 .debug_line    0x00008157      0x137 c:/program files/microchip/xc32/v2.40/bin/bin/../../lib/gcc/pic32c/6.2.1\libgcc.a(floatunsisf.o)
 .debug_line    0x0000828e       0xa4 c:/program files/microchip/xc32/v2.40/bin/bin/../../lib/gcc/pic32c/6.2.1\libgcc.a(_thumb1_case_uqi.o)
 .debug_line    0x00008332       0xa7 c:/program files/microchip/xc32/v2.40/bin/bin/../../lib/gcc/pic32c/6.2.1\libgcc.a(_lshrdi3.o)
 .debug_line    0x000083d9       0xa7 c:/program files/microchip/xc32/v2.40/bin/bin/../../lib/gcc/pic32c/6.2.1\libgcc.a(_ashldi3.o)
 .debug_line    0x00008480       0xb0 c:/program files/microchip/xc32/v2.40/bin/bin/../../lib/gcc/pic32c/6.2.1\libgcc.a(_clzsi2.o)
 .debug_line    0x00008530       0xa6 c:/program files/microchip/xc32/v2.40/bin/bin/../../lib/gcc/pic32c/6.2.1\libgcc.a(_clzdi2.o)
 .debug_line    0x000085d6      0x118 c:/program files/microchip/xc32/v2.40/bin/bin/../../lib/gcc/pic32c/6.2.1/../../../../pic32c/lib\libg_nano.a(lib_a-init.o)
 .debug_line    0x000086ee      0x20a c:/program files/microchip/xc32/v2.40/bin/bin/../../lib/gcc/pic32c/6.2.1/../../../../pic32c/lib\libg_nano.a(lib_a-memcmp.o)
 .debug_line    0x000088f8      0x21c c:/program files/microchip/xc32/v2.40/bin/bin/../../lib/gcc/pic32c/6.2.1/../../../../pic32c/lib\libg_nano.a(lib_a-memcpy-stub.o)
 .debug_line    0x00008b14      0x2ad c:/program files/microchip/xc32/v2.40/bin/bin/../../lib/gcc/pic32c/6.2.1/../../../../pic32c/lib\libg_nano.a(lib_a-memset.o)
 .debug_line    0x00008dc1      0x1d4 c:/program files/microchip/xc32/v2.40/bin/bin/../../lib/gcc/pic32c/6.2.1/../../../../pic32c/lib\libg_nano.a(_lib_a-sprintf.cdnopuxX.o)
 .debug_line    0x00008f95       0xb1 c:/program files/microchip/xc32/v2.40/bin/bin/../../lib/gcc/pic32c/6.2.1/../../../../pic32c/lib\libg_nano.a(lib_a-strlen.o)
 .debug_line    0x00009046      0x3c3 c:/program files/microchip/xc32/v2.40/bin/bin/../../lib/gcc/pic32c/6.2.1/../../../../pic32c/lib\libg_nano.a(_lib_a-nano-vfprintf.cdnopuxX.o)
 .debug_line    0x00009409      0x490 c:/program files/microchip/xc32/v2.40/bin/bin/../../lib/gcc/pic32c/6.2.1/../../../../pic32c/lib\libg_nano.a(lib_a-nano-vfprintf_i.o)
 .debug_line    0x00009899      0x365 c:/program files/microchip/xc32/v2.40/bin/bin/../../lib/gcc/pic32c/6.2.1/../../../../pic32c/lib\libg_nano.a(lib_a-__ssfputs.o)
 .debug_line    0x00009bfe      0x27d c:/program files/microchip/xc32/v2.40/bin/bin/../../lib/gcc/pic32c/6.2.1/../../../../pic32c/lib\libg_nano.a(lib_a-wbuf.o)
 .debug_line    0x00009e7b      0x26c c:/program files/microchip/xc32/v2.40/bin/bin/../../lib/gcc/pic32c/6.2.1/../../../../pic32c/lib\libg_nano.a(lib_a-wsetup.o)
 .debug_line    0x0000a0e7      0x2d3 c:/program files/microchip/xc32/v2.40/bin/bin/../../lib/gcc/pic32c/6.2.1/../../../../pic32c/lib\libg_nano.a(lib_a-fflush.o)
 .debug_line    0x0000a3ba      0x315 c:/program files/microchip/xc32/v2.40/bin/bin/../../lib/gcc/pic32c/6.2.1/../../../../pic32c/lib\libg_nano.a(lib_a-findfp.o)
 .debug_line    0x0000a6cf      0x2a0 c:/program files/microchip/xc32/v2.40/bin/bin/../../lib/gcc/pic32c/6.2.1/../../../../pic32c/lib\libg_nano.a(lib_a-fputwc.o)
 .debug_line    0x0000a96f      0x269 c:/program files/microchip/xc32/v2.40/bin/bin/../../lib/gcc/pic32c/6.2.1/../../../../pic32c/lib\libg_nano.a(lib_a-fwalk.o)
 .debug_line    0x0000abd8      0x17e c:/program files/microchip/xc32/v2.40/bin/bin/../../lib/gcc/pic32c/6.2.1/../../../../pic32c/lib\libg_nano.a(lib_a-impure.o)
 .debug_line    0x0000ad56      0x32f c:/program files/microchip/xc32/v2.40/bin/bin/../../lib/gcc/pic32c/6.2.1/../../../../pic32c/lib\libg_nano.a(lib_a-locale.o)
 .debug_line    0x0000b085      0x328 c:/program files/microchip/xc32/v2.40/bin/bin/../../lib/gcc/pic32c/6.2.1/../../../../pic32c/lib\libg_nano.a(lib_a-makebuf.o)
 .debug_line    0x0000b3ad      0x2d9 c:/program files/microchip/xc32/v2.40/bin/bin/../../lib/gcc/pic32c/6.2.1/../../../../pic32c/lib\libg_nano.a(lib_a-mbtowc_r.o)
 .debug_line    0x0000b686      0x21c c:/program files/microchip/xc32/v2.40/bin/bin/../../lib/gcc/pic32c/6.2.1/../../../../pic32c/lib\libg_nano.a(lib_a-memchr-stub.o)
 .debug_line    0x0000b8a2      0x1d4 c:/program files/microchip/xc32/v2.40/bin/bin/../../lib/gcc/pic32c/6.2.1/../../../../pic32c/lib\libg_nano.a(lib_a-nano-freer.o)
 .debug_line    0x0000ba76      0x259 c:/program files/microchip/xc32/v2.40/bin/bin/../../lib/gcc/pic32c/6.2.1/../../../../pic32c/lib\libg_nano.a(lib_a-nano-mallocr.o)
 .debug_line    0x0000bccf      0x214 c:/program files/microchip/xc32/v2.40/bin/bin/../../lib/gcc/pic32c/6.2.1/../../../../pic32c/lib\libg_nano.a(lib_a-sbrkr.o)
 .debug_line    0x0000bee3      0x2a3 c:/program files/microchip/xc32/v2.40/bin/bin/../../lib/gcc/pic32c/6.2.1/../../../../pic32c/lib\libg_nano.a(lib_a-stdio.o)
 .debug_line    0x0000c186      0x2ee c:/program files/microchip/xc32/v2.40/bin/bin/../../lib/gcc/pic32c/6.2.1/../../../../pic32c/lib\libg_nano.a(lib_a-wcrtomb.o)
 .debug_line    0x0000c474      0x2cf c:/program files/microchip/xc32/v2.40/bin/bin/../../lib/gcc/pic32c/6.2.1/../../../../pic32c/lib\libg_nano.a(lib_a-wctomb_r.o)
 .debug_line    0x0000c743      0x211 c:/program files/microchip/xc32/v2.40/bin/bin/../../lib/gcc/pic32c/6.2.1/../../../../pic32c/lib\libg_nano.a(lib_a-writer.o)
 .debug_line    0x0000c954      0x215 c:/program files/microchip/xc32/v2.40/bin/bin/../../lib/gcc/pic32c/6.2.1/../../../../pic32c/lib\libg_nano.a(lib_a-closer.o)
 .debug_line    0x0000cb69      0x21e c:/program files/microchip/xc32/v2.40/bin/bin/../../lib/gcc/pic32c/6.2.1/../../../../pic32c/lib\libg_nano.a(lib_a-ctype_.o)
 .debug_line    0x0000cd87      0x2c3 c:/program files/microchip/xc32/v2.40/bin/bin/../../lib/gcc/pic32c/6.2.1/../../../../pic32c/lib\libg_nano.a(lib_a-fstatr.o)
 .debug_line    0x0000d04a      0x216 c:/program files/microchip/xc32/v2.40/bin/bin/../../lib/gcc/pic32c/6.2.1/../../../../pic32c/lib\libg_nano.a(lib_a-isattyr.o)
 .debug_line    0x0000d260      0x211 c:/program files/microchip/xc32/v2.40/bin/bin/../../lib/gcc/pic32c/6.2.1/../../../../pic32c/lib\libg_nano.a(lib_a-lseekr.o)
 .debug_line    0x0000d471      0x18e c:/program files/microchip/xc32/v2.40/bin/bin/../../lib/gcc/pic32c/6.2.1/../../../../pic32c/lib\libg_nano.a(lib_a-mlock.o)
 .debug_line    0x0000d5ff      0x210 c:/program files/microchip/xc32/v2.40/bin/bin/../../lib/gcc/pic32c/6.2.1/../../../../pic32c/lib\libg_nano.a(lib_a-readr.o)
 .debug_line    0x0000d80f      0x23f c:/program files/microchip/xc32/v2.40/bin/bin/../../lib/gcc/pic32c/6.2.1/../../../../pic32c/lib\libg_nano.a(lib_a-reent.o)
 .debug_line    0x0000da4e       0x9d c:/program files/microchip/xc32/v2.40/bin/bin/../../lib/gcc/pic32c/6.2.1/../../../../pic32c/lib\libpic32c.a(_close.o)
 .debug_line    0x0000daeb       0x9d c:/program files/microchip/xc32/v2.40/bin/bin/../../lib/gcc/pic32c/6.2.1/../../../../pic32c/lib\libpic32c.a(_fstat.o)
 .debug_line    0x0000db88       0x9e c:/program files/microchip/xc32/v2.40/bin/bin/../../lib/gcc/pic32c/6.2.1/../../../../pic32c/lib\libpic32c.a(_isatty.o)
 .debug_line    0x0000dc26       0x9d c:/program files/microchip/xc32/v2.40/bin/bin/../../lib/gcc/pic32c/6.2.1/../../../../pic32c/lib\libpic32c.a(_lseek.o)
 .debug_line    0x0000dcc3       0x9c c:/program files/microchip/xc32/v2.40/bin/bin/../../lib/gcc/pic32c/6.2.1/../../../../pic32c/lib\libpic32c.a(_read.o)
 .debug_line    0x0000dd5f       0xa4 c:/program files/microchip/xc32/v2.40/bin/bin/../../lib/gcc/pic32c/6.2.1/../../../../pic32c/lib\libpic32c.a(sbrk.o)
 .debug_line    0x0000de03       0x9d c:/program files/microchip/xc32/v2.40/bin/bin/../../lib/gcc/pic32c/6.2.1/../../../../pic32c/lib\libpic32c.a(_write.o)
 .debug_line    0x0000dea0       0x9b c:/program files/microchip/xc32/v2.40/bin/bin/../../lib/gcc/pic32c/6.2.1/../../../../pic32c/lib\libpic32c.a(close.o)
 .debug_line    0x0000df3b      0x104 c:/program files/microchip/xc32/v2.40/bin/bin/../../lib/gcc/pic32c/6.2.1/../../../../pic32c/lib\libpic32c.a(fstat.o)
 .debug_line    0x0000e03f       0x9c c:/program files/microchip/xc32/v2.40/bin/bin/../../lib/gcc/pic32c/6.2.1/../../../../pic32c/lib\libpic32c.a(isatty.o)
 .debug_line    0x0000e0db       0x9b c:/program files/microchip/xc32/v2.40/bin/bin/../../lib/gcc/pic32c/6.2.1/../../../../pic32c/lib\libpic32c.a(lseek.o)

.debug_str      0x00000000     0x203c
 .debug_str     0x00000000       0x29 build/sam_c21n_xpro/debug/_ext/1360937237/appiot.o
 .debug_str     0x00000029       0x6a build/sam_c21n_xpro/debug/_ext/1360937237/moden.o
 .debug_str     0x00000093       0xd3 build/sam_c21n_xpro/debug/_ext/1360937237/canapp.o
 .debug_str     0x00000166       0x83 build/sam_c21n_xpro/debug/_ext/1360937237/appuart.o
 .debug_str     0x000001e9       0x78 build/sam_c21n_xpro/debug/_ext/1360937237/appemueeprom.o
 .debug_str     0x00000261       0x61 build/sam_c21n_xpro/debug/_ext/1360937237/apptimer.o
 .debug_str     0x000002c2       0xac build/sam_c21n_xpro/debug/_ext/1936826263/drv_at24.o
 .debug_str     0x0000036e      0x21f build/sam_c21n_xpro/debug/_ext/513394604/drv_spi.o
 .debug_str     0x0000058d      0x124 build/sam_c21n_xpro/debug/_ext/1274584173/drv_usart.o
 .debug_str     0x000006b1       0xd4 build/sam_c21n_xpro/debug/_ext/1019481632/emulated_eeprom.o
 .debug_str     0x00000785        0xe build/sam_c21n_xpro/debug/_ext/1617700295/plib_adc0.o
 .debug_str     0x00000793       0xb3 build/sam_c21n_xpro/debug/_ext/1617702135/plib_can0.o
 .debug_str     0x00000846       0x1e build/sam_c21n_xpro/debug/_ext/166077579/plib_clock.o
 .debug_str     0x00000864        0x9 build/sam_c21n_xpro/debug/_ext/1617704294/plib_eic.o
 .debug_str     0x0000086d        0x0 build/sam_c21n_xpro/debug/_ext/163928093/plib_evsys.o
 .debug_str     0x0000086d        0xa build/sam_c21n_xpro/debug/_ext/1390493541/plib_nvic.o
 .debug_str     0x00000877       0x24 build/sam_c21n_xpro/debug/_ext/770299191/plib_nvmctrl.o
 .debug_str     0x0000089b        0xb build/sam_c21n_xpro/debug/_ext/1390440390/plib_port.o
 .debug_str     0x000008a6      0x157 build/sam_c21n_xpro/debug/_ext/1451668420/plib_sercom2_i2c_master.o
 .debug_str     0x000009fd      0x12b build/sam_c21n_xpro/debug/_ext/1942903062/plib_sercom0_spi_master.o
 .debug_str     0x00000b28      0x1aa build/sam_c21n_xpro/debug/_ext/1993392304/plib_sercom1_usart.o
 .debug_str     0x00000cd2       0x56 build/sam_c21n_xpro/debug/_ext/1004774289/plib_systick.o
 .debug_str     0x00000d28        0x0 build/sam_c21n_xpro/debug/_ext/1617721454/plib_wdt.o
 .debug_str     0x00000d28        0x0 build/sam_c21n_xpro/debug/_ext/730014449/xc32_monitor.o
 .debug_str     0x00000d28       0x32 build/sam_c21n_xpro/debug/_ext/855761890/sys_int.o
 .debug_str     0x00000d5a      0x2a0 build/sam_c21n_xpro/debug/_ext/1758384875/initialization.o
 .debug_str     0x00000ffa        0xe build/sam_c21n_xpro/debug/_ext/1758384875/interrupts.o
 .debug_str     0x00001008        0xe build/sam_c21n_xpro/debug/_ext/1758384875/exceptions.o
 .debug_str     0x00001016       0x2f build/sam_c21n_xpro/debug/_ext/1758384875/startup_xc32.o
 .debug_str     0x00001045      0x115 build/sam_c21n_xpro/debug/_ext/1360937237/main.o
 .debug_str     0x0000115a        0xe build/sam_c21n_xpro/debug/_ext/1360937237/app.o
 .debug_str     0x00001168        0xe build/sam_c21n_xpro/debug/_ext/1205691902/sys_debug.o
 .debug_str     0x00001176       0x3c build/sam_c21n_xpro/debug/_ext/1639364742/sys_console.o
 .debug_str     0x000011b2       0xa1 build/sam_c21n_xpro/debug/_ext/1639364742/sys_console_uart.o
 .debug_str     0x00001253      0x1aa build/sam_c21n_xpro/debug/_ext/1993392304/plib_sercom3_usart.o
 .debug_str     0x000013fd        0x0 c:/program files/microchip/xc32/v2.40/bin/bin/../../lib/gcc/pic32c/6.2.1/../../../../pic32c/lib\libpic32c.a(data_init.o)
 .debug_str     0x000013fd        0x0 c:/program files/microchip/xc32/v2.40/bin/bin/../../lib/gcc/pic32c/6.2.1\libgcc.a(_muldi3.o)
 .debug_str     0x000013fd        0x0 c:/program files/microchip/xc32/v2.40/bin/bin/../../lib/gcc/pic32c/6.2.1\libgcc.a(_udivmoddi4.o)
 .debug_str     0x000013fd       0x30 c:/program files/microchip/xc32/v2.40/bin/bin/../../lib/gcc/pic32c/6.2.1\libgcc.a(divsf3.o)
 .debug_str     0x0000142d        0x0 c:/program files/microchip/xc32/v2.40/bin/bin/../../lib/gcc/pic32c/6.2.1\libgcc.a(floatunsisf.o)
 .debug_str     0x0000142d        0x0 c:/program files/microchip/xc32/v2.40/bin/bin/../../lib/gcc/pic32c/6.2.1/../../../../pic32c/lib\libg_nano.a(lib_a-init.o)
 .debug_str     0x0000142d        0x9 c:/program files/microchip/xc32/v2.40/bin/bin/../../lib/gcc/pic32c/6.2.1/../../../../pic32c/lib\libg_nano.a(lib_a-memcmp.o)
 .debug_str     0x00001436        0x9 c:/program files/microchip/xc32/v2.40/bin/bin/../../lib/gcc/pic32c/6.2.1/../../../../pic32c/lib\libg_nano.a(lib_a-memcpy-stub.o)
 .debug_str     0x0000143f      0x114 c:/program files/microchip/xc32/v2.40/bin/bin/../../lib/gcc/pic32c/6.2.1/../../../../pic32c/lib\libg_nano.a(lib_a-memset.o)
 .debug_str     0x00001553       0x1c c:/program files/microchip/xc32/v2.40/bin/bin/../../lib/gcc/pic32c/6.2.1/../../../../pic32c/lib\libg_nano.a(_lib_a-sprintf.cdnopuxX.o)
 .debug_str     0x0000156f      0x13b c:/program files/microchip/xc32/v2.40/bin/bin/../../lib/gcc/pic32c/6.2.1/../../../../pic32c/lib\libg_nano.a(_lib_a-nano-vfprintf.cdnopuxX.o)
 .debug_str     0x000016aa      0x11b c:/program files/microchip/xc32/v2.40/bin/bin/../../lib/gcc/pic32c/6.2.1/../../../../pic32c/lib\libg_nano.a(lib_a-nano-vfprintf_i.o)
 .debug_str     0x000017c5      0x128 c:/program files/microchip/xc32/v2.40/bin/bin/../../lib/gcc/pic32c/6.2.1/../../../../pic32c/lib\libg_nano.a(lib_a-__ssfputs.o)
 .debug_str     0x000018ed       0x1f c:/program files/microchip/xc32/v2.40/bin/bin/../../lib/gcc/pic32c/6.2.1/../../../../pic32c/lib\libg_nano.a(lib_a-wbuf.o)
 .debug_str     0x0000190c       0x16 c:/program files/microchip/xc32/v2.40/bin/bin/../../lib/gcc/pic32c/6.2.1/../../../../pic32c/lib\libg_nano.a(lib_a-wsetup.o)
 .debug_str     0x00001922       0x16 c:/program files/microchip/xc32/v2.40/bin/bin/../../lib/gcc/pic32c/6.2.1/../../../../pic32c/lib\libg_nano.a(lib_a-fflush.o)
 .debug_str     0x00001938       0x20 c:/program files/microchip/xc32/v2.40/bin/bin/../../lib/gcc/pic32c/6.2.1/../../../../pic32c/lib\libg_nano.a(lib_a-findfp.o)
 .debug_str     0x00001958       0x32 c:/program files/microchip/xc32/v2.40/bin/bin/../../lib/gcc/pic32c/6.2.1/../../../../pic32c/lib\libg_nano.a(lib_a-fputwc.o)
 .debug_str     0x0000198a        0x9 c:/program files/microchip/xc32/v2.40/bin/bin/../../lib/gcc/pic32c/6.2.1/../../../../pic32c/lib\libg_nano.a(lib_a-fwalk.o)
 .debug_str     0x00001993        0x9 c:/program files/microchip/xc32/v2.40/bin/bin/../../lib/gcc/pic32c/6.2.1/../../../../pic32c/lib\libg_nano.a(lib_a-impure.o)
 .debug_str     0x0000199c      0x134 c:/program files/microchip/xc32/v2.40/bin/bin/../../lib/gcc/pic32c/6.2.1/../../../../pic32c/lib\libg_nano.a(lib_a-locale.o)
 .debug_str     0x00001ad0       0x31 c:/program files/microchip/xc32/v2.40/bin/bin/../../lib/gcc/pic32c/6.2.1/../../../../pic32c/lib\libg_nano.a(lib_a-makebuf.o)
 .debug_str     0x00001b01      0x114 c:/program files/microchip/xc32/v2.40/bin/bin/../../lib/gcc/pic32c/6.2.1/../../../../pic32c/lib\libg_nano.a(lib_a-mbtowc_r.o)
 .debug_str     0x00001c15        0x9 c:/program files/microchip/xc32/v2.40/bin/bin/../../lib/gcc/pic32c/6.2.1/../../../../pic32c/lib\libg_nano.a(lib_a-memchr-stub.o)
 .debug_str     0x00001c1e       0x27 c:/program files/microchip/xc32/v2.40/bin/bin/../../lib/gcc/pic32c/6.2.1/../../../../pic32c/lib\libg_nano.a(lib_a-nano-freer.o)
 .debug_str     0x00001c45       0x31 c:/program files/microchip/xc32/v2.40/bin/bin/../../lib/gcc/pic32c/6.2.1/../../../../pic32c/lib\libg_nano.a(lib_a-nano-mallocr.o)
 .debug_str     0x00001c76        0x9 c:/program files/microchip/xc32/v2.40/bin/bin/../../lib/gcc/pic32c/6.2.1/../../../../pic32c/lib\libg_nano.a(lib_a-sbrkr.o)
 .debug_str     0x00001c7f       0x2b c:/program files/microchip/xc32/v2.40/bin/bin/../../lib/gcc/pic32c/6.2.1/../../../../pic32c/lib\libg_nano.a(lib_a-stdio.o)
 .debug_str     0x00001caa      0x114 c:/program files/microchip/xc32/v2.40/bin/bin/../../lib/gcc/pic32c/6.2.1/../../../../pic32c/lib\libg_nano.a(lib_a-wcrtomb.o)
 .debug_str     0x00001dbe      0x114 c:/program files/microchip/xc32/v2.40/bin/bin/../../lib/gcc/pic32c/6.2.1/../../../../pic32c/lib\libg_nano.a(lib_a-wctomb_r.o)
 .debug_str     0x00001ed2       0x10 c:/program files/microchip/xc32/v2.40/bin/bin/../../lib/gcc/pic32c/6.2.1/../../../../pic32c/lib\libg_nano.a(lib_a-writer.o)
 .debug_str     0x00001ee2       0x10 c:/program files/microchip/xc32/v2.40/bin/bin/../../lib/gcc/pic32c/6.2.1/../../../../pic32c/lib\libg_nano.a(lib_a-closer.o)
 .debug_str     0x00001ef2      0x114 c:/program files/microchip/xc32/v2.40/bin/bin/../../lib/gcc/pic32c/6.2.1/../../../../pic32c/lib\libg_nano.a(lib_a-ctype_.o)
 .debug_str     0x00002006        0x9 c:/program files/microchip/xc32/v2.40/bin/bin/../../lib/gcc/pic32c/6.2.1/../../../../pic32c/lib\libg_nano.a(lib_a-fstatr.o)
 .debug_str     0x0000200f        0x9 c:/program files/microchip/xc32/v2.40/bin/bin/../../lib/gcc/pic32c/6.2.1/../../../../pic32c/lib\libg_nano.a(lib_a-isattyr.o)
 .debug_str     0x00002018        0x9 c:/program files/microchip/xc32/v2.40/bin/bin/../../lib/gcc/pic32c/6.2.1/../../../../pic32c/lib\libg_nano.a(lib_a-lseekr.o)
 .debug_str     0x00002021        0x9 c:/program files/microchip/xc32/v2.40/bin/bin/../../lib/gcc/pic32c/6.2.1/../../../../pic32c/lib\libg_nano.a(lib_a-mlock.o)
 .debug_str     0x0000202a        0x9 c:/program files/microchip/xc32/v2.40/bin/bin/../../lib/gcc/pic32c/6.2.1/../../../../pic32c/lib\libg_nano.a(lib_a-readr.o)
 .debug_str     0x00002033        0x9 c:/program files/microchip/xc32/v2.40/bin/bin/../../lib/gcc/pic32c/6.2.1/../../../../pic32c/lib\libg_nano.a(lib_a-reent.o)
 .debug_str     0x0000203c        0x0 c:/program files/microchip/xc32/v2.40/bin/bin/../../lib/gcc/pic32c/6.2.1/../../../../pic32c/lib\libpic32c.a(_close.o)
 .debug_str     0x0000203c        0x0 c:/program files/microchip/xc32/v2.40/bin/bin/../../lib/gcc/pic32c/6.2.1/../../../../pic32c/lib\libpic32c.a(_fstat.o)
 .debug_str     0x0000203c        0x0 c:/program files/microchip/xc32/v2.40/bin/bin/../../lib/gcc/pic32c/6.2.1/../../../../pic32c/lib\libpic32c.a(_isatty.o)
 .debug_str     0x0000203c        0x0 c:/program files/microchip/xc32/v2.40/bin/bin/../../lib/gcc/pic32c/6.2.1/../../../../pic32c/lib\libpic32c.a(_lseek.o)
 .debug_str     0x0000203c        0x0 c:/program files/microchip/xc32/v2.40/bin/bin/../../lib/gcc/pic32c/6.2.1/../../../../pic32c/lib\libpic32c.a(_read.o)
 .debug_str     0x0000203c        0x0 c:/program files/microchip/xc32/v2.40/bin/bin/../../lib/gcc/pic32c/6.2.1/../../../../pic32c/lib\libpic32c.a(sbrk.o)
 .debug_str     0x0000203c        0x0 c:/program files/microchip/xc32/v2.40/bin/bin/../../lib/gcc/pic32c/6.2.1/../../../../pic32c/lib\libpic32c.a(_write.o)
 .debug_str     0x0000203c        0x0 c:/program files/microchip/xc32/v2.40/bin/bin/../../lib/gcc/pic32c/6.2.1/../../../../pic32c/lib\libpic32c.a(close.o)
 .debug_str     0x0000203c        0x0 c:/program files/microchip/xc32/v2.40/bin/bin/../../lib/gcc/pic32c/6.2.1/../../../../pic32c/lib\libpic32c.a(fstat.o)
 .debug_str     0x0000203c        0x0 c:/program files/microchip/xc32/v2.40/bin/bin/../../lib/gcc/pic32c/6.2.1/../../../../pic32c/lib\libpic32c.a(isatty.o)
 .debug_str     0x0000203c        0x0 c:/program files/microchip/xc32/v2.40/bin/bin/../../lib/gcc/pic32c/6.2.1/../../../../pic32c/lib\libpic32c.a(lseek.o)

.debug_frame    0x00000000     0x29c8
 .debug_frame   0x00000000       0xb8 build/sam_c21n_xpro/debug/_ext/1360937237/appiot.o
 .debug_frame   0x000000b8       0xb4 build/sam_c21n_xpro/debug/_ext/1360937237/moden.o
 .debug_frame   0x0000016c      0x368 build/sam_c21n_xpro/debug/_ext/1360937237/canapp.o
 .debug_frame   0x000004d4       0xcc build/sam_c21n_xpro/debug/_ext/1360937237/appuart.o
 .debug_frame   0x000005a0       0xa0 build/sam_c21n_xpro/debug/_ext/1360937237/appemueeprom.o
 .debug_frame   0x00000640       0x68 build/sam_c21n_xpro/debug/_ext/1360937237/apptimer.o
 .debug_frame   0x000006a8      0x148 build/sam_c21n_xpro/debug/_ext/1936826263/drv_at24.o
 .debug_frame   0x000007f0      0x1d0 build/sam_c21n_xpro/debug/_ext/513394604/drv_spi.o
 .debug_frame   0x000009c0      0x118 build/sam_c21n_xpro/debug/_ext/1274584173/drv_usart.o
 .debug_frame   0x00000ad8      0x1fc build/sam_c21n_xpro/debug/_ext/1019481632/emulated_eeprom.o
 .debug_frame   0x00000cd4       0xe0 build/sam_c21n_xpro/debug/_ext/1617700295/plib_adc0.o
 .debug_frame   0x00000db4      0x1ac build/sam_c21n_xpro/debug/_ext/1617702135/plib_can0.o
 .debug_frame   0x00000f60       0x20 build/sam_c21n_xpro/debug/_ext/166077579/plib_clock.o
 .debug_frame   0x00000f80       0x80 build/sam_c21n_xpro/debug/_ext/1617704294/plib_eic.o
 .debug_frame   0x00001000       0x20 build/sam_c21n_xpro/debug/_ext/163928093/plib_evsys.o
 .debug_frame   0x00001020       0x58 build/sam_c21n_xpro/debug/_ext/1390493541/plib_nvic.o
 .debug_frame   0x00001078      0x148 build/sam_c21n_xpro/debug/_ext/770299191/plib_nvmctrl.o
 .debug_frame   0x000011c0       0xd4 build/sam_c21n_xpro/debug/_ext/1390440390/plib_port.o
 .debug_frame   0x00001294       0xf8 build/sam_c21n_xpro/debug/_ext/1451668420/plib_sercom2_i2c_master.o
 .debug_frame   0x0000138c       0xd0 build/sam_c21n_xpro/debug/_ext/1942903062/plib_sercom0_spi_master.o
 .debug_frame   0x0000145c      0x1dc build/sam_c21n_xpro/debug/_ext/1993392304/plib_sercom1_usart.o
 .debug_frame   0x00001638      0x138 build/sam_c21n_xpro/debug/_ext/1004774289/plib_systick.o
 .debug_frame   0x00001770       0xb0 build/sam_c21n_xpro/debug/_ext/1617721454/plib_wdt.o
 .debug_frame   0x00001820       0x30 build/sam_c21n_xpro/debug/_ext/730014449/xc32_monitor.o
 .debug_frame   0x00001850       0x84 build/sam_c21n_xpro/debug/_ext/855761890/sys_int.o
 .debug_frame   0x000018d4       0x28 build/sam_c21n_xpro/debug/_ext/1758384875/initialization.o
 .debug_frame   0x000018fc       0x20 build/sam_c21n_xpro/debug/_ext/1758384875/interrupts.o
 .debug_frame   0x0000191c       0x30 build/sam_c21n_xpro/debug/_ext/1758384875/exceptions.o
 .debug_frame   0x0000194c       0x38 build/sam_c21n_xpro/debug/_ext/1758384875/startup_xc32.o
 .debug_frame   0x00001984       0x8c build/sam_c21n_xpro/debug/_ext/1360937237/main.o
 .debug_frame   0x00001a10       0x30 build/sam_c21n_xpro/debug/_ext/1360937237/app.o
 .debug_frame   0x00001a40       0x70 build/sam_c21n_xpro/debug/_ext/1205691902/sys_debug.o
 .debug_frame   0x00001ab0      0x154 build/sam_c21n_xpro/debug/_ext/1639364742/sys_console.o
 .debug_frame   0x00001c04       0xf8 build/sam_c21n_xpro/debug/_ext/1639364742/sys_console_uart.o
 .debug_frame   0x00001cfc      0x1dc build/sam_c21n_xpro/debug/_ext/1993392304/plib_sercom3_usart.o
 .debug_frame   0x00001ed8       0x2c c:/program files/microchip/xc32/v2.40/bin/bin/../../lib/gcc/pic32c/6.2.1/../../../../pic32c/lib\libpic32c.a(data_init.o)
 .debug_frame   0x00001f04       0x20 c:/program files/microchip/xc32/v2.40/bin/bin/../../lib/gcc/pic32c/6.2.1\libgcc.a(_udivsi3.o)
 .debug_frame   0x00001f24       0x34 c:/program files/microchip/xc32/v2.40/bin/bin/../../lib/gcc/pic32c/6.2.1\libgcc.a(_muldi3.o)
 .debug_frame   0x00001f58       0x30 c:/program files/microchip/xc32/v2.40/bin/bin/../../lib/gcc/pic32c/6.2.1\libgcc.a(_udivmoddi4.o)
 .debug_frame   0x00001f88       0x30 c:/program files/microchip/xc32/v2.40/bin/bin/../../lib/gcc/pic32c/6.2.1\libgcc.a(divsf3.o)
 .debug_frame   0x00001fb8       0x2c c:/program files/microchip/xc32/v2.40/bin/bin/../../lib/gcc/pic32c/6.2.1\libgcc.a(floatunsisf.o)
 .debug_frame   0x00001fe4       0x2c c:/program files/microchip/xc32/v2.40/bin/bin/../../lib/gcc/pic32c/6.2.1/../../../../pic32c/lib\libg_nano.a(lib_a-init.o)
 .debug_frame   0x00002010       0x2c c:/program files/microchip/xc32/v2.40/bin/bin/../../lib/gcc/pic32c/6.2.1/../../../../pic32c/lib\libg_nano.a(lib_a-memcmp.o)
 .debug_frame   0x0000203c       0x28 c:/program files/microchip/xc32/v2.40/bin/bin/../../lib/gcc/pic32c/6.2.1/../../../../pic32c/lib\libg_nano.a(lib_a-memcpy-stub.o)
 .debug_frame   0x00002064       0x20 c:/program files/microchip/xc32/v2.40/bin/bin/../../lib/gcc/pic32c/6.2.1/../../../../pic32c/lib\libg_nano.a(lib_a-memset.o)
 .debug_frame   0x00002084       0x30 c:/program files/microchip/xc32/v2.40/bin/bin/../../lib/gcc/pic32c/6.2.1/../../../../pic32c/lib\libg_nano.a(_lib_a-sprintf.cdnopuxX.o)
 .debug_frame   0x000020b4       0x5c c:/program files/microchip/xc32/v2.40/bin/bin/../../lib/gcc/pic32c/6.2.1/../../../../pic32c/lib\libg_nano.a(_lib_a-nano-vfprintf.cdnopuxX.o)
 .debug_frame   0x00002110       0x54 c:/program files/microchip/xc32/v2.40/bin/bin/../../lib/gcc/pic32c/6.2.1/../../../../pic32c/lib\libg_nano.a(lib_a-nano-vfprintf_i.o)
 .debug_frame   0x00002164       0x48 c:/program files/microchip/xc32/v2.40/bin/bin/../../lib/gcc/pic32c/6.2.1/../../../../pic32c/lib\libg_nano.a(lib_a-__ssfputs.o)
 .debug_frame   0x000021ac       0x48 c:/program files/microchip/xc32/v2.40/bin/bin/../../lib/gcc/pic32c/6.2.1/../../../../pic32c/lib\libg_nano.a(lib_a-wbuf.o)
 .debug_frame   0x000021f4       0x2c c:/program files/microchip/xc32/v2.40/bin/bin/../../lib/gcc/pic32c/6.2.1/../../../../pic32c/lib\libg_nano.a(lib_a-wsetup.o)
 .debug_frame   0x00002220       0x68 c:/program files/microchip/xc32/v2.40/bin/bin/../../lib/gcc/pic32c/6.2.1/../../../../pic32c/lib\libg_nano.a(lib_a-fflush.o)
 .debug_frame   0x00002288       0xb0 c:/program files/microchip/xc32/v2.40/bin/bin/../../lib/gcc/pic32c/6.2.1/../../../../pic32c/lib\libg_nano.a(lib_a-findfp.o)
 .debug_frame   0x00002338       0x64 c:/program files/microchip/xc32/v2.40/bin/bin/../../lib/gcc/pic32c/6.2.1/../../../../pic32c/lib\libg_nano.a(lib_a-fputwc.o)
 .debug_frame   0x0000239c       0x58 c:/program files/microchip/xc32/v2.40/bin/bin/../../lib/gcc/pic32c/6.2.1/../../../../pic32c/lib\libg_nano.a(lib_a-fwalk.o)
 .debug_frame   0x000023f4       0x74 c:/program files/microchip/xc32/v2.40/bin/bin/../../lib/gcc/pic32c/6.2.1/../../../../pic32c/lib\libg_nano.a(lib_a-locale.o)
 .debug_frame   0x00002468       0x54 c:/program files/microchip/xc32/v2.40/bin/bin/../../lib/gcc/pic32c/6.2.1/../../../../pic32c/lib\libg_nano.a(lib_a-makebuf.o)
 .debug_frame   0x000024bc       0x44 c:/program files/microchip/xc32/v2.40/bin/bin/../../lib/gcc/pic32c/6.2.1/../../../../pic32c/lib\libg_nano.a(lib_a-mbtowc_r.o)
 .debug_frame   0x00002500       0x20 c:/program files/microchip/xc32/v2.40/bin/bin/../../lib/gcc/pic32c/6.2.1/../../../../pic32c/lib\libg_nano.a(lib_a-memchr-stub.o)
 .debug_frame   0x00002520       0x2c c:/program files/microchip/xc32/v2.40/bin/bin/../../lib/gcc/pic32c/6.2.1/../../../../pic32c/lib\libg_nano.a(lib_a-nano-freer.o)
 .debug_frame   0x0000254c       0x2c c:/program files/microchip/xc32/v2.40/bin/bin/../../lib/gcc/pic32c/6.2.1/../../../../pic32c/lib\libg_nano.a(lib_a-nano-mallocr.o)
 .debug_frame   0x00002578       0x2c c:/program files/microchip/xc32/v2.40/bin/bin/../../lib/gcc/pic32c/6.2.1/../../../../pic32c/lib\libg_nano.a(lib_a-sbrkr.o)
 .debug_frame   0x000025a4       0x90 c:/program files/microchip/xc32/v2.40/bin/bin/../../lib/gcc/pic32c/6.2.1/../../../../pic32c/lib\libg_nano.a(lib_a-stdio.o)
 .debug_frame   0x00002634       0x4c c:/program files/microchip/xc32/v2.40/bin/bin/../../lib/gcc/pic32c/6.2.1/../../../../pic32c/lib\libg_nano.a(lib_a-wcrtomb.o)
 .debug_frame   0x00002680       0x38 c:/program files/microchip/xc32/v2.40/bin/bin/../../lib/gcc/pic32c/6.2.1/../../../../pic32c/lib\libg_nano.a(lib_a-wctomb_r.o)
 .debug_frame   0x000026b8       0x2c c:/program files/microchip/xc32/v2.40/bin/bin/../../lib/gcc/pic32c/6.2.1/../../../../pic32c/lib\libg_nano.a(lib_a-writer.o)
 .debug_frame   0x000026e4       0x2c c:/program files/microchip/xc32/v2.40/bin/bin/../../lib/gcc/pic32c/6.2.1/../../../../pic32c/lib\libg_nano.a(lib_a-closer.o)
 .debug_frame   0x00002710       0x2c c:/program files/microchip/xc32/v2.40/bin/bin/../../lib/gcc/pic32c/6.2.1/../../../../pic32c/lib\libg_nano.a(lib_a-fstatr.o)
 .debug_frame   0x0000273c       0x2c c:/program files/microchip/xc32/v2.40/bin/bin/../../lib/gcc/pic32c/6.2.1/../../../../pic32c/lib\libg_nano.a(lib_a-isattyr.o)
 .debug_frame   0x00002768       0x2c c:/program files/microchip/xc32/v2.40/bin/bin/../../lib/gcc/pic32c/6.2.1/../../../../pic32c/lib\libg_nano.a(lib_a-lseekr.o)
 .debug_frame   0x00002794       0x30 c:/program files/microchip/xc32/v2.40/bin/bin/../../lib/gcc/pic32c/6.2.1/../../../../pic32c/lib\libg_nano.a(lib_a-mlock.o)
 .debug_frame   0x000027c4       0x2c c:/program files/microchip/xc32/v2.40/bin/bin/../../lib/gcc/pic32c/6.2.1/../../../../pic32c/lib\libg_nano.a(lib_a-readr.o)
 .debug_frame   0x000027f0       0x48 c:/program files/microchip/xc32/v2.40/bin/bin/../../lib/gcc/pic32c/6.2.1/../../../../pic32c/lib\libg_nano.a(lib_a-reent.o)
 .debug_frame   0x00002838       0x28 c:/program files/microchip/xc32/v2.40/bin/bin/../../lib/gcc/pic32c/6.2.1/../../../../pic32c/lib\libpic32c.a(_close.o)
 .debug_frame   0x00002860       0x28 c:/program files/microchip/xc32/v2.40/bin/bin/../../lib/gcc/pic32c/6.2.1/../../../../pic32c/lib\libpic32c.a(_fstat.o)
 .debug_frame   0x00002888       0x28 c:/program files/microchip/xc32/v2.40/bin/bin/../../lib/gcc/pic32c/6.2.1/../../../../pic32c/lib\libpic32c.a(_isatty.o)
 .debug_frame   0x000028b0       0x28 c:/program files/microchip/xc32/v2.40/bin/bin/../../lib/gcc/pic32c/6.2.1/../../../../pic32c/lib\libpic32c.a(_lseek.o)
 .debug_frame   0x000028d8       0x28 c:/program files/microchip/xc32/v2.40/bin/bin/../../lib/gcc/pic32c/6.2.1/../../../../pic32c/lib\libpic32c.a(_read.o)
 .debug_frame   0x00002900       0x20 c:/program files/microchip/xc32/v2.40/bin/bin/../../lib/gcc/pic32c/6.2.1/../../../../pic32c/lib\libpic32c.a(sbrk.o)
 .debug_frame   0x00002920       0x28 c:/program files/microchip/xc32/v2.40/bin/bin/../../lib/gcc/pic32c/6.2.1/../../../../pic32c/lib\libpic32c.a(_write.o)
 .debug_frame   0x00002948       0x20 c:/program files/microchip/xc32/v2.40/bin/bin/../../lib/gcc/pic32c/6.2.1/../../../../pic32c/lib\libpic32c.a(close.o)
 .debug_frame   0x00002968       0x20 c:/program files/microchip/xc32/v2.40/bin/bin/../../lib/gcc/pic32c/6.2.1/../../../../pic32c/lib\libpic32c.a(fstat.o)
 .debug_frame   0x00002988       0x20 c:/program files/microchip/xc32/v2.40/bin/bin/../../lib/gcc/pic32c/6.2.1/../../../../pic32c/lib\libpic32c.a(isatty.o)
 .debug_frame   0x000029a8       0x20 c:/program files/microchip/xc32/v2.40/bin/bin/../../lib/gcc/pic32c/6.2.1/../../../../pic32c/lib\libpic32c.a(lseek.o)

.stack          0x20002360      0x100
 .stack         0x20002360      0x100 stack

.bss.can0RxMsg%1
                0x2000168c      0x190
 .bss.can0RxMsg
                0x2000168c      0x190 build/sam_c21n_xpro/debug/_ext/1617702135/plib_can0.o

.data.__global_locale%2
                0x2000181c      0x16c
 .data.__global_locale
                0x2000181c      0x16c c:/program files/microchip/xc32/v2.40/bin/bin/../../lib/gcc/pic32c/6.2.1/../../../../pic32c/lib\libg_nano.a(lib_a-locale.o)
                0x2000181c                __global_locale

.bss.eicCallbackObject%3
                0x20001988       0xc0
 .bss.eicCallbackObject
                0x20001988       0xc0 build/sam_c21n_xpro/debug/_ext/1617704294/plib_eic.o

.bss.iot%4      0x20001a48       0x9c
 .bss.iot       0x20001a48       0x9c build/sam_c21n_xpro/debug/_ext/1360937237/appiot.o

.bss.drvSPI0TransferObjPool%5
                0x20001ae4       0x90
 .bss.drvSPI0TransferObjPool
                0x20001ae4       0x90 build/sam_c21n_xpro/debug/_ext/1758384875/initialization.o

.bss._eeprom_instance%6
                0x20001b74       0x8c
 .bss._eeprom_instance
                0x20001b74       0x8c build/sam_c21n_xpro/debug/_ext/1019481632/emulated_eeprom.o

.bss.SERCOM1_USART_ReadBuffer%7
                0x20001c00       0x80
 .bss.SERCOM1_USART_ReadBuffer
                0x20001c00       0x80 build/sam_c21n_xpro/debug/_ext/1993392304/plib_sercom1_usart.o

.bss.SERCOM1_USART_WriteBuffer%8
                0x20001c80       0x80
 .bss.SERCOM1_USART_WriteBuffer
                0x20001c80       0x80 build/sam_c21n_xpro/debug/_ext/1993392304/plib_sercom1_usart.o

.bss.SERCOM3_USART_ReadBuffer%9
                0x20001d00       0x80
 .bss.SERCOM3_USART_ReadBuffer
                0x20001d00       0x80 build/sam_c21n_xpro/debug/_ext/1993392304/plib_sercom3_usart.o

.bss.SERCOM3_USART_WriteBuffer%10
                0x20001d80       0x80
 .bss.SERCOM3_USART_WriteBuffer
                0x20001d80       0x80 build/sam_c21n_xpro/debug/_ext/1993392304/plib_sercom3_usart.o

.data.impure_data%11
                0x20001e00       0x60
 .data.impure_data
                0x20001e00       0x60 c:/program files/microchip/xc32/v2.40/bin/bin/../../lib/gcc/pic32c/6.2.1/../../../../pic32c/lib\libg_nano.a(lib_a-impure.o)

.bss.gDrvSPIObj%12
                0x20001e60       0x54
 .bss.gDrvSPIObj
                0x20001e60       0x54 build/sam_c21n_xpro/debug/_ext/513394604/drv_spi.o

.bss.gDrvAT24Obj%13
                0x20001eb4       0x50
 .bss.gDrvAT24Obj
                0x20001eb4       0x50 build/sam_c21n_xpro/debug/_ext/1936826263/drv_at24.o

.bss.gDrvUSARTObj%14
                0x20001f04       0x40
 .bss.gDrvUSARTObj
                0x20001f04       0x40 build/sam_c21n_xpro/debug/_ext/1274584173/drv_usart.o

.bss.sercom1USARTObj%15
                0x20001f44       0x40
 .bss.sercom1USARTObj
                0x20001f44       0x40 build/sam_c21n_xpro/debug/_ext/1993392304/plib_sercom1_usart.o

.bss.sercom3USARTObj%16
                0x20001f84       0x40
 .bss.sercom3USARTObj
                0x20001f84       0x40 build/sam_c21n_xpro/debug/_ext/1993392304/plib_sercom3_usart.o

.bss.MeterMqttData%17
                0x20001fc4       0x2c
 .bss.MeterMqttData
                0x20001fc4       0x2c build/sam_c21n_xpro/debug/_ext/1360937237/appemueeprom.o
                0x20001fc4                MeterMqttData

.bss.sercom2I2CObj%18
                0x20001ff0       0x2c
 .bss.sercom2I2CObj
                0x20001ff0       0x2c build/sam_c21n_xpro/debug/_ext/1451668420/plib_sercom2_i2c_master.o

.bss.sercom0SPIObj%19
                0x2000201c       0x2c
 .bss.sercom0SPIObj
                0x2000201c       0x2c build/sam_c21n_xpro/debug/_ext/1942903062/plib_sercom0_spi_master.o

.bss.can0Obj%20
                0x20002048       0x28
 .bss.can0Obj   0x20002048       0x28 build/sam_c21n_xpro/debug/_ext/1617702135/plib_can0.o

.bss.drvSPI0ClientObjPool%21
                0x20002070       0x28
 .bss.drvSPI0ClientObjPool
                0x20002070       0x28 build/sam_c21n_xpro/debug/_ext/1758384875/initialization.o

.bss.can0CallbackObj%22
                0x20002098       0x20
 .bss.can0CallbackObj
                0x20002098       0x20 build/sam_c21n_xpro/debug/_ext/1617702135/plib_can0.o

.bss%23         0x200020b8       0x1c
 .bss           0x200020b8       0x1c c:/program files/microchip/xc32/v2.40/bin/bin/../../lib/gcc/pic32c/6.2.1/crtbegin.o

.bss.drvUSART0ClientObjPool%24
                0x200020d4       0x10
 .bss.drvUSART0ClientObjPool
                0x200020d4       0x10 build/sam_c21n_xpro/debug/_ext/1758384875/initialization.o

.bss.systick%25
                0x200020e4        0xc
 .bss.systick   0x200020e4        0xc build/sam_c21n_xpro/debug/_ext/1004774289/plib_systick.o

.bss.consoleDeviceInstance%26
                0x200020f0        0xc
 .bss.consoleDeviceInstance
                0x200020f0        0xc build/sam_c21n_xpro/debug/_ext/1639364742/sys_console.o

.bss.gConsoleUartData%27
                0x200020fc        0x8
 .bss.gConsoleUartData
                0x200020fc        0x8 build/sam_c21n_xpro/debug/_ext/1639364742/sys_console_uart.o

.bss.ODOVALUE%28
                0x20002104        0x4
 .bss.ODOVALUE  0x20002104        0x4 build/sam_c21n_xpro/debug/_ext/1360937237/canapp.o

.bss.ODO_PRE%29
                0x20002108        0x4
 .bss.ODO_PRE   0x20002108        0x4 build/sam_c21n_xpro/debug/_ext/1360937237/canapp.o

.bss._f_ODOVALUE%30
                0x2000210c        0x4
 .bss._f_ODOVALUE
                0x2000210c        0x4 build/sam_c21n_xpro/debug/_ext/1360937237/canapp.o
                0x2000210c                _f_ODOVALUE

.bss.canbussleeptimer%31
                0x20002110        0x4
 .bss.canbussleeptimer
                0x20002110        0x4 build/sam_c21n_xpro/debug/_ext/1360937237/canapp.o
                0x20002110                canbussleeptimer

.bss.messageID%32
                0x20002114        0x4
 .bss.messageID
                0x20002114        0x4 build/sam_c21n_xpro/debug/_ext/1360937237/canapp.o
                0x20002114                messageID

.bss.rx_messageID%33
                0x20002118        0x4
 .bss.rx_messageID
                0x20002118        0x4 build/sam_c21n_xpro/debug/_ext/1360937237/canapp.o
                0x20002118                rx_messageID

.bss.nBytesRead%34
                0x2000211c        0x4
 .bss.nBytesRead
                0x2000211c        0x4 build/sam_c21n_xpro/debug/_ext/1360937237/appuart.o
                0x2000211c                nBytesRead

.bss.sysDebugInstance%35
                0x20002120        0x4
 .bss.sysDebugInstance
                0x20002120        0x4 build/sam_c21n_xpro/debug/_ext/1205691902/sys_debug.o

.data._impure_ptr%36
                0x20002124        0x4
 .data._impure_ptr
                0x20002124        0x4 c:/program files/microchip/xc32/v2.40/bin/bin/../../lib/gcc/pic32c/6.2.1/../../../../pic32c/lib\libg_nano.a(lib_a-impure.o)
                0x20002124                _impure_ptr

.bss.__malloc_free_list%37
                0x20002128        0x4
 .bss.__malloc_free_list
                0x20002128        0x4 c:/program files/microchip/xc32/v2.40/bin/bin/../../lib/gcc/pic32c/6.2.1/../../../../pic32c/lib\libg_nano.a(lib_a-nano-mallocr.o)
                0x20002128                __malloc_free_list

.bss.__malloc_sbrk_start%38
                0x2000212c        0x4
 .bss.__malloc_sbrk_start
                0x2000212c        0x4 c:/program files/microchip/xc32/v2.40/bin/bin/../../lib/gcc/pic32c/6.2.1/../../../../pic32c/lib\libg_nano.a(lib_a-nano-mallocr.o)
                0x2000212c                __malloc_sbrk_start

.bss%39         0x20002130        0x4
 .bss           0x20002130        0x4 c:/program files/microchip/xc32/v2.40/bin/bin/../../lib/gcc/pic32c/6.2.1/../../../../pic32c/lib\libpic32c.a(sbrk.o)

.bss.STATUS_RX_COMPLETED%40
                0x20002134        0x1
 .bss.STATUS_RX_COMPLETED
                0x20002134        0x1 build/sam_c21n_xpro/debug/_ext/1360937237/canapp.o
                0x20002134                STATUS_RX_COMPLETED

.bss._canstate%41
                0x20002135        0x1
 .bss._canstate
                0x20002135        0x1 build/sam_c21n_xpro/debug/_ext/1360937237/canapp.o

.bss._canstatenew%42
                0x20002136        0x1
 .bss._canstatenew
                0x20002136        0x1 build/sam_c21n_xpro/debug/_ext/1360937237/canapp.o

.bss.msgFrameAttr%43
                0x20002137        0x1
 .bss.msgFrameAttr
                0x20002137        0x1 build/sam_c21n_xpro/debug/_ext/1360937237/canapp.o

.bss.odocnt%44  0x20002138        0x1
 .bss.odocnt    0x20002138        0x1 build/sam_c21n_xpro/debug/_ext/1360937237/canapp.o

.bss.rx_messageLength%45
                0x20002139        0x1
 .bss.rx_messageLength
                0x20002139        0x1 build/sam_c21n_xpro/debug/_ext/1360937237/canapp.o
                0x20002139                rx_messageLength

.data.STATUS_RX_PREPARE%46
                0x2000213a        0x1
 .data.STATUS_RX_PREPARE
                0x2000213a        0x1 build/sam_c21n_xpro/debug/_ext/1360937237/canapp.o
                0x2000213a                STATUS_RX_PREPARE

.bss.atcomdindex%47
                0x2000213b        0x1
 .bss.atcomdindex
                0x2000213b        0x1 build/sam_c21n_xpro/debug/_ext/1360937237/appuart.o
                0x2000213b                atcomdindex

.bss.txThresholdEventReceived%48
                0x2000213c        0x1
 .bss.txThresholdEventReceived
                0x2000213c        0x1 build/sam_c21n_xpro/debug/_ext/1360937237/appuart.o
                0x2000213c                txThresholdEventReceived

.bss.uarttxbufferindex%49
                0x2000213d        0x1
 .bss.uarttxbufferindex
                0x2000213d        0x1 build/sam_c21n_xpro/debug/_ext/1360937237/appuart.o
                0x2000213d                uarttxbufferindex

.bss.isLastByteTransferInProgress.5664%50
                0x2000213e        0x1
 .bss.isLastByteTransferInProgress.5664
                0x2000213e        0x1 build/sam_c21n_xpro/debug/_ext/1942903062/plib_sercom0_spi_master.o

.bss.consolePrintBufferMutex%51
                0x2000213f        0x1
 .bss.consolePrintBufferMutex
                0x2000213f        0x1 build/sam_c21n_xpro/debug/_ext/1639364742/sys_console.o

.bss.isConsoleMutexCreated%52
                0x20002140        0x1
 .bss.isConsoleMutexCreated
                0x20002140        0x1 build/sam_c21n_xpro/debug/_ext/1639364742/sys_console.o

.eh_frame%z1    0x00000000        0x0
 .eh_frame      0x00000000        0x0 c:/program files/microchip/xc32/v2.40/bin/bin/../../lib/gcc/pic32c/6.2.1/crtbegin.o

.dinit%53       0x000000e4      0x4c0
 .dinit         0x000000e4      0x4c0 data_init

.text._vfprintf_r_cdnopuxX%54
                0x000005a4      0x3dc
 .text._vfprintf_r_cdnopuxX
                0x000005a4      0x3dc c:/program files/microchip/xc32/v2.40/bin/bin/../../lib/gcc/pic32c/6.2.1/../../../../pic32c/lib\libg_nano.a(_lib_a-nano-vfprintf.cdnopuxX.o)
                0x000005a4                _vfprintf_r_cdnopuxX

.text.CAN0_InterruptHandler%55
                0x00000980      0x27c
 .text.CAN0_InterruptHandler
                0x00000980      0x27c build/sam_c21n_xpro/debug/_ext/1617702135/plib_can0.o
                0x00000980                CAN0_InterruptHandler

.text.SERCOM1_USART_InterruptHandler%56
                0x00000bfc      0x21c
 .text.SERCOM1_USART_InterruptHandler
                0x00000bfc      0x21c build/sam_c21n_xpro/debug/_ext/1993392304/plib_sercom1_usart.o
                0x00000bfc                SERCOM1_USART_InterruptHandler

.text.SERCOM3_USART_InterruptHandler%57
                0x00000e18      0x21c
 .text.SERCOM3_USART_InterruptHandler
                0x00000e18      0x21c build/sam_c21n_xpro/debug/_ext/1993392304/plib_sercom3_usart.o
                0x00000e18                SERCOM3_USART_InterruptHandler

.text%58        0x00001034      0x1c0
 .text          0x00001034      0x1c0 c:/program files/microchip/xc32/v2.40/bin/bin/../../lib/gcc/pic32c/6.2.1\libgcc.a(divsf3.o)
                0x00001034                __aeabi_fdiv

.text.SERCOM2_I2C_InterruptHandler%59
                0x000011f4      0x1b0
 .text.SERCOM2_I2C_InterruptHandler
                0x000011f4      0x1b0 build/sam_c21n_xpro/debug/_ext/1451668420/plib_sercom2_i2c_master.o
                0x000011f4                SERCOM2_I2C_InterruptHandler

.rodata%60      0x000013a4      0x190
 .rodata        0x000013a4      0x190 build/sam_c21n_xpro/debug/_ext/1360937237/canapp.o

.text.SERCOM0_SPI_InterruptHandler%61
                0x00001534      0x16c
 .text.SERCOM0_SPI_InterruptHandler
                0x00001534      0x16c build/sam_c21n_xpro/debug/_ext/1942903062/plib_sercom0_spi_master.o
                0x00001534                SERCOM0_SPI_InterruptHandler

.text.SERCOM0_SPI_WriteRead%62
                0x000016a0      0x140
 .text.SERCOM0_SPI_WriteRead
                0x000016a0      0x140 build/sam_c21n_xpro/debug/_ext/1942903062/plib_sercom0_spi_master.o
                0x000016a0                SERCOM0_SPI_WriteRead

.text.SERCOM1_USART_SerialSetup%63
                0x000017e0      0x138
 .text.SERCOM1_USART_SerialSetup
                0x000017e0      0x138 build/sam_c21n_xpro/debug/_ext/1993392304/plib_sercom1_usart.o
                0x000017e0                SERCOM1_USART_SerialSetup

.text.__sflush_r%64
                0x00001918      0x114
 .text.__sflush_r
                0x00001918      0x114 c:/program files/microchip/xc32/v2.40/bin/bin/../../lib/gcc/pic32c/6.2.1/../../../../pic32c/lib\libg_nano.a(lib_a-fflush.o)
                0x00001918                __sflush_r

.text.EMU_EEPROM_PageMappingUpdate%65
                0x00001a2c      0x110
 .text.EMU_EEPROM_PageMappingUpdate
                0x00001a2c      0x110 build/sam_c21n_xpro/debug/_ext/1019481632/emulated_eeprom.o

.rodata%66      0x00001b3c      0x10c
 .rodata        0x00001b3c      0x10c build/sam_c21n_xpro/debug/_ext/513394604/drv_spi.o

.text.SERCOM1_USART_Write%67
                0x00001c48      0x10c
 .text.SERCOM1_USART_Write
                0x00001c48      0x10c build/sam_c21n_xpro/debug/_ext/1993392304/plib_sercom1_usart.o
                0x00001c48                SERCOM1_USART_Write

.text.SERCOM3_USART_Write%68
                0x00001d54      0x10c
 .text.SERCOM3_USART_Write
                0x00001d54      0x10c build/sam_c21n_xpro/debug/_ext/1993392304/plib_sercom3_usart.o
                0x00001d54                SERCOM3_USART_Write

.rodata._ctype_%69
                0x00001e60      0x101
 .rodata._ctype_
                0x00001e60      0x101 c:/program files/microchip/xc32/v2.40/bin/bin/../../lib/gcc/pic32c/6.2.1/../../../../pic32c/lib\libg_nano.a(lib_a-ctype_.o)
                0x00001e60                _ctype_

.text.CLOCK_Initialize%70
                0x00001f64      0x100
 .text.CLOCK_Initialize
                0x00001f64      0x100 build/sam_c21n_xpro/debug/_ext/166077579/plib_clock.o
                0x00001f64                CLOCK_Initialize

.text._DRV_SPI_PlibCallbackHandler%71
                0x00002064       0xf0
 .text._DRV_SPI_PlibCallbackHandler
                0x00002064       0xf0 build/sam_c21n_xpro/debug/_ext/513394604/drv_spi.o

.text.__swsetup_r%72
                0x00002154       0xec
 .text.__swsetup_r
                0x00002154       0xec c:/program files/microchip/xc32/v2.40/bin/bin/../../lib/gcc/pic32c/6.2.1/../../../../pic32c/lib\libg_nano.a(lib_a-wsetup.o)
                0x00002154                __swsetup_r

.text.CAN0_MessageRAMConfigSet%73
                0x00002240       0xe8
 .text.CAN0_MessageRAMConfigSet
                0x00002240       0xe8 build/sam_c21n_xpro/debug/_ext/1617702135/plib_can0.o
                0x00002240                CAN0_MessageRAMConfigSet

.text%74        0x00002328       0xe2
 .text          0x00002328       0xe2 c:/program files/microchip/xc32/v2.40/bin/bin/../../lib/gcc/pic32c/6.2.1\libgcc.a(_udivmoddi4.o)
                0x00002328                __udivmoddi4

.text._printf_common%75
                0x0000240a       0xda
 .text._printf_common
                0x0000240a       0xda c:/program files/microchip/xc32/v2.40/bin/bin/../../lib/gcc/pic32c/6.2.1/../../../../pic32c/lib\libg_nano.a(lib_a-nano-vfprintf_i.o)
                0x0000240a                _printf_common

.text._DRV_AT24_Write%76
                0x000024e4       0xd8
 .text._DRV_AT24_Write
                0x000024e4       0xd8 build/sam_c21n_xpro/debug/_ext/1936826263/drv_at24.o

.text.__swbuf_r%77
                0x000025bc       0xcc
 .text.__swbuf_r
                0x000025bc       0xcc c:/program files/microchip/xc32/v2.40/bin/bin/../../lib/gcc/pic32c/6.2.1/../../../../pic32c/lib\libg_nano.a(lib_a-wbuf.o)
                0x000025bc                __swbuf_r

.text._I2CEventHandler%78
                0x00002688       0xbc
 .text._I2CEventHandler
                0x00002688       0xbc build/sam_c21n_xpro/debug/_ext/1936826263/drv_at24.o

.text._malloc_r%79
                0x00002744       0xbc
 .text._malloc_r
                0x00002744       0xbc c:/program files/microchip/xc32/v2.40/bin/bin/../../lib/gcc/pic32c/6.2.1/../../../../pic32c/lib\libg_nano.a(lib_a-nano-mallocr.o)
                0x00002744                _malloc_r

.text.DRV_SPI_Initialize%80
                0x00002800       0xb8
 .text.DRV_SPI_Initialize
                0x00002800       0xb8 build/sam_c21n_xpro/debug/_ext/513394604/drv_spi.o
                0x00002800                DRV_SPI_Initialize

.text.PORT_Initialize%81
                0x000028b8       0xa4
 .text.PORT_Initialize
                0x000028b8       0xa4 build/sam_c21n_xpro/debug/_ext/1390440390/plib_port.o
                0x000028b8                PORT_Initialize

.text._DRV_SPI_UpdateTransferSetupAndAssertCS%82
                0x0000295c       0xa0
 .text._DRV_SPI_UpdateTransferSetupAndAssertCS
                0x0000295c       0xa0 build/sam_c21n_xpro/debug/_ext/513394604/drv_spi.o

.text.CAN0_MessageReceive%83
                0x000029fc       0xa0
 .text.CAN0_MessageReceive
                0x000029fc       0xa0 build/sam_c21n_xpro/debug/_ext/1617702135/plib_can0.o
                0x000029fc                CAN0_MessageReceive

.text.DRV_USART_Initialize%84
                0x00002a9c       0x9c
 .text.DRV_USART_Initialize
                0x00002a9c       0x9c build/sam_c21n_xpro/debug/_ext/1274584173/drv_usart.o
                0x00002a9c                DRV_USART_Initialize

.text.SYS_Initialize%85
                0x00002b38       0x9c
 .text.SYS_Initialize
                0x00002b38       0x9c build/sam_c21n_xpro/debug/_ext/1758384875/initialization.o
                0x00002b38                SYS_Initialize

.text.SERCOM1_USART_Read%86
                0x00002bd4       0x94
 .text.SERCOM1_USART_Read
                0x00002bd4       0x94 build/sam_c21n_xpro/debug/_ext/1993392304/plib_sercom1_usart.o
                0x00002bd4                SERCOM1_USART_Read

.text.SERCOM3_USART_Read%87
                0x00002c68       0x94
 .text.SERCOM3_USART_Read
                0x00002c68       0x94 build/sam_c21n_xpro/debug/_ext/1993392304/plib_sercom3_usart.o
                0x00002c68                SERCOM3_USART_Read

.text._free_r%88
                0x00002cfc       0x94
 .text._free_r  0x00002cfc       0x94 c:/program files/microchip/xc32/v2.40/bin/bin/../../lib/gcc/pic32c/6.2.1/../../../../pic32c/lib\libg_nano.a(lib_a-nano-freer.o)
                0x00002cfc                _free_r

.text.SERCOM0_SPI_TransferSetup%89
                0x00002d90       0x90
 .text.SERCOM0_SPI_TransferSetup
                0x00002d90       0x90 build/sam_c21n_xpro/debug/_ext/1942903062/plib_sercom0_spi_master.o
                0x00002d90                SERCOM0_SPI_TransferSetup

.text.__pic32c_data_initialization%90
                0x00002e20       0x90
 .text.__pic32c_data_initialization
                0x00002e20       0x90 c:/program files/microchip/xc32/v2.40/bin/bin/../../lib/gcc/pic32c/6.2.1/../../../../pic32c/lib\libpic32c.a(data_init.o)
                0x00002e20                __pic32c_data_initialization

.text.NVIC_Initialize%91
                0x00002eb0       0x8c
 .text.NVIC_Initialize
                0x00002eb0       0x8c build/sam_c21n_xpro/debug/_ext/1390493541/plib_nvic.o
                0x00002eb0                NVIC_Initialize

.text%92        0x00002f3c       0x8c
 .text          0x00002f3c       0x8c c:/program files/microchip/xc32/v2.40/bin/bin/../../lib/gcc/pic32c/6.2.1\libgcc.a(_udivsi3.o)
                0x00002f3c                __aeabi_uidiv
                0x00002f3c                __udivsi3
                0x00002fb4                __aeabi_uidivmod

.text.SERCOM1_USART_Initialize%93
                0x00002fc8       0x88
 .text.SERCOM1_USART_Initialize
                0x00002fc8       0x88 build/sam_c21n_xpro/debug/_ext/1993392304/plib_sercom1_usart.o
                0x00002fc8                SERCOM1_USART_Initialize

.text.SERCOM3_USART_Initialize%94
                0x00003050       0x88
 .text.SERCOM3_USART_Initialize
                0x00003050       0x88 build/sam_c21n_xpro/debug/_ext/1993392304/plib_sercom3_usart.o
                0x00003050                SERCOM3_USART_Initialize

.text.CAN0_Initialize%95
                0x000030d8       0x84
 .text.CAN0_Initialize
                0x000030d8       0x84 build/sam_c21n_xpro/debug/_ext/1617702135/plib_can0.o
                0x000030d8                CAN0_Initialize

.text.__sfp%96  0x0000315c       0x80
 .text.__sfp    0x0000315c       0x80 c:/program files/microchip/xc32/v2.40/bin/bin/../../lib/gcc/pic32c/6.2.1/../../../../pic32c/lib\libg_nano.a(lib_a-findfp.o)
                0x0000315c                __sfp

.text.EIC_Initialize%97
                0x000031dc       0x7c
 .text.EIC_Initialize
                0x000031dc       0x7c build/sam_c21n_xpro/debug/_ext/1617704294/plib_eic.o
                0x000031dc                EIC_Initialize

.text.__fputwc%98
                0x00003258       0x7c
 .text.__fputwc
                0x00003258       0x7c c:/program files/microchip/xc32/v2.40/bin/bin/../../lib/gcc/pic32c/6.2.1/../../../../pic32c/lib\libg_nano.a(lib_a-fputwc.o)
                0x00003258                __fputwc

.text.__smakebuf_r%99
                0x000032d4       0x7c
 .text.__smakebuf_r
                0x000032d4       0x7c c:/program files/microchip/xc32/v2.40/bin/bin/../../lib/gcc/pic32c/6.2.1/../../../../pic32c/lib\libg_nano.a(lib_a-makebuf.o)
                0x000032d4                __smakebuf_r

.text.timer_main%100
                0x00003350       0x78
 .text.timer_main
                0x00003350       0x78 build/sam_c21n_xpro/debug/_ext/1360937237/apptimer.o
                0x00003350                timer_main

.text.main%101  0x000033c8       0x74
 .text.main     0x000033c8       0x74 build/sam_c21n_xpro/debug/_ext/1360937237/main.o
                0x000033c8                main

.text%102       0x0000343c       0x74
 .text          0x0000343c       0x74 c:/program files/microchip/xc32/v2.40/bin/bin/../../lib/gcc/pic32c/6.2.1\libgcc.a(floatunsisf.o)
                0x0000343c                __aeabi_ui2f

.text.EMU_EEPROM_Initialize%103
                0x000034b0       0x68
 .text.EMU_EEPROM_Initialize
                0x000034b0       0x68 build/sam_c21n_xpro/debug/_ext/1019481632/emulated_eeprom.o
                0x000034b0                EMU_EEPROM_Initialize

.text.__sinit%104
                0x00003518       0x68
 .text.__sinit  0x00003518       0x68 c:/program files/microchip/xc32/v2.40/bin/bin/../../lib/gcc/pic32c/6.2.1/../../../../pic32c/lib\libg_nano.a(lib_a-findfp.o)
                0x00003518                __sinit

.text.SERCOM2_I2C_Initialize%105
                0x00003580       0x60
 .text.SERCOM2_I2C_Initialize
                0x00003580       0x60 build/sam_c21n_xpro/debug/_ext/1451668420/plib_sercom2_i2c_master.o
                0x00003580                SERCOM2_I2C_Initialize

.text.can_init%106
                0x000035e0       0x5c
 .text.can_init
                0x000035e0       0x5c build/sam_c21n_xpro/debug/_ext/1360937237/canapp.o
                0x000035e0                can_init

.text.DRV_AT24_Initialize%107
                0x0000363c       0x5c
 .text.DRV_AT24_Initialize
                0x0000363c       0x5c build/sam_c21n_xpro/debug/_ext/1936826263/drv_at24.o
                0x0000363c                DRV_AT24_Initialize

.text.SYS_CONSOLE_Initialize%108
                0x00003698       0x5c
 .text.SYS_CONSOLE_Initialize
                0x00003698       0x5c build/sam_c21n_xpro/debug/_ext/1639364742/sys_console.o
                0x00003698                SYS_CONSOLE_Initialize

.text.moden_main%109
                0x000036f4       0x58
 .text.moden_main
                0x000036f4       0x58 build/sam_c21n_xpro/debug/_ext/1360937237/moden.o
                0x000036f4                moden_main

.text._fflush_r%110
                0x0000374c       0x58
 .text._fflush_r
                0x0000374c       0x58 c:/program files/microchip/xc32/v2.40/bin/bin/../../lib/gcc/pic32c/6.2.1/../../../../pic32c/lib\libg_nano.a(lib_a-fflush.o)
                0x0000374c                _fflush_r

.text.can_main%111
                0x000037a4       0x54
 .text.can_main
                0x000037a4       0x54 build/sam_c21n_xpro/debug/_ext/1360937237/canapp.o
                0x000037a4                can_main

.text.SERCOM2_I2C_InitiateTransfer%112
                0x000037f8       0x54
 .text.SERCOM2_I2C_InitiateTransfer
                0x000037f8       0x54 build/sam_c21n_xpro/debug/_ext/1451668420/plib_sercom2_i2c_master.o

.text.ReadMotoID%113
                0x0000384c       0x50
 .text.ReadMotoID
                0x0000384c       0x50 build/sam_c21n_xpro/debug/_ext/1360937237/canapp.o
                0x0000384c                ReadMotoID

.text._DRV_USART_RX_PLIB_CallbackHandler%114
                0x0000389c       0x50
 .text._DRV_USART_RX_PLIB_CallbackHandler
                0x0000389c       0x50 build/sam_c21n_xpro/debug/_ext/1274584173/drv_usart.o

.text.EMU_EEPROM_IsValidVersionStrExists%115
                0x000038ec       0x50
 .text.EMU_EEPROM_IsValidVersionStrExists
                0x000038ec       0x50 build/sam_c21n_xpro/debug/_ext/1019481632/emulated_eeprom.o

.text.ADC0_Initialize%116
                0x0000393c       0x50
 .text.ADC0_Initialize
                0x0000393c       0x50 build/sam_c21n_xpro/debug/_ext/1617700295/plib_adc0.o
                0x0000393c                ADC0_Initialize

.text.__swhatbuf_r%117
                0x0000398c       0x50
 .text.__swhatbuf_r
                0x0000398c       0x50 c:/program files/microchip/xc32/v2.40/bin/bin/../../lib/gcc/pic32c/6.2.1/../../../../pic32c/lib\libg_nano.a(lib_a-makebuf.o)
                0x0000398c                __swhatbuf_r

.text._wcrtomb_r%118
                0x000039dc       0x4c
 .text._wcrtomb_r
                0x000039dc       0x4c c:/program files/microchip/xc32/v2.40/bin/bin/../../lib/gcc/pic32c/6.2.1/../../../../pic32c/lib\libg_nano.a(lib_a-wcrtomb.o)
                0x000039dc                _wcrtomb_r

.text%119       0x00003a28       0x48
 .text          0x00003a28       0x48 c:/program files/microchip/xc32/v2.40/bin/bin/../../lib/gcc/pic32c/6.2.1/crtbegin.o

.text.APP_CAN_RX_Callback%120
                0x00003a70       0x48
 .text.APP_CAN_RX_Callback
                0x00003a70       0x48 build/sam_c21n_xpro/debug/_ext/1360937237/canapp.o
                0x00003a70                APP_CAN_RX_Callback

.text.calculateODO%121
                0x00003ab8       0x48
 .text.calculateODO
                0x00003ab8       0x48 build/sam_c21n_xpro/debug/_ext/1360937237/canapp.o
                0x00003ab8                calculateODO

.text.EIC_InterruptHandler%122
                0x00003b00       0x48
 .text.EIC_InterruptHandler
                0x00003b00       0x48 build/sam_c21n_xpro/debug/_ext/1617704294/plib_eic.o
                0x00003b00                EIC_InterruptHandler

.text.Reset_Handler%123
                0x00003b48       0x48
 .text.Reset_Handler
                0x00003b48       0x48 build/sam_c21n_xpro/debug/_ext/1758384875/startup_xc32.o
                0x00003b48                Reset_Handler

.text.__libc_init_array%124
                0x00003b90       0x48
 .text.__libc_init_array
                0x00003b90       0x48 c:/program files/microchip/xc32/v2.40/bin/bin/../../lib/gcc/pic32c/6.2.1/../../../../pic32c/lib\libg_nano.a(lib_a-init.o)
                0x00003b90                __libc_init_array

.text.__ssfputs_r%125
                0x00003bd8       0x48
 .text.__ssfputs_r
                0x00003bd8       0x48 c:/program files/microchip/xc32/v2.40/bin/bin/../../lib/gcc/pic32c/6.2.1/../../../../pic32c/lib\libg_nano.a(lib_a-__ssfputs.o)
                0x00003bd8                __ssfputs_r

.text.std.isra.0%126
                0x00003c20       0x48
 .text.std.isra.0
                0x00003c20       0x48 c:/program files/microchip/xc32/v2.40/bin/bin/../../lib/gcc/pic32c/6.2.1/../../../../pic32c/lib\libg_nano.a(lib_a-findfp.o)

.text%127       0x00003c68       0x42
 .text          0x00003c68       0x42 c:/program files/microchip/xc32/v2.40/bin/bin/../../lib/gcc/pic32c/6.2.1\libgcc.a(_muldi3.o)
                0x00003c68                __muldi3
                0x00003c68                __aeabi_lmul

.text._fwalk_reent%128
                0x00003caa       0x42
 .text._fwalk_reent
                0x00003caa       0x42 c:/program files/microchip/xc32/v2.40/bin/bin/../../lib/gcc/pic32c/6.2.1/../../../../pic32c/lib\libg_nano.a(lib_a-fwalk.o)
                0x00003caa                _fwalk_reent

.text.timer_update%129
                0x00003cec       0x40
 .text.timer_update
                0x00003cec       0x40 build/sam_c21n_xpro/debug/_ext/1360937237/apptimer.o
                0x00003cec                timer_update

.text.SYSTICK_DelayMs%130
                0x00003d2c       0x40
 .text.SYSTICK_DelayMs
                0x00003d2c       0x40 build/sam_c21n_xpro/debug/_ext/1004774289/plib_systick.o
                0x00003d2c                SYSTICK_DelayMs

.text%131       0x00003d6c       0x40
 .text          0x00003d6c       0x40 c:/program files/microchip/xc32/v2.40/bin/bin/../../lib/gcc/pic32c/6.2.1\libgcc.a(_aeabi_uldivmod.o)
                0x00003d6c                __aeabi_uldivmod

.text._sprintf_cdnopuxX%132
                0x00003dac       0x40
 .text._sprintf_cdnopuxX
                0x00003dac       0x40 c:/program files/microchip/xc32/v2.40/bin/bin/../../lib/gcc/pic32c/6.2.1/../../../../pic32c/lib\libg_nano.a(_lib_a-sprintf.cdnopuxX.o)
                0x00003dac                __sprintf_u
                0x00003dac                _sprintf_cdnopuxX
                0x00003dac                __sprintf_oxX
                0x00003dac                __sprintf_di

.text.SERCOM0_SPI_Initialize%133
                0x00003dec       0x3c
 .text.SERCOM0_SPI_Initialize
                0x00003dec       0x3c build/sam_c21n_xpro/debug/_ext/1942903062/plib_sercom0_spi_master.o
                0x00003dec                SERCOM0_SPI_Initialize

.text%134       0x00003e28       0x3c
 .text          0x00003e28       0x3c c:/program files/microchip/xc32/v2.40/bin/bin/../../lib/gcc/pic32c/6.2.1\libgcc.a(_clzsi2.o)
                0x00003e28                __clzsi2

.text.init_iot%135
                0x00003e64       0x38
 .text.init_iot
                0x00003e64       0x38 build/sam_c21n_xpro/debug/_ext/1360937237/appiot.o
                0x00003e64                init_iot

.text.SERCOM2_I2C_Read%136
                0x00003e9c       0x38
 .text.SERCOM2_I2C_Read
                0x00003e9c       0x38 build/sam_c21n_xpro/debug/_ext/1451668420/plib_sercom2_i2c_master.o
                0x00003e9c                SERCOM2_I2C_Read

.text.SERCOM2_I2C_WriteRead%137
                0x00003ed4       0x38
 .text.SERCOM2_I2C_WriteRead
                0x00003ed4       0x38 build/sam_c21n_xpro/debug/_ext/1451668420/plib_sercom2_i2c_master.o
                0x00003ed4                SERCOM2_I2C_WriteRead

.text.Console_UART_Read%138
                0x00003f0c       0x38
 .text.Console_UART_Read
                0x00003f0c       0x38 build/sam_c21n_xpro/debug/_ext/1639364742/sys_console_uart.o
                0x00003f0c                Console_UART_Read

.text.Console_UART_Write%139
                0x00003f44       0x38
 .text.Console_UART_Write
                0x00003f44       0x38 build/sam_c21n_xpro/debug/_ext/1639364742/sys_console_uart.o
                0x00003f44                Console_UART_Write

.text.__swrite%140
                0x00003f7c       0x38
 .text.__swrite
                0x00003f7c       0x38 c:/program files/microchip/xc32/v2.40/bin/bin/../../lib/gcc/pic32c/6.2.1/../../../../pic32c/lib\libg_nano.a(lib_a-stdio.o)
                0x00003f7c                __swrite

.text.init_timer%141
                0x00003fb4       0x34
 .text.init_timer
                0x00003fb4       0x34 build/sam_c21n_xpro/debug/_ext/1360937237/apptimer.o
                0x00003fb4                init_timer

.text.SERCOM2_I2C_Write%142
                0x00003fe8       0x34
 .text.SERCOM2_I2C_Write
                0x00003fe8       0x34 build/sam_c21n_xpro/debug/_ext/1451668420/plib_sercom2_i2c_master.o
                0x00003fe8                SERCOM2_I2C_Write

.text.SYS_CONSOLE_Message%143
                0x0000401c       0x34
 .text.SYS_CONSOLE_Message
                0x0000401c       0x34 build/sam_c21n_xpro/debug/_ext/1639364742/sys_console.o
                0x0000401c                SYS_CONSOLE_Message

.rodata%144     0x00004050       0x33
 .rodata        0x00004050       0x33 c:/program files/microchip/xc32/v2.40/bin/bin/../../lib/gcc/pic32c/6.2.1/../../../../pic32c/lib\libg_nano.a(_lib_a-nano-vfprintf.cdnopuxX.o)

.text.init_moden%145
                0x00004084       0x30
 .text.init_moden
                0x00004084       0x30 build/sam_c21n_xpro/debug/_ext/1360937237/moden.o
                0x00004084                init_moden

.text.Console_UART_WriteCountGet%146
                0x000040b4       0x30
 .text.Console_UART_WriteCountGet
                0x000040b4       0x30 build/sam_c21n_xpro/debug/_ext/1639364742/sys_console_uart.o
                0x000040b4                Console_UART_WriteCountGet

.text.Console_UART_WriteFreeBufferCountGet%147
                0x000040e4       0x30
 .text.Console_UART_WriteFreeBufferCountGet
                0x000040e4       0x30 build/sam_c21n_xpro/debug/_ext/1639364742/sys_console_uart.o
                0x000040e4                Console_UART_WriteFreeBufferCountGet

.text.Console_UART_ReadFreeBufferCountGet%148
                0x00004114       0x30
 .text.Console_UART_ReadFreeBufferCountGet
                0x00004114       0x30 build/sam_c21n_xpro/debug/_ext/1639364742/sys_console_uart.o
                0x00004114                Console_UART_ReadFreeBufferCountGet

.text.Console_UART_ReadCountGet%149
                0x00004144       0x30
 .text.Console_UART_ReadCountGet
                0x00004144       0x30 build/sam_c21n_xpro/debug/_ext/1639364742/sys_console_uart.o
                0x00004144                Console_UART_ReadCountGet

.text._sbrk%150
                0x00004174       0x30
 .text._sbrk    0x00004174       0x30 c:/program files/microchip/xc32/v2.40/bin/bin/../../lib/gcc/pic32c/6.2.1/../../../../pic32c/lib\libpic32c.a(sbrk.o)
                0x00004174                _sbrk

.text.usartReadEventHandler%151
                0x000041a4       0x2c
 .text.usartReadEventHandler
                0x000041a4       0x2c build/sam_c21n_xpro/debug/_ext/1360937237/appuart.o
                0x000041a4                usartReadEventHandler

.text.appurat_init%152
                0x000041d0       0x2c
 .text.appurat_init
                0x000041d0       0x2c build/sam_c21n_xpro/debug/_ext/1360937237/appuart.o
                0x000041d0                appurat_init

.text.CAN0_ErrorGet%153
                0x000041fc       0x2c
 .text.CAN0_ErrorGet
                0x000041fc       0x2c build/sam_c21n_xpro/debug/_ext/1617702135/plib_can0.o
                0x000041fc                CAN0_ErrorGet

.rodata.drvUsart0PlibAPI%154
                0x00004228       0x2c
 .rodata.drvUsart0PlibAPI
                0x00004228       0x2c build/sam_c21n_xpro/debug/_ext/1758384875/initialization.o
                0x00004228                drvUsart0PlibAPI

.rodata.sysConsoleUARTDevDesc%155
                0x00004254       0x2c
 .rodata.sysConsoleUARTDevDesc
                0x00004254       0x2c build/sam_c21n_xpro/debug/_ext/1639364742/sys_console_uart.o
                0x00004254                sysConsoleUARTDevDesc

.text.__sfmoreglue%156
                0x00004280       0x2c
 .text.__sfmoreglue
                0x00004280       0x2c c:/program files/microchip/xc32/v2.40/bin/bin/../../lib/gcc/pic32c/6.2.1/../../../../pic32c/lib\libg_nano.a(lib_a-findfp.o)
                0x00004280                __sfmoreglue

.text.__sseek%157
                0x000042ac       0x2c
 .text.__sseek  0x000042ac       0x2c c:/program files/microchip/xc32/v2.40/bin/bin/../../lib/gcc/pic32c/6.2.1/../../../../pic32c/lib\libg_nano.a(lib_a-stdio.o)
                0x000042ac                __sseek

.text.__sfputc_r%158
                0x000042d8       0x2a
 .text.__sfputc_r
                0x000042d8       0x2a c:/program files/microchip/xc32/v2.40/bin/bin/../../lib/gcc/pic32c/6.2.1/../../../../pic32c/lib\libg_nano.a(lib_a-__ssfputs.o)

.text.ClearRxatcommandbuffer%159
                0x00004304       0x28
 .text.ClearRxatcommandbuffer
                0x00004304       0x28 build/sam_c21n_xpro/debug/_ext/1360937237/appuart.o
                0x00004304                ClearRxatcommandbuffer

.rodata.can0ExtFilter%160
                0x0000432c       0x28
 .rodata.can0ExtFilter
                0x0000432c       0x28 build/sam_c21n_xpro/debug/_ext/1617702135/plib_can0.o

.text.SERCOM2_I2C_IsBusy%161
                0x00004354       0x28
 .text.SERCOM2_I2C_IsBusy
                0x00004354       0x28 build/sam_c21n_xpro/debug/_ext/1451668420/plib_sercom2_i2c_master.o
                0x00004354                SERCOM2_I2C_IsBusy

.rodata.drvSPI0remapDataBits%162
                0x0000437c       0x28
 .rodata.drvSPI0remapDataBits
                0x0000437c       0x28 build/sam_c21n_xpro/debug/_ext/1758384875/initialization.o
                0x0000437c                drvSPI0remapDataBits

.text.__sread%163
                0x000043a4       0x28
 .text.__sread  0x000043a4       0x28 c:/program files/microchip/xc32/v2.40/bin/bin/../../lib/gcc/pic32c/6.2.1/../../../../pic32c/lib\libg_nano.a(lib_a-stdio.o)
                0x000043a4                __sread

.text._write_r%164
                0x000043cc       0x28
 .text._write_r
                0x000043cc       0x28 c:/program files/microchip/xc32/v2.40/bin/bin/../../lib/gcc/pic32c/6.2.1/../../../../pic32c/lib\libg_nano.a(lib_a-writer.o)
                0x000043cc                _write_r

.text._lseek_r%165
                0x000043f4       0x28
 .text._lseek_r
                0x000043f4       0x28 c:/program files/microchip/xc32/v2.40/bin/bin/../../lib/gcc/pic32c/6.2.1/../../../../pic32c/lib\libg_nano.a(lib_a-lseekr.o)
                0x000043f4                _lseek_r

.text._read_r%166
                0x0000441c       0x28
 .text._read_r  0x0000441c       0x28 c:/program files/microchip/xc32/v2.40/bin/bin/../../lib/gcc/pic32c/6.2.1/../../../../pic32c/lib\libg_nano.a(lib_a-readr.o)
                0x0000441c                _read_r

.text.SendATCOmmand%167
                0x00004444       0x24
 .text.SendATCOmmand
                0x00004444       0x24 build/sam_c21n_xpro/debug/_ext/1360937237/moden.o
                0x00004444                SendATCOmmand

.text.readiotdata%168
                0x00004468       0x24
 .text.readiotdata
                0x00004468       0x24 build/sam_c21n_xpro/debug/_ext/1360937237/appemueeprom.o
                0x00004468                readiotdata

.text.SYSTICK_TimerInitialize%169
                0x0000448c       0x24
 .text.SYSTICK_TimerInitialize
                0x0000448c       0x24 build/sam_c21n_xpro/debug/_ext/1004774289/plib_systick.o
                0x0000448c                SYSTICK_TimerInitialize

.text.SysTick_Handler%170
                0x000044b0       0x24
 .text.SysTick_Handler
                0x000044b0       0x24 build/sam_c21n_xpro/debug/_ext/1004774289/plib_systick.o
                0x000044b0                SysTick_Handler

.rodata.drvSPI0InitData%171
                0x000044d4       0x24
 .rodata.drvSPI0InitData
                0x000044d4       0x24 build/sam_c21n_xpro/debug/_ext/1758384875/initialization.o
                0x000044d4                drvSPI0InitData

.text.__ascii_mbtowc%172
                0x000044f8       0x24
 .text.__ascii_mbtowc
                0x000044f8       0x24 c:/program files/microchip/xc32/v2.40/bin/bin/../../lib/gcc/pic32c/6.2.1/../../../../pic32c/lib\libg_nano.a(lib_a-mbtowc_r.o)
                0x000044f8                __ascii_mbtowc

.text._sbrk_r%173
                0x0000451c       0x24
 .text._sbrk_r  0x0000451c       0x24 c:/program files/microchip/xc32/v2.40/bin/bin/../../lib/gcc/pic32c/6.2.1/../../../../pic32c/lib\libg_nano.a(lib_a-sbrkr.o)
                0x0000451c                _sbrk_r

.text._close_r%174
                0x00004540       0x24
 .text._close_r
                0x00004540       0x24 c:/program files/microchip/xc32/v2.40/bin/bin/../../lib/gcc/pic32c/6.2.1/../../../../pic32c/lib\libg_nano.a(lib_a-closer.o)
                0x00004540                _close_r

.text._fstat_r%175
                0x00004564       0x24
 .text._fstat_r
                0x00004564       0x24 c:/program files/microchip/xc32/v2.40/bin/bin/../../lib/gcc/pic32c/6.2.1/../../../../pic32c/lib\libg_nano.a(lib_a-fstatr.o)
                0x00004564                _fstat_r

.text._isatty_r%176
                0x00004588       0x24
 .text._isatty_r
                0x00004588       0x24 c:/program files/microchip/xc32/v2.40/bin/bin/../../lib/gcc/pic32c/6.2.1/../../../../pic32c/lib\libg_nano.a(lib_a-isattyr.o)
                0x00004588                _isatty_r

.text._DRV_AT24_ReadStatus%177
                0x000045ac       0x20
 .text._DRV_AT24_ReadStatus
                0x000045ac       0x20 build/sam_c21n_xpro/debug/_ext/1936826263/drv_at24.o

.text.EMU_EEPROM_NVMRowErase%178
                0x000045cc       0x20
 .text.EMU_EEPROM_NVMRowErase
                0x000045cc       0x20 build/sam_c21n_xpro/debug/_ext/1019481632/emulated_eeprom.o

.rodata.drvUsart0InitData%179
                0x000045ec       0x20
 .rodata.drvUsart0InitData
                0x000045ec       0x20 build/sam_c21n_xpro/debug/_ext/1758384875/initialization.o
                0x000045ec                drvUsart0InitData

.rodata.__sf_fake_stderr%180
                0x0000460c       0x20
 .rodata.__sf_fake_stderr
                0x0000460c       0x20 c:/program files/microchip/xc32/v2.40/bin/bin/../../lib/gcc/pic32c/6.2.1/../../../../pic32c/lib\libg_nano.a(lib_a-findfp.o)
                0x0000460c                __sf_fake_stderr

.rodata.__sf_fake_stdin%181
                0x0000462c       0x20
 .rodata.__sf_fake_stdin
                0x0000462c       0x20 c:/program files/microchip/xc32/v2.40/bin/bin/../../lib/gcc/pic32c/6.2.1/../../../../pic32c/lib\libg_nano.a(lib_a-findfp.o)
                0x0000462c                __sf_fake_stdin

.rodata.__sf_fake_stdout%182
                0x0000464c       0x20
 .rodata.__sf_fake_stdout
                0x0000464c       0x20 c:/program files/microchip/xc32/v2.40/bin/bin/../../lib/gcc/pic32c/6.2.1/../../../../pic32c/lib\libg_nano.a(lib_a-findfp.o)
                0x0000464c                __sf_fake_stdout

.text.memcmp%183
                0x0000466c       0x1e
 .text.memcmp   0x0000466c       0x1e c:/program files/microchip/xc32/v2.40/bin/bin/../../lib/gcc/pic32c/6.2.1/../../../../pic32c/lib\libg_nano.a(lib_a-memcmp.o)
                0x0000466c                memcmp

.text._fputwc_r%184
                0x0000468a       0x1e
 .text._fputwc_r
                0x0000468a       0x1e c:/program files/microchip/xc32/v2.40/bin/bin/../../lib/gcc/pic32c/6.2.1/../../../../pic32c/lib\libg_nano.a(lib_a-fputwc.o)
                0x0000468a                _fputwc_r

.text.resetiot%185
                0x000046a8       0x1c
 .text.resetiot
                0x000046a8       0x1c build/sam_c21n_xpro/debug/_ext/1360937237/moden.o
                0x000046a8                resetiot

.text.SERCOM1_USART_WritePendingBytesGet%186
                0x000046c4       0x1c
 .text.SERCOM1_USART_WritePendingBytesGet
                0x000046c4       0x1c build/sam_c21n_xpro/debug/_ext/1993392304/plib_sercom1_usart.o

.text.SERCOM1_USART_ReadCountGet%187
                0x000046e0       0x1c
 .text.SERCOM1_USART_ReadCountGet
                0x000046e0       0x1c build/sam_c21n_xpro/debug/_ext/1993392304/plib_sercom1_usart.o
                0x000046e0                SERCOM1_USART_ReadCountGet

.text.SYS_DEBUG_Initialize%188
                0x000046fc       0x1c
 .text.SYS_DEBUG_Initialize
                0x000046fc       0x1c build/sam_c21n_xpro/debug/_ext/1205691902/sys_debug.o
                0x000046fc                SYS_DEBUG_Initialize

.text.SERCOM3_USART_WritePendingBytesGet%189
                0x00004718       0x1c
 .text.SERCOM3_USART_WritePendingBytesGet
                0x00004718       0x1c build/sam_c21n_xpro/debug/_ext/1993392304/plib_sercom3_usart.o

.text.SERCOM3_USART_ReadCountGet%190
                0x00004734       0x1c
 .text.SERCOM3_USART_ReadCountGet
                0x00004734       0x1c build/sam_c21n_xpro/debug/_ext/1993392304/plib_sercom3_usart.o
                0x00004734                SERCOM3_USART_ReadCountGet

.text.__locale_mb_cur_max%191
                0x00004750       0x1c
 .text.__locale_mb_cur_max
                0x00004750       0x1c c:/program files/microchip/xc32/v2.40/bin/bin/../../lib/gcc/pic32c/6.2.1/../../../../pic32c/lib\libg_nano.a(lib_a-locale.o)
                0x00004750                __locale_mb_cur_max

.text.APP_CAN_TX_Callback%192
                0x0000476c       0x18
 .text.APP_CAN_TX_Callback
                0x0000476c       0x18 build/sam_c21n_xpro/debug/_ext/1360937237/canapp.o
                0x0000476c                APP_CAN_TX_Callback

.text.NVMCTRL_RWWEEPROM_RowErase%193
                0x00004784       0x18
 .text.NVMCTRL_RWWEEPROM_RowErase
                0x00004784       0x18 build/sam_c21n_xpro/debug/_ext/770299191/plib_nvmctrl.o
                0x00004784                NVMCTRL_RWWEEPROM_RowErase

.rodata.drvAT24InitData%194
                0x0000479c       0x18
 .rodata.drvAT24InitData
                0x0000479c       0x18 build/sam_c21n_xpro/debug/_ext/1758384875/initialization.o
                0x0000479c                drvAT24InitData

.rodata.drvAT24PlibAPI%195
                0x000047b4       0x18
 .rodata.drvAT24PlibAPI
                0x000047b4       0x18 build/sam_c21n_xpro/debug/_ext/1758384875/initialization.o
                0x000047b4                drvAT24PlibAPI

.rodata.drvUsart0remapParity%196
                0x000047cc       0x18
 .rodata.drvUsart0remapParity
                0x000047cc       0x18 build/sam_c21n_xpro/debug/_ext/1758384875/initialization.o
                0x000047cc                drvUsart0remapParity

.rodata.sysConsole0UARTPlibAPI%197
                0x000047e4       0x18
 .rodata.sysConsole0UARTPlibAPI
                0x000047e4       0x18 build/sam_c21n_xpro/debug/_ext/1758384875/initialization.o
                0x000047e4                sysConsole0UARTPlibAPI

.text.Console_UART_Initialize%198
                0x000047fc       0x18
 .text.Console_UART_Initialize
                0x000047fc       0x18 build/sam_c21n_xpro/debug/_ext/1639364742/sys_console_uart.o
                0x000047fc                Console_UART_Initialize

.text%199       0x00004814       0x48
 .text          0x00004814       0x18 c:/program files/microchip/xc32/v2.40/bin/bin/../../lib/gcc/pic32c/6.2.1\libgcc.a(_lshrdi3.o)
                0x00004814                __lshrdi3
                0x00004814                __aeabi_llsr
 .text          0x0000482c       0x18 c:/program files/microchip/xc32/v2.40/bin/bin/../../lib/gcc/pic32c/6.2.1\libgcc.a(_ashldi3.o)
                0x0000482c                __aeabi_llsl
                0x0000482c                __ashldi3
 .text          0x00004844       0x18 c:/program files/microchip/xc32/v2.40/bin/bin/../../lib/gcc/pic32c/6.2.1\libgcc.a(_clzdi2.o)
                0x00004844                __clzdi2

.text._vfprintf_cdnopuxX%202
                0x0000485c       0x18
 .text._vfprintf_cdnopuxX
                0x0000485c       0x18 c:/program files/microchip/xc32/v2.40/bin/bin/../../lib/gcc/pic32c/6.2.1/../../../../pic32c/lib\libg_nano.a(_lib_a-nano-vfprintf.cdnopuxX.o)
                0x0000485c                _vfprintf_cdnopuxX

.text.__ascii_wctomb%203
                0x00004874       0x18
 .text.__ascii_wctomb
                0x00004874       0x18 c:/program files/microchip/xc32/v2.40/bin/bin/../../lib/gcc/pic32c/6.2.1/../../../../pic32c/lib\libg_nano.a(lib_a-wctomb_r.o)
                0x00004874                __ascii_wctomb

.text.memchr%204
                0x0000488c       0x16
 .text.memchr   0x0000488c       0x16 c:/program files/microchip/xc32/v2.40/bin/bin/../../lib/gcc/pic32c/6.2.1/../../../../pic32c/lib\libg_nano.a(lib_a-memchr-stub.o)
                0x0000488c                memchr

.text.initmachinestates%205
                0x000048a4       0x14
 .text.initmachinestates
                0x000048a4       0x14 build/sam_c21n_xpro/debug/_ext/1360937237/appiot.o
                0x000048a4                initmachinestates

.text.ClearRx0%206
                0x000048b8       0x14
 .text.ClearRx0
                0x000048b8       0x14 build/sam_c21n_xpro/debug/_ext/1360937237/canapp.o
                0x000048b8                ClearRx0

.text.ClerCAN_ECU%207
                0x000048cc       0x14
 .text.ClerCAN_ECU
                0x000048cc       0x14 build/sam_c21n_xpro/debug/_ext/1360937237/canapp.o
                0x000048cc                ClerCAN_ECU

.text.CAN0_RxCallbackRegister%208
                0x000048e0       0x14
 .text.CAN0_RxCallbackRegister
                0x000048e0       0x14 build/sam_c21n_xpro/debug/_ext/1617702135/plib_can0.o
                0x000048e0                CAN0_RxCallbackRegister

.text.NVIC_INT_Restore%209
                0x000048f4       0x14
 .text.NVIC_INT_Restore
                0x000048f4       0x14 build/sam_c21n_xpro/debug/_ext/1390493541/plib_nvic.o
                0x000048f4                NVIC_INT_Restore

.text.NVMCTRL_IsBusy%210
                0x00004908       0x14
 .text.NVMCTRL_IsBusy
                0x00004908       0x14 build/sam_c21n_xpro/debug/_ext/770299191/plib_nvmctrl.o
                0x00004908                NVMCTRL_IsBusy

.text.SERCOM0_SPI_IsTransmitterBusy%211
                0x0000491c       0x14
 .text.SERCOM0_SPI_IsTransmitterBusy
                0x0000491c       0x14 build/sam_c21n_xpro/debug/_ext/1942903062/plib_sercom0_spi_master.o
                0x0000491c                SERCOM0_SPI_IsTransmitterBusy

.text.SERCOM1_USART_WriteFreeBufferCountGet%212
                0x00004930       0x14
 .text.SERCOM1_USART_WriteFreeBufferCountGet
                0x00004930       0x14 build/sam_c21n_xpro/debug/_ext/1993392304/plib_sercom1_usart.o
                0x00004930                SERCOM1_USART_WriteFreeBufferCountGet

.text.SYSTICK_TimerStart%213
                0x00004944       0x14
 .text.SYSTICK_TimerStart
                0x00004944       0x14 build/sam_c21n_xpro/debug/_ext/1004774289/plib_systick.o
                0x00004944                SYSTICK_TimerStart

.text.WDT_Clear%214
                0x00004958       0x14
 .text.WDT_Clear
                0x00004958       0x14 build/sam_c21n_xpro/debug/_ext/1617721454/plib_wdt.o
                0x00004958                WDT_Clear

.rodata.drvUsart0remapDataWidth%215
                0x0000496c       0x14
 .rodata.drvUsart0remapDataWidth
                0x0000496c       0x14 build/sam_c21n_xpro/debug/_ext/1758384875/initialization.o
                0x0000496c                drvUsart0remapDataWidth

.text.Console_UART_Status%216
                0x00004980       0x14
 .text.Console_UART_Status
                0x00004980       0x14 build/sam_c21n_xpro/debug/_ext/1639364742/sys_console_uart.o
                0x00004980                Console_UART_Status

.text.SERCOM3_USART_ReadFreeBufferCountGet%217
                0x00004994       0x14
 .text.SERCOM3_USART_ReadFreeBufferCountGet
                0x00004994       0x14 build/sam_c21n_xpro/debug/_ext/1993392304/plib_sercom3_usart.o
                0x00004994                SERCOM3_USART_ReadFreeBufferCountGet

.text.SERCOM3_USART_WriteFreeBufferCountGet%218
                0x000049a8       0x14
 .text.SERCOM3_USART_WriteFreeBufferCountGet
                0x000049a8       0x14 build/sam_c21n_xpro/debug/_ext/1993392304/plib_sercom3_usart.o
                0x000049a8                SERCOM3_USART_WriteFreeBufferCountGet

.text%219       0x000049bc       0x14
 .text          0x000049bc       0x14 c:/program files/microchip/xc32/v2.40/bin/bin/../../lib/gcc/pic32c/6.2.1\libgcc.a(_thumb1_case_uqi.o)
                0x000049bc                __gnu_thumb1_case_uqi

.text.enable_CAN%220
                0x000049d0       0x12
 .text.enable_CAN
                0x000049d0       0x12 build/sam_c21n_xpro/debug/_ext/1360937237/canapp.o
                0x000049d0                enable_CAN

.text.standby_CAN%221
                0x000049e2       0x12
 .text.standby_CAN
                0x000049e2       0x12 build/sam_c21n_xpro/debug/_ext/1360937237/canapp.o
                0x000049e2                standby_CAN

.text.NVIC_INT_Disable%222
                0x000049f4       0x12
 .text.NVIC_INT_Disable
                0x000049f4       0x12 build/sam_c21n_xpro/debug/_ext/1390493541/plib_nvic.o
                0x000049f4                NVIC_INT_Disable

.text.Console_UART_ResourceLock%223
                0x00004a06       0x12
 .text.Console_UART_ResourceLock
                0x00004a06       0x12 build/sam_c21n_xpro/debug/_ext/1639364742/sys_console_uart.o

.text.memcpy%224
                0x00004a18       0x12
 .text.memcpy   0x00004a18       0x12 c:/program files/microchip/xc32/v2.40/bin/bin/../../lib/gcc/pic32c/6.2.1/../../../../pic32c/lib\libg_nano.a(lib_a-memcpy-stub.o)
                0x00004a18                memcpy

.text.incmqtttimer%225
                0x00004a2c       0x10
 .text.incmqtttimer
                0x00004a2c       0x10 build/sam_c21n_xpro/debug/_ext/1360937237/appiot.o
                0x00004a2c                incmqtttimer

.text.inccanbussleeptimer%226
                0x00004a3c       0x10
 .text.inccanbussleeptimer
                0x00004a3c       0x10 build/sam_c21n_xpro/debug/_ext/1360937237/canapp.o
                0x00004a3c                inccanbussleeptimer

.text._DRV_USART_TX_PLIB_CallbackHandler%227
                0x00004a4c       0x10
 .text._DRV_USART_TX_PLIB_CallbackHandler
                0x00004a4c       0x10 build/sam_c21n_xpro/debug/_ext/1274584173/drv_usart.o

.text.CAN0_TxCallbackRegister%228
                0x00004a5c       0x10
 .text.CAN0_TxCallbackRegister
                0x00004a5c       0x10 build/sam_c21n_xpro/debug/_ext/1617702135/plib_can0.o
                0x00004a5c                CAN0_TxCallbackRegister

.rodata%229     0x00004a6c       0x10
 .rodata        0x00004a6c       0x10 build/sam_c21n_xpro/debug/_ext/1617702135/plib_can0.o

.text.SERCOM2_I2C_ErrorGet%230
                0x00004a7c       0x10
 .text.SERCOM2_I2C_ErrorGet
                0x00004a7c       0x10 build/sam_c21n_xpro/debug/_ext/1451668420/plib_sercom2_i2c_master.o
                0x00004a7c                SERCOM2_I2C_ErrorGet

.text.SERCOM1_USART_ErrorGet%231
                0x00004a8c       0x10
 .text.SERCOM1_USART_ErrorGet
                0x00004a8c       0x10 build/sam_c21n_xpro/debug/_ext/1993392304/plib_sercom1_usart.o
                0x00004a8c                SERCOM1_USART_ErrorGet

.rodata.drvSPI0InterruptSources%232
                0x00004a9c       0x10
 .rodata.drvSPI0InterruptSources
                0x00004a9c       0x10 build/sam_c21n_xpro/debug/_ext/1758384875/initialization.o
                0x00004a9c                drvSPI0InterruptSources

.rodata.drvSPI0PlibAPI%233
                0x00004aac       0x10
 .rodata.drvSPI0PlibAPI
                0x00004aac       0x10 build/sam_c21n_xpro/debug/_ext/1758384875/initialization.o
                0x00004aac                drvSPI0PlibAPI

.text.memset%234
                0x00004abc       0x10
 .text.memset   0x00004abc       0x10 c:/program files/microchip/xc32/v2.40/bin/bin/../../lib/gcc/pic32c/6.2.1/../../../../pic32c/lib\libg_nano.a(lib_a-memset.o)
                0x00004abc                memset

.text._cleanup_r%235
                0x00004acc       0x10
 .text._cleanup_r
                0x00004acc       0x10 c:/program files/microchip/xc32/v2.40/bin/bin/../../lib/gcc/pic32c/6.2.1/../../../../pic32c/lib\libg_nano.a(lib_a-findfp.o)
                0x00004acc                _cleanup_r

.text%236       0x00004adc        0xe
 .text          0x00004adc        0xe c:/program files/microchip/xc32/v2.40/bin/bin/../../lib/gcc/pic32c/6.2.1/../../../../pic32c/lib\libg_nano.a(lib_a-strlen.o)
                0x00004adc                strlen

.text.setmcahinestates%237
                0x00004aec        0xc
 .text.setmcahinestates
                0x00004aec        0xc build/sam_c21n_xpro/debug/_ext/1360937237/appiot.o
                0x00004aec                setmcahinestates

.text.readmcahinestates%238
                0x00004af8        0xc
 .text.readmcahinestates
                0x00004af8        0xc build/sam_c21n_xpro/debug/_ext/1360937237/appiot.o
                0x00004af8                readmcahinestates

.text.init_can%239
                0x00004b04        0xc
 .text.init_can
                0x00004b04        0xc build/sam_c21n_xpro/debug/_ext/1360937237/canapp.o
                0x00004b04                init_can

.text.readcanbussleeptimer%240
                0x00004b10        0xc
 .text.readcanbussleeptimer
                0x00004b10        0xc build/sam_c21n_xpro/debug/_ext/1360937237/canapp.o
                0x00004b10                readcanbussleeptimer

.text.set_canstatenew%241
                0x00004b1c        0xc
 .text.set_canstatenew
                0x00004b1c        0xc build/sam_c21n_xpro/debug/_ext/1360937237/canapp.o
                0x00004b1c                set_canstatenew

.text.usartWriteEventHandler%242
                0x00004b28        0xc
 .text.usartWriteEventHandler
                0x00004b28        0xc build/sam_c21n_xpro/debug/_ext/1360937237/appuart.o
                0x00004b28                usartWriteEventHandler

.text.readOdoFromRam%243
                0x00004b34        0xc
 .text.readOdoFromRam
                0x00004b34        0xc build/sam_c21n_xpro/debug/_ext/1360937237/appemueeprom.o
                0x00004b34                readOdoFromRam

.text.platform_get_time_ms%244
                0x00004b40        0xc
 .text.platform_get_time_ms
                0x00004b40        0xc build/sam_c21n_xpro/debug/_ext/1360937237/apptimer.o
                0x00004b40                platform_get_time_ms

.text.CAN0_InterruptClear%245
                0x00004b4c        0xc
 .text.CAN0_InterruptClear
                0x00004b4c        0xc build/sam_c21n_xpro/debug/_ext/1617702135/plib_can0.o
                0x00004b4c                CAN0_InterruptClear

.text.NVMCTRL_Initialize%246
                0x00004b58        0xc
 .text.NVMCTRL_Initialize
                0x00004b58        0xc build/sam_c21n_xpro/debug/_ext/770299191/plib_nvmctrl.o
                0x00004b58                NVMCTRL_Initialize

.text.PORT_GroupWrite%247
                0x00004b64        0xc
 .text.PORT_GroupWrite
                0x00004b64        0xc build/sam_c21n_xpro/debug/_ext/1390440390/plib_port.o
                0x00004b64                PORT_GroupWrite

.text.SERCOM2_I2C_CallbackRegister%248
                0x00004b70        0xc
 .text.SERCOM2_I2C_CallbackRegister
                0x00004b70        0xc build/sam_c21n_xpro/debug/_ext/1451668420/plib_sercom2_i2c_master.o
                0x00004b70                SERCOM2_I2C_CallbackRegister

.text.SERCOM0_SPI_CallbackRegister%249
                0x00004b7c        0xc
 .text.SERCOM0_SPI_CallbackRegister
                0x00004b7c        0xc build/sam_c21n_xpro/debug/_ext/1942903062/plib_sercom0_spi_master.o
                0x00004b7c                SERCOM0_SPI_CallbackRegister

.text.SERCOM1_USART_ReadCallbackRegister%250
                0x00004b88        0xc
 .text.SERCOM1_USART_ReadCallbackRegister
                0x00004b88        0xc build/sam_c21n_xpro/debug/_ext/1993392304/plib_sercom1_usart.o
                0x00004b88                SERCOM1_USART_ReadCallbackRegister

.text.SERCOM1_USART_WriteCallbackRegister%251
                0x00004b94        0xc
 .text.SERCOM1_USART_WriteCallbackRegister
                0x00004b94        0xc build/sam_c21n_xpro/debug/_ext/1993392304/plib_sercom1_usart.o
                0x00004b94                SERCOM1_USART_WriteCallbackRegister

.text.SYSTICK_TimerCallbackSet%252
                0x00004ba0        0xc
 .text.SYSTICK_TimerCallbackSet
                0x00004ba0        0xc build/sam_c21n_xpro/debug/_ext/1004774289/plib_systick.o
                0x00004ba0                SYSTICK_TimerCallbackSet

.rodata.drvUsart0remapError%253
                0x00004bac        0xc
 .rodata.drvUsart0remapError
                0x00004bac        0xc build/sam_c21n_xpro/debug/_ext/1758384875/initialization.o
                0x00004bac                drvUsart0remapError

.rodata.drvUsart0remapStopBits%254
                0x00004bb8        0xc
 .rodata.drvUsart0remapStopBits
                0x00004bb8        0xc build/sam_c21n_xpro/debug/_ext/1758384875/initialization.o
                0x00004bb8                drvUsart0remapStopBits

.rodata.sysConsole0Init%255
                0x00004bc4        0xc
 .rodata.sysConsole0Init
                0x00004bc4        0xc build/sam_c21n_xpro/debug/_ext/1758384875/initialization.o
                0x00004bc4                sysConsole0Init

.text.APP_Initialize%256
                0x00004bd0        0xc
 .text.APP_Initialize
                0x00004bd0        0xc build/sam_c21n_xpro/debug/_ext/1360937237/app.o
                0x00004bd0                APP_Initialize

.text.SYS_DEBUG_ConsoleInstanceGet%257
                0x00004bdc        0xc
 .text.SYS_DEBUG_ConsoleInstanceGet
                0x00004bdc        0xc build/sam_c21n_xpro/debug/_ext/1205691902/sys_debug.o
                0x00004bdc                SYS_DEBUG_ConsoleInstanceGet

.text.SYS_DEBUG_ErrorLevelGet%258
                0x00004be8        0xc
 .text.SYS_DEBUG_ErrorLevelGet
                0x00004be8        0xc build/sam_c21n_xpro/debug/_ext/1205691902/sys_debug.o
                0x00004be8                SYS_DEBUG_ErrorLevelGet

.text.__sclose%259
                0x00004bf4        0xc
 .text.__sclose
                0x00004bf4        0xc c:/program files/microchip/xc32/v2.40/bin/bin/../../lib/gcc/pic32c/6.2.1/../../../../pic32c/lib\libg_nano.a(lib_a-stdio.o)
                0x00004bf4                __sclose

.text.fstat%260
                0x00004c00        0xc
 .text.fstat    0x00004c00        0xc c:/program files/microchip/xc32/v2.40/bin/bin/../../lib/gcc/pic32c/6.2.1/../../../../pic32c/lib\libpic32c.a(fstat.o)
                0x00004c00                fstat

.rodata%261     0x00004c0c        0xb
 .rodata        0x00004c0c        0xb c:/program files/microchip/xc32/v2.40/bin/bin/../../lib/gcc/pic32c/6.2.1/../../../../pic32c/lib\libg_nano.a(lib_a-locale.o)

.rodata%262     0x00004c18       0x10
 .rodata        0x00004c18        0x8 build/sam_c21n_xpro/debug/_ext/1360937237/moden.o
 .rodata        0x00004c20        0x8 build/sam_c21n_xpro/debug/_ext/1019481632/emulated_eeprom.o

.text.SERCOM1_USART_WriteCountGet%264
                0x00004c28        0x8
 .text.SERCOM1_USART_WriteCountGet
                0x00004c28        0x8 build/sam_c21n_xpro/debug/_ext/1993392304/plib_sercom1_usart.o
                0x00004c28                SERCOM1_USART_WriteCountGet

.text.SYS_INT_Disable%265
                0x00004c30        0x8
 .text.SYS_INT_Disable
                0x00004c30        0x8 build/sam_c21n_xpro/debug/_ext/855761890/sys_int.o
                0x00004c30                SYS_INT_Disable

.text.SYS_INT_Restore%266
                0x00004c38        0x8
 .text.SYS_INT_Restore
                0x00004c38        0x8 build/sam_c21n_xpro/debug/_ext/855761890/sys_int.o
                0x00004c38                SYS_INT_Restore

.rodata.drvSPI0remapClockPhase%267
                0x00004c40        0x8
 .rodata.drvSPI0remapClockPhase
                0x00004c40        0x8 build/sam_c21n_xpro/debug/_ext/1758384875/initialization.o
                0x00004c40                drvSPI0remapClockPhase

.rodata.drvSPI0remapClockPolarity%268
                0x00004c48        0x8
 .rodata.drvSPI0remapClockPolarity
                0x00004c48        0x8 build/sam_c21n_xpro/debug/_ext/1758384875/initialization.o
                0x00004c48                drvSPI0remapClockPolarity

.text.timeout_handler%269
                0x00004c50        0x8
 .text.timeout_handler
                0x00004c50        0x8 build/sam_c21n_xpro/debug/_ext/1360937237/main.o
                0x00004c50                timeout_handler

.text.SERCOM3_USART_WriteCountGet%270
                0x00004c58        0x8
 .text.SERCOM3_USART_WriteCountGet
                0x00004c58        0x8 build/sam_c21n_xpro/debug/_ext/1993392304/plib_sercom3_usart.o
                0x00004c58                SERCOM3_USART_WriteCountGet

.text._close%271
                0x00004c60        0x8
 .text._close   0x00004c60        0x8 c:/program files/microchip/xc32/v2.40/bin/bin/../../lib/gcc/pic32c/6.2.1/../../../../pic32c/lib\libpic32c.a(_close.o)
                0x00004c60                _close

.text._fstat%272
                0x00004c68        0x8
 .text._fstat   0x00004c68        0x8 c:/program files/microchip/xc32/v2.40/bin/bin/../../lib/gcc/pic32c/6.2.1/../../../../pic32c/lib\libpic32c.a(_fstat.o)
                0x00004c68                _fstat

.text._isatty%273
                0x00004c70        0x8
 .text._isatty  0x00004c70        0x8 c:/program files/microchip/xc32/v2.40/bin/bin/../../lib/gcc/pic32c/6.2.1/../../../../pic32c/lib\libpic32c.a(_isatty.o)
                0x00004c70                _isatty

.text._lseek%274
                0x00004c78        0x8
 .text._lseek   0x00004c78        0x8 c:/program files/microchip/xc32/v2.40/bin/bin/../../lib/gcc/pic32c/6.2.1/../../../../pic32c/lib\libpic32c.a(_lseek.o)
                0x00004c78                _lseek

.text._read%275
                0x00004c80        0x8
 .text._read    0x00004c80        0x8 c:/program files/microchip/xc32/v2.40/bin/bin/../../lib/gcc/pic32c/6.2.1/../../../../pic32c/lib\libpic32c.a(_read.o)
                0x00004c80                _read

.text._write%276
                0x00004c88        0x8
 .text._write   0x00004c88        0x8 c:/program files/microchip/xc32/v2.40/bin/bin/../../lib/gcc/pic32c/6.2.1/../../../../pic32c/lib\libpic32c.a(_write.o)
                0x00004c88                _write

.text.close%277
                0x00004c90        0x8
 .text.close    0x00004c90        0x8 c:/program files/microchip/xc32/v2.40/bin/bin/../../lib/gcc/pic32c/6.2.1/../../../../pic32c/lib\libpic32c.a(close.o)
                0x00004c90                close

.text.read%278  0x00004c98        0x6
 .text.read     0x00004c98        0x6 build/sam_c21n_xpro/debug/_ext/730014449/xc32_monitor.o
                0x00004c98                read

.text.write%279
                0x00004c9e        0x6
 .text.write    0x00004c9e        0x6 build/sam_c21n_xpro/debug/_ext/730014449/xc32_monitor.o
                0x00004c9e                write

.rodata.can0StdFilter%280
                0x00004ca4        0x4
 .rodata.can0StdFilter
                0x00004ca4        0x4 build/sam_c21n_xpro/debug/_ext/1617702135/plib_can0.o

.text.PORT_GroupSet%281
                0x00004ca8        0x4
 .text.PORT_GroupSet
                0x00004ca8        0x4 build/sam_c21n_xpro/debug/_ext/1390440390/plib_port.o
                0x00004ca8                PORT_GroupSet

.text.PORT_GroupClear%282
                0x00004cac        0x4
 .text.PORT_GroupClear
                0x00004cac        0x4 build/sam_c21n_xpro/debug/_ext/1390440390/plib_port.o
                0x00004cac                PORT_GroupClear

.rodata.debugInit%283
                0x00004cb0        0x4
 .rodata.debugInit
                0x00004cb0        0x4 build/sam_c21n_xpro/debug/_ext/1758384875/initialization.o
                0x00004cb0                debugInit

.rodata.sysConsole0UARTInitData%284
                0x00004cb4        0x4
 .rodata.sysConsole0UARTInitData
                0x00004cb4        0x4 build/sam_c21n_xpro/debug/_ext/1758384875/initialization.o
                0x00004cb4                sysConsole0UARTInitData

.text.NonMaskableInt_Handler%285
                0x00004cb8        0x4
 .text.NonMaskableInt_Handler
                0x00004cb8        0x4 build/sam_c21n_xpro/debug/_ext/1758384875/exceptions.o
                0x00004cb8                NonMaskableInt_Handler

.text.HardFault_Handler%286
                0x00004cbc        0x4
 .text.HardFault_Handler
                0x00004cbc        0x4 build/sam_c21n_xpro/debug/_ext/1758384875/exceptions.o
                0x00004cbc                HardFault_Handler

.text.Console_UART_Flush%287
                0x00004cc0        0x4
 .text.Console_UART_Flush
                0x00004cc0        0x4 build/sam_c21n_xpro/debug/_ext/1639364742/sys_console_uart.o
                0x00004cc0                Console_UART_Flush

.text%288       0x00004cc4        0x4
 .text          0x00004cc4        0x4 c:/program files/microchip/xc32/v2.40/bin/bin/../../lib/gcc/pic32c/6.2.1\libgcc.a(_dvmd_tls.o)
                0x00004cc4                __aeabi_idiv0
                0x00004cc4                __aeabi_ldiv0

.rodata._global_impure_ptr%289
                0x00004cc8        0x4
 .rodata._global_impure_ptr
                0x00004cc8        0x4 c:/program files/microchip/xc32/v2.40/bin/bin/../../lib/gcc/pic32c/6.2.1/../../../../pic32c/lib\libg_nano.a(lib_a-impure.o)
                0x00004cc8                _global_impure_ptr

.text.isatty%290
                0x00004ccc        0x4
 .text.isatty   0x00004ccc        0x4 c:/program files/microchip/xc32/v2.40/bin/bin/../../lib/gcc/pic32c/6.2.1/../../../../pic32c/lib\libpic32c.a(isatty.o)
                0x00004ccc                isatty

.text.lseek%291
                0x00004cd0        0x4
 .text.lseek    0x00004cd0        0x4 c:/program files/microchip/xc32/v2.40/bin/bin/../../lib/gcc/pic32c/6.2.1/../../../../pic32c/lib\libpic32c.a(lseek.o)
                0x00004cd0                lseek

.text.iot_main%292
                0x00004302        0x2
 .text.iot_main
                0x00004302        0x2 build/sam_c21n_xpro/debug/_ext/1360937237/appiot.o
                0x00004302                iot_main

.text.emnueeprom_init%293
                0x000048a2        0x2
 .text.emnueeprom_init
                0x000048a2        0x2 build/sam_c21n_xpro/debug/_ext/1360937237/appemueeprom.o
                0x000048a2                emnueeprom_init

.text.EVSYS_Initialize%294
                0x00004a2a        0x2
 .text.EVSYS_Initialize
                0x00004a2a        0x2 build/sam_c21n_xpro/debug/_ext/163928093/plib_evsys.o
                0x00004a2a                EVSYS_Initialize

.text.Dummy_Handler%295
                0x00004aea        0x2
 .text.Dummy_Handler
                0x00004aea        0x2 build/sam_c21n_xpro/debug/_ext/1758384875/interrupts.o
                0x00004aea                SVCall_Handler
                0x00004aea                DMAC_Handler
                0x00004aea                TC2_Handler
                0x00004aea                AC_Handler
                0x00004aea                PendSV_Handler
                0x00004aea                TCC1_Handler
                0x00004aea                TCC0_Handler
                0x00004aea                RTC_Handler
                0x00004aea                ADC1_Handler
                0x00004aea                WDT_Handler
                0x00004aea                TC4_Handler
                0x00004aea                TC1_Handler
                0x00004aea                TC3_Handler
                0x00004aea                SDADC_Handler
                0x00004aea                Dummy_Handler
                0x00004aea                ADC0_Handler
                0x00004aea                TSENS_Handler
                0x00004aea                TCC2_Handler
                0x00004aea                EVSYS_Handler
                0x00004aea                NVMCTRL_Handler
                0x00004aea                SYSTEM_Handler
                0x00004aea                DAC_Handler
                0x00004aea                PTC_Handler
                0x00004aea                FREQM_Handler
                0x00004aea                TC0_Handler

.text.Dummy_App_Func%296
                0x00001f62        0x2
 .text.Dummy_App_Func
                0x00001f62        0x2 build/sam_c21n_xpro/debug/_ext/1758384875/startup_xc32.o
                0x00001f62                _on_reset
                0x00001f62                _on_bootstrap
                0x00001f62                __xc32_on_reset
                0x00001f62                Dummy_App_Func
                0x00001f62                __xc32_on_bootstrap

.text.Console_UART_Tasks%297
                0x00004cd4        0x2
 .text.Console_UART_Tasks
                0x00004cd4        0x2 build/sam_c21n_xpro/debug/_ext/1639364742/sys_console_uart.o
                0x00004cd4                Console_UART_Tasks

.text.__malloc_lock%298
                0x00004cd6        0x2
 .text.__malloc_lock
                0x00004cd6        0x2 c:/program files/microchip/xc32/v2.40/bin/bin/../../lib/gcc/pic32c/6.2.1/../../../../pic32c/lib\libg_nano.a(lib_a-mlock.o)
                0x00004cd6                __malloc_lock

.text.__malloc_unlock%299
                0x00004cd8        0x2
 .text.__malloc_unlock
                0x00004cd8        0x2 c:/program files/microchip/xc32/v2.40/bin/bin/../../lib/gcc/pic32c/6.2.1/../../../../pic32c/lib\libg_nano.a(lib_a-mlock.o)
                0x00004cd8                __malloc_unlock
