Archive member included to satisfy reference by file (symbol)

c:/program files/microchip/xc32/v2.40/bin/bin/../../lib/gcc/pic32c/6.2.1/../../../../pic32c/lib\libpic32c.a(data_init.o)
                              build/sam_c21n_xpro/production/_ext/1758384875/startup_xc32.o (__pic32c_data_initialization)
c:/program files/microchip/xc32/v2.40/bin/bin/../../lib/gcc/pic32c/6.2.1\libgcc.a(_udivsi3.o)
                              build/sam_c21n_xpro/production/_ext/1360937237/canapp.o (__aeabi_uidiv)
c:/program files/microchip/xc32/v2.40/bin/bin/../../lib/gcc/pic32c/6.2.1\libgcc.a(_dvmd_tls.o)
                              c:/program files/microchip/xc32/v2.40/bin/bin/../../lib/gcc/pic32c/6.2.1\libgcc.a(_udivsi3.o) (__aeabi_idiv0)
c:/program files/microchip/xc32/v2.40/bin/bin/../../lib/gcc/pic32c/6.2.1\libgcc.a(_aeabi_uldivmod.o)
                              build/sam_c21n_xpro/production/_ext/1993392304/plib_sercom1_usart.o (__aeabi_uldivmod)
c:/program files/microchip/xc32/v2.40/bin/bin/../../lib/gcc/pic32c/6.2.1\libgcc.a(_muldi3.o)
                              build/sam_c21n_xpro/production/_ext/1993392304/plib_sercom1_usart.o (__aeabi_lmul)
c:/program files/microchip/xc32/v2.40/bin/bin/../../lib/gcc/pic32c/6.2.1\libgcc.a(_fixunssfsi.o)
                              build/sam_c21n_xpro/production/_ext/1451668420/plib_sercom2_i2c_master.o (__aeabi_f2uiz)
c:/program files/microchip/xc32/v2.40/bin/bin/../../lib/gcc/pic32c/6.2.1\libgcc.a(_udivmoddi4.o)
                              c:/program files/microchip/xc32/v2.40/bin/bin/../../lib/gcc/pic32c/6.2.1\libgcc.a(_aeabi_uldivmod.o) (__udivmoddi4)
c:/program files/microchip/xc32/v2.40/bin/bin/../../lib/gcc/pic32c/6.2.1\libgcc.a(addsf3.o)
                              build/sam_c21n_xpro/production/_ext/1360937237/moden.o (__aeabi_fadd)
c:/program files/microchip/xc32/v2.40/bin/bin/../../lib/gcc/pic32c/6.2.1\libgcc.a(divsf3.o)
                              build/sam_c21n_xpro/production/_ext/1360937237/moden.o (__aeabi_fdiv)
c:/program files/microchip/xc32/v2.40/bin/bin/../../lib/gcc/pic32c/6.2.1\libgcc.a(mulsf3.o)
                              build/sam_c21n_xpro/production/_ext/1360937237/canapp.o (__aeabi_fmul)
c:/program files/microchip/xc32/v2.40/bin/bin/../../lib/gcc/pic32c/6.2.1\libgcc.a(subsf3.o)
                              build/sam_c21n_xpro/production/_ext/1360937237/moden.o (__aeabi_fsub)
c:/program files/microchip/xc32/v2.40/bin/bin/../../lib/gcc/pic32c/6.2.1\libgcc.a(fixsfsi.o)
                              build/sam_c21n_xpro/production/_ext/1360937237/moden.o (__aeabi_f2iz)
c:/program files/microchip/xc32/v2.40/bin/bin/../../lib/gcc/pic32c/6.2.1\libgcc.a(floatsisf.o)
                              build/sam_c21n_xpro/production/_ext/1360937237/moden.o (__aeabi_i2f)
c:/program files/microchip/xc32/v2.40/bin/bin/../../lib/gcc/pic32c/6.2.1\libgcc.a(floatunsisf.o)
                              build/sam_c21n_xpro/production/_ext/1360937237/canapp.o (__aeabi_ui2f)
c:/program files/microchip/xc32/v2.40/bin/bin/../../lib/gcc/pic32c/6.2.1\libgcc.a(muldf3.o)
                              build/sam_c21n_xpro/production/_ext/1360937237/canapp.o (__aeabi_dmul)
c:/program files/microchip/xc32/v2.40/bin/bin/../../lib/gcc/pic32c/6.2.1\libgcc.a(floatsidf.o)
                              build/sam_c21n_xpro/production/_ext/1360937237/canapp.o (__aeabi_i2d)
c:/program files/microchip/xc32/v2.40/bin/bin/../../lib/gcc/pic32c/6.2.1\libgcc.a(extendsfdf2.o)
                              build/sam_c21n_xpro/production/_ext/1360937237/moden.o (__aeabi_f2d)
c:/program files/microchip/xc32/v2.40/bin/bin/../../lib/gcc/pic32c/6.2.1\libgcc.a(truncdfsf2.o)
                              build/sam_c21n_xpro/production/_ext/1360937237/moden.o (__aeabi_d2f)
c:/program files/microchip/xc32/v2.40/bin/bin/../../lib/gcc/pic32c/6.2.1\libgcc.a(_thumb1_case_uqi.o)
                              c:/program files/microchip/xc32/v2.40/bin/bin/../../lib/gcc/pic32c/6.2.1\libgcc.a(divsf3.o) (__gnu_thumb1_case_uqi)
c:/program files/microchip/xc32/v2.40/bin/bin/../../lib/gcc/pic32c/6.2.1\libgcc.a(_thumb1_case_uhi.o)
                              c:/program files/microchip/xc32/v2.40/bin/bin/../../lib/gcc/pic32c/6.2.1\libgcc.a(muldf3.o) (__gnu_thumb1_case_uhi)
c:/program files/microchip/xc32/v2.40/bin/bin/../../lib/gcc/pic32c/6.2.1\libgcc.a(_lshrdi3.o)
                              c:/program files/microchip/xc32/v2.40/bin/bin/../../lib/gcc/pic32c/6.2.1\libgcc.a(_udivmoddi4.o) (__aeabi_llsr)
c:/program files/microchip/xc32/v2.40/bin/bin/../../lib/gcc/pic32c/6.2.1\libgcc.a(_ashldi3.o)
                              c:/program files/microchip/xc32/v2.40/bin/bin/../../lib/gcc/pic32c/6.2.1\libgcc.a(_udivmoddi4.o) (__aeabi_llsl)
c:/program files/microchip/xc32/v2.40/bin/bin/../../lib/gcc/pic32c/6.2.1\libgcc.a(_arm_cmpsf2.o)
                              c:/program files/microchip/xc32/v2.40/bin/bin/../../lib/gcc/pic32c/6.2.1\libgcc.a(_fixunssfsi.o) (__aeabi_fcmpge)
c:/program files/microchip/xc32/v2.40/bin/bin/../../lib/gcc/pic32c/6.2.1\libgcc.a(_clzsi2.o)
                              c:/program files/microchip/xc32/v2.40/bin/bin/../../lib/gcc/pic32c/6.2.1\libgcc.a(addsf3.o) (__clzsi2)
c:/program files/microchip/xc32/v2.40/bin/bin/../../lib/gcc/pic32c/6.2.1\libgcc.a(_clzdi2.o)
                              c:/program files/microchip/xc32/v2.40/bin/bin/../../lib/gcc/pic32c/6.2.1\libgcc.a(_udivmoddi4.o) (__clzdi2)
c:/program files/microchip/xc32/v2.40/bin/bin/../../lib/gcc/pic32c/6.2.1\libgcc.a(eqsf2.o)
                              c:/program files/microchip/xc32/v2.40/bin/bin/../../lib/gcc/pic32c/6.2.1\libgcc.a(_arm_cmpsf2.o) (__eqsf2)
c:/program files/microchip/xc32/v2.40/bin/bin/../../lib/gcc/pic32c/6.2.1\libgcc.a(gesf2.o)
                              c:/program files/microchip/xc32/v2.40/bin/bin/../../lib/gcc/pic32c/6.2.1\libgcc.a(_arm_cmpsf2.o) (__gesf2)
c:/program files/microchip/xc32/v2.40/bin/bin/../../lib/gcc/pic32c/6.2.1\libgcc.a(lesf2.o)
                              c:/program files/microchip/xc32/v2.40/bin/bin/../../lib/gcc/pic32c/6.2.1\libgcc.a(_arm_cmpsf2.o) (__lesf2)
c:/program files/microchip/xc32/v2.40/bin/bin/../../lib/gcc/pic32c/6.2.1/../../../../pic32c/lib\libc_nano.a(lib_a-atof.o)
                              build/sam_c21n_xpro/production/_ext/1360937237/moden.o (atof)
c:/program files/microchip/xc32/v2.40/bin/bin/../../lib/gcc/pic32c/6.2.1/../../../../pic32c/lib\libc_nano.a(lib_a-atoi.o)
                              build/sam_c21n_xpro/production/_ext/1360937237/moden.o (atoi)
c:/program files/microchip/xc32/v2.40/bin/bin/../../lib/gcc/pic32c/6.2.1/../../../../pic32c/lib\libc_nano.a(lib_a-init.o)
                              build/sam_c21n_xpro/production/_ext/1758384875/startup_xc32.o (__libc_init_array)
c:/program files/microchip/xc32/v2.40/bin/bin/../../lib/gcc/pic32c/6.2.1/../../../../pic32c/lib\libc_nano.a(lib_a-memcmp.o)
                              build/sam_c21n_xpro/production/_ext/1019481632/emulated_eeprom.o (memcmp)
c:/program files/microchip/xc32/v2.40/bin/bin/../../lib/gcc/pic32c/6.2.1/../../../../pic32c/lib\libc_nano.a(lib_a-memcpy-stub.o)
                              build/sam_c21n_xpro/production/_ext/1360937237/appiot.o (memcpy)
c:/program files/microchip/xc32/v2.40/bin/bin/../../lib/gcc/pic32c/6.2.1/../../../../pic32c/lib\libc_nano.a(lib_a-memset.o)
                              build/sam_c21n_xpro/production/_ext/1360937237/appiot.o (memset)
c:/program files/microchip/xc32/v2.40/bin/bin/../../lib/gcc/pic32c/6.2.1/../../../../pic32c/lib\libc_nano.a(_lib_a-sprintf.cdfFgGnopsuxX.o)
                              (_sprintf_cdfFgGnopsuxX)
c:/program files/microchip/xc32/v2.40/bin/bin/../../lib/gcc/pic32c/6.2.1/../../../../pic32c/lib\libc_nano.a(lib_a-strcat.o)
                              build/sam_c21n_xpro/production/_ext/1360937237/moden.o (strcat)
c:/program files/microchip/xc32/v2.40/bin/bin/../../lib/gcc/pic32c/6.2.1/../../../../pic32c/lib\libc_nano.a(lib_a-strlen.o)
                              build/sam_c21n_xpro/production/_ext/1360937237/appiot.o (strlen)
c:/program files/microchip/xc32/v2.40/bin/bin/../../lib/gcc/pic32c/6.2.1/../../../../pic32c/lib\libc_nano.a(lib_a-strstr.o)
                              build/sam_c21n_xpro/production/_ext/1360937237/moden.o (strstr)
c:/program files/microchip/xc32/v2.40/bin/bin/../../lib/gcc/pic32c/6.2.1/../../../../pic32c/lib\libc_nano.a(lib_a-strtod.o)
                              c:/program files/microchip/xc32/v2.40/bin/bin/../../lib/gcc/pic32c/6.2.1/../../../../pic32c/lib\libc_nano.a(lib_a-atof.o) (strtod)
c:/program files/microchip/xc32/v2.40/bin/bin/../../lib/gcc/pic32c/6.2.1/../../../../pic32c/lib\libc_nano.a(lib_a-strtol.o)
                              c:/program files/microchip/xc32/v2.40/bin/bin/../../lib/gcc/pic32c/6.2.1/../../../../pic32c/lib\libc_nano.a(lib_a-atoi.o) (_strtol_r)
c:/program files/microchip/xc32/v2.40/bin/bin/../../lib/gcc/pic32c/6.2.1/../../../../pic32c/lib\libc_nano.a(lib_a-gdtoa-gethex.o)
                              c:/program files/microchip/xc32/v2.40/bin/bin/../../lib/gcc/pic32c/6.2.1/../../../../pic32c/lib\libc_nano.a(lib_a-strtod.o) (__gethex)
c:/program files/microchip/xc32/v2.40/bin/bin/../../lib/gcc/pic32c/6.2.1/../../../../pic32c/lib\libc_nano.a(lib_a-gdtoa-hexnan.o)
                              c:/program files/microchip/xc32/v2.40/bin/bin/../../lib/gcc/pic32c/6.2.1/../../../../pic32c/lib\libc_nano.a(lib_a-strtod.o) (__match)
c:/program files/microchip/xc32/v2.40/bin/bin/../../lib/gcc/pic32c/6.2.1/../../../../pic32c/lib\libc_nano.a(lib_a-impure.o)
                              c:/program files/microchip/xc32/v2.40/bin/bin/../../lib/gcc/pic32c/6.2.1/../../../../pic32c/lib\libc_nano.a(lib_a-strtod.o) (_impure_ptr)
c:/program files/microchip/xc32/v2.40/bin/bin/../../lib/gcc/pic32c/6.2.1/../../../../pic32c/lib\libc_nano.a(lib_a-localeconv.o)
                              c:/program files/microchip/xc32/v2.40/bin/bin/../../lib/gcc/pic32c/6.2.1/../../../../pic32c/lib\libc_nano.a(lib_a-strtod.o) (__localeconv_l)
c:/program files/microchip/xc32/v2.40/bin/bin/../../lib/gcc/pic32c/6.2.1/../../../../pic32c/lib\libc_nano.a(lib_a-locale.o)
                              c:/program files/microchip/xc32/v2.40/bin/bin/../../lib/gcc/pic32c/6.2.1/../../../../pic32c/lib\libc_nano.a(lib_a-strtol.o) (__locale_ctype_ptr_l)
c:/program files/microchip/xc32/v2.40/bin/bin/../../lib/gcc/pic32c/6.2.1/../../../../pic32c/lib\libc_nano.a(lib_a-mbtowc_r.o)
                              c:/program files/microchip/xc32/v2.40/bin/bin/../../lib/gcc/pic32c/6.2.1/../../../../pic32c/lib\libc_nano.a(lib_a-locale.o) (__ascii_mbtowc)
c:/program files/microchip/xc32/v2.40/bin/bin/../../lib/gcc/pic32c/6.2.1/../../../../pic32c/lib\libc_nano.a(lib_a-mprec.o)
                              c:/program files/microchip/xc32/v2.40/bin/bin/../../lib/gcc/pic32c/6.2.1/../../../../pic32c/lib\libc_nano.a(lib_a-strtod.o) (_Balloc)
c:/program files/microchip/xc32/v2.40/bin/bin/../../lib/gcc/pic32c/6.2.1/../../../../pic32c/lib\libc_nano.a(lib_a-nano-callocr.o)
                              c:/program files/microchip/xc32/v2.40/bin/bin/../../lib/gcc/pic32c/6.2.1/../../../../pic32c/lib\libc_nano.a(lib_a-mprec.o) (_calloc_r)
c:/program files/microchip/xc32/v2.40/bin/bin/../../lib/gcc/pic32c/6.2.1/../../../../pic32c/lib\libc_nano.a(lib_a-nano-mallocr.o)
                              c:/program files/microchip/xc32/v2.40/bin/bin/../../lib/gcc/pic32c/6.2.1/../../../../pic32c/lib\libc_nano.a(lib_a-nano-callocr.o) (_malloc_r)
c:/program files/microchip/xc32/v2.40/bin/bin/../../lib/gcc/pic32c/6.2.1/../../../../pic32c/lib\libc_nano.a(_lib_a-nano-vfprintf.cdfFgGnopsuxX.o)
                              c:/program files/microchip/xc32/v2.40/bin/bin/../../lib/gcc/pic32c/6.2.1/../../../../pic32c/lib\libc_nano.a(_lib_a-sprintf.cdfFgGnopsuxX.o) (_vfprintf_cdfFgGnopsuxX)
c:/program files/microchip/xc32/v2.40/bin/bin/../../lib/gcc/pic32c/6.2.1/../../../../pic32c/lib\libc_nano.a(lib_a-nano-vfprintf_i.o)
                              c:/program files/microchip/xc32/v2.40/bin/bin/../../lib/gcc/pic32c/6.2.1/../../../../pic32c/lib\libc_nano.a(_lib_a-nano-vfprintf.cdfFgGnopsuxX.o) (_printf_common)
c:/program files/microchip/xc32/v2.40/bin/bin/../../lib/gcc/pic32c/6.2.1/../../../../pic32c/lib\libc_nano.a(lib_a-sbrkr.o)
                              c:/program files/microchip/xc32/v2.40/bin/bin/../../lib/gcc/pic32c/6.2.1/../../../../pic32c/lib\libc_nano.a(lib_a-nano-mallocr.o) (_sbrk_r)
c:/program files/microchip/xc32/v2.40/bin/bin/../../lib/gcc/pic32c/6.2.1/../../../../pic32c/lib\libc_nano.a(lib_a-sf_nan.o)
                              c:/program files/microchip/xc32/v2.40/bin/bin/../../lib/gcc/pic32c/6.2.1/../../../../pic32c/lib\libc_nano.a(lib_a-strtod.o) (nanf)
c:/program files/microchip/xc32/v2.40/bin/bin/../../lib/gcc/pic32c/6.2.1/../../../../pic32c/lib\libc_nano.a(lib_a-__ssfputs.o)
                              c:/program files/microchip/xc32/v2.40/bin/bin/../../lib/gcc/pic32c/6.2.1/../../../../pic32c/lib\libc_nano.a(_lib_a-nano-vfprintf.cdfFgGnopsuxX.o) (__ssfputs_r)
c:/program files/microchip/xc32/v2.40/bin/bin/../../lib/gcc/pic32c/6.2.1/../../../../pic32c/lib\libc_nano.a(lib_a-strcmp.o)
                              c:/program files/microchip/xc32/v2.40/bin/bin/../../lib/gcc/pic32c/6.2.1/../../../../pic32c/lib\libc_nano.a(lib_a-locale.o) (strcmp)
c:/program files/microchip/xc32/v2.40/bin/bin/../../lib/gcc/pic32c/6.2.1/../../../../pic32c/lib\libc_nano.a(lib_a-strncmp.o)
                              c:/program files/microchip/xc32/v2.40/bin/bin/../../lib/gcc/pic32c/6.2.1/../../../../pic32c/lib\libc_nano.a(lib_a-strtod.o) (strncmp)
c:/program files/microchip/xc32/v2.40/bin/bin/../../lib/gcc/pic32c/6.2.1/../../../../pic32c/lib\libc_nano.a(lib_a-wbuf.o)
                              c:/program files/microchip/xc32/v2.40/bin/bin/../../lib/gcc/pic32c/6.2.1/../../../../pic32c/lib\libc_nano.a(lib_a-__ssfputs.o) (__swbuf_r)
c:/program files/microchip/xc32/v2.40/bin/bin/../../lib/gcc/pic32c/6.2.1/../../../../pic32c/lib\libc_nano.a(lib_a-wctomb_r.o)
                              c:/program files/microchip/xc32/v2.40/bin/bin/../../lib/gcc/pic32c/6.2.1/../../../../pic32c/lib\libc_nano.a(lib_a-locale.o) (__ascii_wctomb)
c:/program files/microchip/xc32/v2.40/bin/bin/../../lib/gcc/pic32c/6.2.1/../../../../pic32c/lib\libc_nano.a(lib_a-wsetup.o)
                              c:/program files/microchip/xc32/v2.40/bin/bin/../../lib/gcc/pic32c/6.2.1/../../../../pic32c/lib\libc_nano.a(_lib_a-nano-vfprintf.cdfFgGnopsuxX.o) (__swsetup_r)
c:/program files/microchip/xc32/v2.40/bin/bin/../../lib/gcc/pic32c/6.2.1/../../../../pic32c/lib\libc_nano.a(lib_a-ctype_.o)
                              c:/program files/microchip/xc32/v2.40/bin/bin/../../lib/gcc/pic32c/6.2.1/../../../../pic32c/lib\libc_nano.a(lib_a-locale.o) (_ctype_)
c:/program files/microchip/xc32/v2.40/bin/bin/../../lib/gcc/pic32c/6.2.1/../../../../pic32c/lib\libc_nano.a(lib_a-dtoa.o)
                              c:/program files/microchip/xc32/v2.40/bin/bin/../../lib/gcc/pic32c/6.2.1/../../../../pic32c/lib\libc_nano.a(_lib_a-nano-vfprintf.cdfFgGnopsuxX.o) (_dtoa_r)
c:/program files/microchip/xc32/v2.40/bin/bin/../../lib/gcc/pic32c/6.2.1/../../../../pic32c/lib\libc_nano.a(lib_a-fflush.o)
                              c:/program files/microchip/xc32/v2.40/bin/bin/../../lib/gcc/pic32c/6.2.1/../../../../pic32c/lib\libc_nano.a(lib_a-wbuf.o) (_fflush_r)
c:/program files/microchip/xc32/v2.40/bin/bin/../../lib/gcc/pic32c/6.2.1/../../../../pic32c/lib\libc_nano.a(lib_a-findfp.o)
                              c:/program files/microchip/xc32/v2.40/bin/bin/../../lib/gcc/pic32c/6.2.1/../../../../pic32c/lib\libc_nano.a(_lib_a-nano-vfprintf.cdfFgGnopsuxX.o) (__sinit)
c:/program files/microchip/xc32/v2.40/bin/bin/../../lib/gcc/pic32c/6.2.1/../../../../pic32c/lib\libc_nano.a(lib_a-fputwc.o)
                              c:/program files/microchip/xc32/v2.40/bin/bin/../../lib/gcc/pic32c/6.2.1/../../../../pic32c/lib\libc_nano.a(lib_a-__ssfputs.o) (_fputwc_r)
c:/program files/microchip/xc32/v2.40/bin/bin/../../lib/gcc/pic32c/6.2.1/../../../../pic32c/lib\libc_nano.a(lib_a-fwalk.o)
                              c:/program files/microchip/xc32/v2.40/bin/bin/../../lib/gcc/pic32c/6.2.1/../../../../pic32c/lib\libc_nano.a(lib_a-fflush.o) (_fwalk_reent)
c:/program files/microchip/xc32/v2.40/bin/bin/../../lib/gcc/pic32c/6.2.1/../../../../pic32c/lib\libc_nano.a(lib_a-makebuf.o)
                              c:/program files/microchip/xc32/v2.40/bin/bin/../../lib/gcc/pic32c/6.2.1/../../../../pic32c/lib\libc_nano.a(lib_a-wsetup.o) (__smakebuf_r)
c:/program files/microchip/xc32/v2.40/bin/bin/../../lib/gcc/pic32c/6.2.1/../../../../pic32c/lib\libc_nano.a(lib_a-malloc.o)
                              c:/program files/microchip/xc32/v2.40/bin/bin/../../lib/gcc/pic32c/6.2.1/../../../../pic32c/lib\libc_nano.a(lib_a-mprec.o) (malloc)
c:/program files/microchip/xc32/v2.40/bin/bin/../../lib/gcc/pic32c/6.2.1/../../../../pic32c/lib\libc_nano.a(lib_a-memchr-stub.o)
                              c:/program files/microchip/xc32/v2.40/bin/bin/../../lib/gcc/pic32c/6.2.1/../../../../pic32c/lib\libc_nano.a(_lib_a-nano-vfprintf.cdfFgGnopsuxX.o) (memchr)
c:/program files/microchip/xc32/v2.40/bin/bin/../../lib/gcc/pic32c/6.2.1/../../../../pic32c/lib\libc_nano.a(lib_a-mlock.o)
                              c:/program files/microchip/xc32/v2.40/bin/bin/../../lib/gcc/pic32c/6.2.1/../../../../pic32c/lib\libc_nano.a(lib_a-nano-mallocr.o) (__malloc_lock)
c:/program files/microchip/xc32/v2.40/bin/bin/../../lib/gcc/pic32c/6.2.1/../../../../pic32c/lib\libc_nano.a(lib_a-nano-freer.o)
                              c:/program files/microchip/xc32/v2.40/bin/bin/../../lib/gcc/pic32c/6.2.1/../../../../pic32c/lib\libc_nano.a(lib_a-wsetup.o) (_free_r)
c:/program files/microchip/xc32/v2.40/bin/bin/../../lib/gcc/pic32c/6.2.1/../../../../pic32c/lib\libc_nano.a(lib_a-reent.o)
                              c:/program files/microchip/xc32/v2.40/bin/bin/../../lib/gcc/pic32c/6.2.1/../../../../pic32c/lib\libc_nano.a(lib_a-sbrkr.o) (errno)
c:/program files/microchip/xc32/v2.40/bin/bin/../../lib/gcc/pic32c/6.2.1/../../../../pic32c/lib\libc_nano.a(lib_a-stdio.o)
                              c:/program files/microchip/xc32/v2.40/bin/bin/../../lib/gcc/pic32c/6.2.1/../../../../pic32c/lib\libc_nano.a(lib_a-findfp.o) (__sread)
c:/program files/microchip/xc32/v2.40/bin/bin/../../lib/gcc/pic32c/6.2.1/../../../../pic32c/lib\libc_nano.a(lib_a-wcrtomb.o)
                              c:/program files/microchip/xc32/v2.40/bin/bin/../../lib/gcc/pic32c/6.2.1/../../../../pic32c/lib\libc_nano.a(lib_a-fputwc.o) (_wcrtomb_r)
c:/program files/microchip/xc32/v2.40/bin/bin/../../lib/gcc/pic32c/6.2.1/../../../../pic32c/lib\libc_nano.a(lib_a-writer.o)
                              c:/program files/microchip/xc32/v2.40/bin/bin/../../lib/gcc/pic32c/6.2.1/../../../../pic32c/lib\libc_nano.a(lib_a-stdio.o) (_write_r)
c:/program files/microchip/xc32/v2.40/bin/bin/../../lib/gcc/pic32c/6.2.1/../../../../pic32c/lib\libc_nano.a(lib_a-closer.o)
                              c:/program files/microchip/xc32/v2.40/bin/bin/../../lib/gcc/pic32c/6.2.1/../../../../pic32c/lib\libc_nano.a(lib_a-stdio.o) (_close_r)
c:/program files/microchip/xc32/v2.40/bin/bin/../../lib/gcc/pic32c/6.2.1/../../../../pic32c/lib\libc_nano.a(lib_a-fstatr.o)
                              c:/program files/microchip/xc32/v2.40/bin/bin/../../lib/gcc/pic32c/6.2.1/../../../../pic32c/lib\libc_nano.a(lib_a-makebuf.o) (_fstat_r)
c:/program files/microchip/xc32/v2.40/bin/bin/../../lib/gcc/pic32c/6.2.1/../../../../pic32c/lib\libc_nano.a(lib_a-isattyr.o)
                              c:/program files/microchip/xc32/v2.40/bin/bin/../../lib/gcc/pic32c/6.2.1/../../../../pic32c/lib\libc_nano.a(lib_a-makebuf.o) (_isatty_r)
c:/program files/microchip/xc32/v2.40/bin/bin/../../lib/gcc/pic32c/6.2.1/../../../../pic32c/lib\libc_nano.a(lib_a-lseekr.o)
                              c:/program files/microchip/xc32/v2.40/bin/bin/../../lib/gcc/pic32c/6.2.1/../../../../pic32c/lib\libc_nano.a(lib_a-stdio.o) (_lseek_r)
c:/program files/microchip/xc32/v2.40/bin/bin/../../lib/gcc/pic32c/6.2.1/../../../../pic32c/lib\libc_nano.a(lib_a-readr.o)
                              c:/program files/microchip/xc32/v2.40/bin/bin/../../lib/gcc/pic32c/6.2.1/../../../../pic32c/lib\libc_nano.a(lib_a-stdio.o) (_read_r)
c:/program files/microchip/xc32/v2.40/bin/bin/../../lib/gcc/pic32c/6.2.1/../../../../pic32c/lib\libpic32c.a(_close.o)
                              c:/program files/microchip/xc32/v2.40/bin/bin/../../lib/gcc/pic32c/6.2.1/../../../../pic32c/lib\libc_nano.a(lib_a-closer.o) (_close)
c:/program files/microchip/xc32/v2.40/bin/bin/../../lib/gcc/pic32c/6.2.1/../../../../pic32c/lib\libpic32c.a(_fstat.o)
                              c:/program files/microchip/xc32/v2.40/bin/bin/../../lib/gcc/pic32c/6.2.1/../../../../pic32c/lib\libc_nano.a(lib_a-fstatr.o) (_fstat)
c:/program files/microchip/xc32/v2.40/bin/bin/../../lib/gcc/pic32c/6.2.1/../../../../pic32c/lib\libpic32c.a(_isatty.o)
                              c:/program files/microchip/xc32/v2.40/bin/bin/../../lib/gcc/pic32c/6.2.1/../../../../pic32c/lib\libc_nano.a(lib_a-isattyr.o) (_isatty)
c:/program files/microchip/xc32/v2.40/bin/bin/../../lib/gcc/pic32c/6.2.1/../../../../pic32c/lib\libpic32c.a(_lseek.o)
                              c:/program files/microchip/xc32/v2.40/bin/bin/../../lib/gcc/pic32c/6.2.1/../../../../pic32c/lib\libc_nano.a(lib_a-lseekr.o) (_lseek)
c:/program files/microchip/xc32/v2.40/bin/bin/../../lib/gcc/pic32c/6.2.1/../../../../pic32c/lib\libpic32c.a(_read.o)
                              c:/program files/microchip/xc32/v2.40/bin/bin/../../lib/gcc/pic32c/6.2.1/../../../../pic32c/lib\libc_nano.a(lib_a-readr.o) (_read)
c:/program files/microchip/xc32/v2.40/bin/bin/../../lib/gcc/pic32c/6.2.1/../../../../pic32c/lib\libpic32c.a(sbrk.o)
                              c:/program files/microchip/xc32/v2.40/bin/bin/../../lib/gcc/pic32c/6.2.1/../../../../pic32c/lib\libc_nano.a(lib_a-sbrkr.o) (_sbrk)
c:/program files/microchip/xc32/v2.40/bin/bin/../../lib/gcc/pic32c/6.2.1/../../../../pic32c/lib\libpic32c.a(_write.o)
                              c:/program files/microchip/xc32/v2.40/bin/bin/../../lib/gcc/pic32c/6.2.1/../../../../pic32c/lib\libc_nano.a(lib_a-writer.o) (_write)
c:/program files/microchip/xc32/v2.40/bin/bin/../../lib/gcc/pic32c/6.2.1/../../../../pic32c/lib\libpic32c.a(close.o)
                              c:/program files/microchip/xc32/v2.40/bin/bin/../../lib/gcc/pic32c/6.2.1/../../../../pic32c/lib\libpic32c.a(_close.o) (close)
c:/program files/microchip/xc32/v2.40/bin/bin/../../lib/gcc/pic32c/6.2.1/../../../../pic32c/lib\libpic32c.a(fstat.o)
                              c:/program files/microchip/xc32/v2.40/bin/bin/../../lib/gcc/pic32c/6.2.1/../../../../pic32c/lib\libpic32c.a(_fstat.o) (fstat)
c:/program files/microchip/xc32/v2.40/bin/bin/../../lib/gcc/pic32c/6.2.1/../../../../pic32c/lib\libpic32c.a(isatty.o)
                              c:/program files/microchip/xc32/v2.40/bin/bin/../../lib/gcc/pic32c/6.2.1/../../../../pic32c/lib\libpic32c.a(_isatty.o) (isatty)
c:/program files/microchip/xc32/v2.40/bin/bin/../../lib/gcc/pic32c/6.2.1/../../../../pic32c/lib\libpic32c.a(lseek.o)
                              c:/program files/microchip/xc32/v2.40/bin/bin/../../lib/gcc/pic32c/6.2.1/../../../../pic32c/lib\libpic32c.a(_lseek.o) (lseek)
c:/program files/microchip/xc32/v2.40/bin/bin/../../lib/gcc/pic32c/6.2.1\libgcc.a(_divsi3.o)
                              c:/program files/microchip/xc32/v2.40/bin/bin/../../lib/gcc/pic32c/6.2.1/../../../../pic32c/lib\libc_nano.a(lib_a-mprec.o) (__aeabi_idiv)
c:/program files/microchip/xc32/v2.40/bin/bin/../../lib/gcc/pic32c/6.2.1\libgcc.a(_arm_cmpdf2.o)
                              c:/program files/microchip/xc32/v2.40/bin/bin/../../lib/gcc/pic32c/6.2.1/../../../../pic32c/lib\libc_nano.a(lib_a-strtod.o) (__aeabi_dcmpeq)
c:/program files/microchip/xc32/v2.40/bin/bin/../../lib/gcc/pic32c/6.2.1\libgcc.a(_fixunsdfsi.o)
                              c:/program files/microchip/xc32/v2.40/bin/bin/../../lib/gcc/pic32c/6.2.1/../../../../pic32c/lib\libc_nano.a(lib_a-strtod.o) (__aeabi_d2uiz)
c:/program files/microchip/xc32/v2.40/bin/bin/../../lib/gcc/pic32c/6.2.1\libgcc.a(adddf3.o)
                              c:/program files/microchip/xc32/v2.40/bin/bin/../../lib/gcc/pic32c/6.2.1/../../../../pic32c/lib\libc_nano.a(lib_a-strtod.o) (__aeabi_dadd)
c:/program files/microchip/xc32/v2.40/bin/bin/../../lib/gcc/pic32c/6.2.1\libgcc.a(divdf3.o)
                              c:/program files/microchip/xc32/v2.40/bin/bin/../../lib/gcc/pic32c/6.2.1/../../../../pic32c/lib\libc_nano.a(lib_a-strtod.o) (__aeabi_ddiv)
c:/program files/microchip/xc32/v2.40/bin/bin/../../lib/gcc/pic32c/6.2.1\libgcc.a(eqdf2.o)
                              c:/program files/microchip/xc32/v2.40/bin/bin/../../lib/gcc/pic32c/6.2.1\libgcc.a(_arm_cmpdf2.o) (__eqdf2)
c:/program files/microchip/xc32/v2.40/bin/bin/../../lib/gcc/pic32c/6.2.1\libgcc.a(gedf2.o)
                              c:/program files/microchip/xc32/v2.40/bin/bin/../../lib/gcc/pic32c/6.2.1\libgcc.a(_arm_cmpdf2.o) (__gedf2)
c:/program files/microchip/xc32/v2.40/bin/bin/../../lib/gcc/pic32c/6.2.1\libgcc.a(ledf2.o)
                              c:/program files/microchip/xc32/v2.40/bin/bin/../../lib/gcc/pic32c/6.2.1\libgcc.a(_arm_cmpdf2.o) (__ledf2)
c:/program files/microchip/xc32/v2.40/bin/bin/../../lib/gcc/pic32c/6.2.1\libgcc.a(subdf3.o)
                              c:/program files/microchip/xc32/v2.40/bin/bin/../../lib/gcc/pic32c/6.2.1/../../../../pic32c/lib\libc_nano.a(lib_a-strtod.o) (__aeabi_dsub)
c:/program files/microchip/xc32/v2.40/bin/bin/../../lib/gcc/pic32c/6.2.1\libgcc.a(unorddf2.o)
                              c:/program files/microchip/xc32/v2.40/bin/bin/../../lib/gcc/pic32c/6.2.1/../../../../pic32c/lib\libc_nano.a(lib_a-strtod.o) (__aeabi_dcmpun)
c:/program files/microchip/xc32/v2.40/bin/bin/../../lib/gcc/pic32c/6.2.1\libgcc.a(fixdfsi.o)
                              c:/program files/microchip/xc32/v2.40/bin/bin/../../lib/gcc/pic32c/6.2.1/../../../../pic32c/lib\libc_nano.a(lib_a-strtod.o) (__aeabi_d2iz)
c:/program files/microchip/xc32/v2.40/bin/bin/../../lib/gcc/pic32c/6.2.1\libgcc.a(floatunsidf.o)
                              c:/program files/microchip/xc32/v2.40/bin/bin/../../lib/gcc/pic32c/6.2.1/../../../../pic32c/lib\libc_nano.a(lib_a-strtod.o) (__aeabi_ui2d)

Allocating common symbols
Common symbol       size              file

_moden              0x45c             build/sam_c21n_xpro/production/_ext/1360937237/moden.o
mqtttime            0x4               build/sam_c21n_xpro/production/_ext/1360937237/appiot.o
rx_message          0x8               build/sam_c21n_xpro/production/_ext/1360937237/canapp.o
appCAN              0x1               build/sam_c21n_xpro/production/_ext/1360937237/canapp.o
errno               0x4               c:/program files/microchip/xc32/v2.40/bin/bin/../../lib/gcc/pic32c/6.2.1/../../../../pic32c/lib\libc_nano.a(lib_a-reent.o)
Can0MessageRAM      0x224             build/sam_c21n_xpro/production/_ext/1360937237/canapp.o
_moden_cmd_data     0x1               build/sam_c21n_xpro/production/_ext/1360937237/moden.o
message             0xa               build/sam_c21n_xpro/production/_ext/1360937237/canapp.o
_appdata            0x1               build/sam_c21n_xpro/production/_ext/1360937237/appemueeprom.o
appData             0x1               build/sam_c21n_xpro/production/_ext/1360937237/app.o
_iotdata            0x1               build/sam_c21n_xpro/production/_ext/1360937237/appiot.o
mcahineData         0x4               build/sam_c21n_xpro/production/_ext/1360937237/appiot.o
buffer              0x200             build/sam_c21n_xpro/production/_ext/1360937237/appuart.o
CAN_ECU_Data_1      0x40              build/sam_c21n_xpro/production/_ext/1360937237/canapp.o
sysObj              0x10              build/sam_c21n_xpro/production/_ext/1758384875/initialization.o
rxBuffer            0x200             build/sam_c21n_xpro/production/_ext/1360937237/appuart.o
ecu_init            0x10              build/sam_c21n_xpro/production/_ext/1360937237/canapp.o
_iotram             0x18              build/sam_c21n_xpro/production/_ext/1360937237/appiot.o
_iottimer           0x10              build/sam_c21n_xpro/production/_ext/1360937237/appiot.o
platformrxbuffer    0x200             build/sam_c21n_xpro/production/_ext/1360937237/appuart.o
rx0_buf             0xc8              build/sam_c21n_xpro/production/_ext/1360937237/canapp.o
_canrx0buffer       0xc8              build/sam_c21n_xpro/production/_ext/1360937237/canapp.o

Microchip PIC32 Memory-Usage Report

ROM Program-Memory Usage
section                    address  length [bytes]      (dec)  Description
-------                 ----------  -------------------------  -----------
.vectors                         0           0xbc         188   
.text                         0xbc           0x20          32  App's exec code 
.ARM.exidx                    0xdc            0x8           8   
.text.SendATCOmmand           0xe4         0x3748       14152   
.text._strtod_l             0x382c          0xc0c        3084   
.text._dtoa_r               0x4438          0xbbc        3004   
.rodata                     0x4ff4          0x818        2072  Read-only const 
.text                       0x580c          0x5b0        1456  App's exec code 
.dinit                      0x5dbc          0x5b0        1456   
.text                       0x636c          0x5a0        1440  App's exec code 
.text.__printf_float        0x690c          0x574        1396   
.text                       0x6e80          0x544        1348  App's exec code 
.text.__gethex              0x73c4          0x44e        1102   
.text.emnueeprom_init       0x7812            0x2           2   
.text.CAN0_InterruptHan     0x7814          0x440        1088   
.text._vfprintf_r_cdfFg     0x7c54          0x42c        1068   
.text                       0x8080          0x9fc        2556  App's exec code 
.text.moden_main            0x8a7c          0x25c         604   
.text.SERCOM1_USART_Int     0x8cd8          0x21c         540   
.text.SERCOM0_USART_Int     0x8ef4          0x21c         540   
.rodata                     0x9110          0x208         520  Read-only const 
.text.iot_data_pack         0x9318          0x1fc         508   
.text                       0x9514          0x398         920  App's exec code 
.text.SERCOM2_I2C_Inter     0x98ac          0x1b0         432   
.text.timer_main            0x9a5c          0x164         356   
.text.CAN0_MessageRecei     0x9bc0          0x158         344   
.text.can_main              0x9d18          0x140         320   
.text.SERCOM1_USART_Ser     0x9e58          0x13c         316   
.text.SERCOM0_USART_Ser     0x9f94          0x13c         316   
.text.__hexnan              0xa0d0          0x12e         302   
.text.__multiply            0xa1fe          0x11e         286   
.text.__sflush_r            0xa31c          0x114         276   
.text.EMU_EEPROM_PageMa     0xa430          0x110         272   
.text.SERCOM1_USART_Wri     0xa540          0x10c         268   
.text.SERCOM0_USART_Wri     0xa64c          0x10c         268   
.text._strtol_l.isra.0      0xa758          0x10c         268   
.text.quorem                0xa864          0x108         264   
.rodata._ctype_             0xa96c          0x101         257   
.text                       0xaa70          0x100         256  App's exec code 
.text.CAN0_MessageRAMCo     0xab70           0xf4         244   
.text.CLOCK_Initialize      0xac64           0xec         236   
.text.__swsetup_r           0xad50           0xec         236   
.text                       0xae3c           0xe2         226  App's exec code 
.text.EVSYS_Initialize      0xaf1e            0x2           2   
.rodata                     0xaf20           0xdc         220  Read-only const 
.text._printf_common        0xaffc           0xda         218   
.text.Dummy_Handler         0xb0d6            0x2           2   
.text.init_moden            0xb0d8           0xd8         216   
.text._DRV_AT24_Write       0xb1b0           0xd8         216   
.text.__swbuf_r             0xb288           0xcc         204   
.text.__mdiff               0xb354           0xc8         200   
.rodata.can0StdFilter       0xb41c            0x4           4   
.rodata.__mprec_tens        0xb420           0xc8         200   
.text.fill_motorpm          0xb4e8           0xc0         192   
.text._I2CEventHandler      0xb5a8           0xbc         188   
.text._malloc_r             0xb664           0xbc         188   
.text                       0xb720           0xb0         176  App's exec code 
.text.DRV_USART_Initial     0xb7d0           0xa8         168   
.text.__d2b                 0xb878           0xa8         168   
.text                       0xb920           0xa8         168  App's exec code 
.text.__lshift              0xb9c8           0xa2         162   
.text.NonMaskableInt_Ha     0xba6a            0x2           2   
.text.PORT_Initialize       0xba6c           0xa0         160   
.text.__pow5mult            0xbb0c           0xa0         160   
.text                       0xbbac          0x138         312  App's exec code 
.text.__b2d                 0xbce4           0x98         152   
.text.SERCOM1_USART_Rea     0xbd7c           0x94         148   
.text.SERCOM0_USART_Rea     0xbe10           0x94         148   
.text._free_r               0xbea4           0x94         148   
.text.CAN0_Initialize       0xbf38           0x90         144   
.text.__pic32c_data_ini     0xbfc8           0x90         144   
.text.SERCOM1_USART_Ini     0xc058           0x8c         140   
.text.SERCOM0_USART_Ini     0xc0e4           0x8c         140   
.text                       0xc170          0x110         272  App's exec code 
.text.__sfp                 0xc280           0x80         128   
.text.__s2b                 0xc300           0x7e         126   
.text.HardFault_Handler     0xc37e            0x2           2   
.text.EIC_Initialize        0xc380           0x7c         124   
.text.NVIC_Initialize       0xc3fc           0x7c         124   
.text.SYS_Initialize        0xc478           0x7c         124   
.text.__fputwc              0xc4f4           0x7c         124   
.text.__smakebuf_r          0xc570           0x7c         124   
.text                       0xc5ec           0x7c         124  App's exec code 
.text.__multadd             0xc668           0x78         120   
.text                       0xc6e0           0xe8         232  App's exec code 
.text._Balloc               0xc7c8           0x70         112   
.text                       0xc838           0x70         112  App's exec code 
.text.EMU_EEPROM_Initia     0xc8a8           0x68         104   
.text.__sinit               0xc910           0x68         104   
.text                       0xc978           0x68         104  App's exec code 
.text.rshift                0xc9e0           0x64         100   
.text                       0xca44           0x64         100  App's exec code 
.text.SERCOM2_I2C_Initi     0xcaa8           0x60          96   
.text.__lo0bits             0xcb08           0x5e          94   
.text.Dummy_App_Func        0xcb66            0x2           2   
.text.SetCANData4           0xcb68           0x5c          92   
.text.can_init              0xcbc4           0x5c          92   
.text.DRV_AT24_Initiali     0xcc20           0x5c          92   
.text._fflush_r             0xcc7c           0x58          88   
.text.SERCOM2_I2C_Initi     0xccd4           0x54          84   
.text.main                  0xcd28           0x54          84   
.text.ReadMotoID            0xcd7c           0x50          80   
.text._DRV_USART_RX_PLI     0xcdcc           0x50          80   
.text.EMU_EEPROM_IsVali     0xce1c           0x50          80   
.text.ADC0_Initialize       0xce6c           0x50          80   
.text.__swhatbuf_r          0xcebc           0x50          80   
.text.__ratio               0xcf0c           0x4e          78   
.text.__malloc_lock         0xcf5a            0x2           2   
.text.SetCANData1           0xcf5c           0x4c          76   
.text.timer_update          0xcfa8           0x4c          76   
.text.__ulp                 0xcff4           0x4c          76   
.text._wcrtomb_r            0xd040           0x4c          76   
.text                       0xd08c           0x48          72  App's exec code 
.text.fill_batvoltage       0xd0d4           0x48          72   
.text.fill_crankavgpowe     0xd11c           0x48          72   
.text.fill_motoavgpower     0xd164           0x48          72   
.text.calculateODO          0xd1ac           0x48          72   
.text.EIC_InterruptHand     0xd1f4           0x48          72   
.text.Reset_Handler         0xd23c           0x48          72   
.text.__libc_init_array     0xd284           0x48          72   
.text.__ssfputs_r           0xd2cc           0x48          72   
.text.std.isra.0            0xd314           0x48          72   
.rodata                     0xd35c           0x45          69  Read-only const 
.text.__any_on              0xd3a2           0x44          68   
.text                       0xd3e6           0x42          66  App's exec code 
.text._fwalk_reent          0xd428           0x42          66   
.text.__malloc_unlock       0xd46a            0x2           2   
.text.SYSTICK_DelayMs       0xd46c           0x40          64   
.text                       0xd4ac           0x40          64  App's exec code 
.text._sprintf_cdfFgGno     0xd4ec           0x40          64   
.text.iot_main              0xd52c           0x3c          60   
.text                       0xd568           0x78         120  App's exec code 
.text.init_iot              0xd5e0           0x38          56   
.text.fill_speed            0xd618           0x38          56   
.text.SERCOM2_I2C_Read      0xd650           0x38          56   
.text.SERCOM2_I2C_Write     0xd688           0x38          56   
.text.__swrite              0xd6c0           0x38          56   
.text                       0xd6f8           0x38          56  App's exec code 
.text.fill_crankrpm         0xd730           0x34          52   
.text.fill_mototempture     0xd764           0x34          52   
.text.SERCOM2_I2C_Write     0xd798           0x34          52   
.text.__hi0bits             0xd7cc           0x34          52   
.text                       0xd800           0x34          52  App's exec code 
.text._Bfree                0xd834           0x32          50   
.text.__mcmp                0xd866           0x32          50   
.text.usartReadEventHan     0xd898           0x30          48   
.text.usartWriteEventHa     0xd8c8           0x30          48   
.text.strstr                0xd8f8           0x30          48   
.text.sulp                  0xd928           0x30          48   
.text._sbrk                 0xd958           0x30          48   
.text.precalculateODO       0xd988           0x2c          44   
.text.CAN0_ErrorGet         0xd9b4           0x2c          44   
.rodata.drvUsart0PlibAP     0xd9e0           0x2c          44   
.rodata.drvUsart1PlibAP     0xda0c           0x2c          44   
.text.__copybits            0xda38           0x2c          44   
.text.__sfmoreglue          0xda64           0x2c          44   
.text.__sseek               0xda90           0x2c          44   
.text.__hexdig_fun          0xdabc           0x2a          42   
.text.__sfputc_r            0xdae6           0x2a          42   
.text.usart_debug_Write     0xdb10           0x28          40   
.rodata.can0ExtFilter       0xdb38           0x28          40   
.text.SERCOM2_I2C_IsBus     0xdb60           0x28          40   
.rodata.tinytens            0xdb88           0x28          40   
.text.strtol                0xdbb0           0x28          40   
.text.__match               0xdbd8           0x28          40   
.rodata.__mprec_bigtens     0xdc00           0x28          40   
.text.__sread               0xdc28           0x28          40   
.text._write_r              0xdc50           0x28          40   
.text._lseek_r              0xdc78           0x28          40   
.text._read_r               0xdca0           0x28          40   
.text.APP_CAN_RX_Callba     0xdcc8           0x24          36   
.text.readiotdata           0xdcec           0x24          36   
.text.SYSTICK_TimerInit     0xdd10           0x24          36   
.text.SysTick_Handler       0xdd34           0x24          36   
.text.strtod                0xdd58           0x24          36   
.text.__ascii_mbtowc        0xdd7c           0x24          36   
.text._sbrk_r               0xdda0           0x24          36   
.text._close_r              0xddc4           0x24          36   
.text._fstat_r              0xdde8           0x24          36   
.text._isatty_r             0xde0c           0x24          36   
.text.L_shift               0xde30           0x22          34   
.text.strncmp               0xde52           0x22          34   
.text.SetCANData2           0xde74           0x20          32   
.text._DRV_AT24_ReadSta     0xde94           0x20          32   
.text.EMU_EEPROM_NVMRow     0xdeb4           0x20          32   
.rodata.drvUsart0InitDa     0xded4           0x20          32   
.rodata.drvUsart1InitDa     0xdef4           0x20          32   
.rodata.__sf_fake_stder     0xdf14           0x20          32   
.rodata.__sf_fake_stdin     0xdf34           0x20          32   
.rodata.__sf_fake_stdou     0xdf54           0x20          32   
.text.memcmp                0xdf74           0x1e          30   
.text._fputwc_r             0xdf92           0x1e          30   
.text.resetiot              0xdfb0           0x1c          28   
.text.appurat_init          0xdfcc           0x1c          28   
.text.appurat_debug_ini     0xdfe8           0x1c          28   
.text.CANDlcToLengthGet     0xe004           0x1c          28   
.text.SERCOM1_USART_Wri     0xe020           0x1c          28   
.text.SERCOM1_USART_Rea     0xe03c           0x1c          28   
.text.SERCOM0_USART_Wri     0xe058           0x1c          28   
.text.SERCOM0_USART_Rea     0xe074           0x1c          28   
.text.__locale_mb_cur_m     0xe090           0x1c          28   
.text._calloc_r             0xe0ac           0x1c          28   
.text.strcat                0xe0c8           0x1a          26   
.text.APP_CAN_TX_Callba     0xe0e4           0x18          24   
.text.fill_ecuwarncode      0xe0fc           0x18          24   
.text.fill_ecuerrorcode     0xe114           0x18          24   
.text.NVMCTRL_RWWEEPROM     0xe12c           0x18          24   
.rodata.drvAT24InitData     0xe144           0x18          24   
.rodata.drvAT24PlibAPI      0xe15c           0x18          24   
.rodata.drvUsart0remapP     0xe174           0x18          24   
.rodata.drvUsart1remapP     0xe18c           0x18          24   
.text                       0xe1a4           0x48          72  App's exec code 
.text._localeconv_r         0xe1ec           0x18          24   
.text._vfprintf_cdfFgGn     0xe204           0x18          24   
.text.__ascii_wctomb        0xe21c           0x18          24   
.text.memchr                0xe234           0x16          22   
.text.initmachinestates     0xe24c           0x14          20   
.text.ClearRx0              0xe260           0x14          20   
.text.ClerCAN_ECU           0xe274           0x14          20   
.text.CAN0_RxCallbackRe     0xe288           0x14          20   
.text.NVIC_INT_Restore      0xe29c           0x14          20   
.text.NVMCTRL_IsBusy        0xe2b0           0x14          20   
.text.SERCOM1_USART_Wri     0xe2c4           0x14          20   
.text.SERCOM0_USART_Wri     0xe2d8           0x14          20   
.text.SYSTICK_TimerStar     0xe2ec           0x14          20   
.text.WDT_Clear             0xe300           0x14          20   
.rodata.drvUsart0remapD     0xe314           0x14          20   
.rodata.drvUsart1remapD     0xe328           0x14          20   
.text                       0xe33c           0x28          40  App's exec code 
.rodata.fpi.6163            0xe364           0x14          20   
.rodata.fpinan.6199         0xe378           0x14          20   
.text.malloc                0xe38c           0x14          20   
.text.enable_CAN            0xe3a0           0x12          18   
.text.standby_CAN           0xe3b2           0x12          18   
.text.NVIC_INT_Disable      0xe3c4           0x12          18   
.text.memcpy                0xe3d6           0x12          18   
.text.__i2b                 0xe3e8           0x12          18   
.text.incmqtttimer          0xe3fc           0x10          16   
.text.SetCANData3           0xe40c           0x10          16   
.text.inccanbussleeptim     0xe41c           0x10          16   
.text._DRV_USART_TX_PLI     0xe42c           0x10          16   
.text.CAN0_TxCallbackRe     0xe43c           0x10          16   
.rodata                     0xe44c           0x10          16  Read-only const 
.text.SERCOM2_I2C_Error     0xe45c           0x10          16   
.text.SERCOM1_USART_Err     0xe46c           0x10          16   
.text.SERCOM0_USART_Err     0xe47c           0x10          16   
.text.memset                0xe48c           0x10          16   
.text._cleanup_r            0xe49c           0x10          16   
.rodata                     0xe4ac            0xf          15  Read-only const 
.text.usart_debug_ReadE     0xe4bc            0xe          14   
.text                       0xe4ca            0xe          14  App's exec code 
.text.setmcahinestates      0xe4d8            0xc          12   
.text.init_can              0xe4e4            0xc          12   
.text.readcanbussleepti     0xe4f0            0xc          12   
.text.set_canstatenew       0xe4fc            0xc          12   
.text.readOdoFromRam        0xe508            0xc          12   
.text.CAN0_InterruptCle     0xe514            0xc          12   
.text.NVMCTRL_Initializ     0xe520            0xc          12   
.text.PORT_GroupWrite       0xe52c            0xc          12   
.text.SERCOM2_I2C_Callb     0xe538            0xc          12   
.text.SERCOM1_USART_Rea     0xe544            0xc          12   
.text.SERCOM1_USART_Wri     0xe550            0xc          12   
.text.SERCOM0_USART_Rea     0xe55c            0xc          12   
.text.SERCOM0_USART_Wri     0xe568            0xc          12   
.text.SYSTICK_TimerCall     0xe574            0xc          12   
.rodata.drvUsart0remapE     0xe580            0xc          12   
.rodata.drvUsart0remapS     0xe58c            0xc          12   
.rodata.drvUsart1remapE     0xe598            0xc          12   
.rodata.drvUsart1remapS     0xe5a4            0xc          12   
.text.APP_Initialize        0xe5b0            0xc          12   
.text.atoi                  0xe5bc            0xc          12   
.rodata                     0xe5c8            0xc          12  Read-only const 
.rodata.p05.6081            0xe5d4            0xc          12   
.text.__sclose              0xe5e0            0xc          12   
.text.fstat                 0xe5ec            0xc          12   
.rodata                     0xe5f8            0xb          11  Read-only const 
.text.atof                  0xe604            0xa          10   
.text.uart_debug_megssa     0xe60e            0x8           8   
.rodata                     0xe618            0x8           8  Read-only const 
.text.SERCOM1_USART_Wri     0xe620            0x8           8   
.text.SERCOM0_USART_Wri     0xe628            0x8           8   
.text.SYS_INT_Disable       0xe630            0x8           8   
.text.SYS_INT_Restore       0xe638            0x8           8   
.text.timeout_handler       0xe640            0x8           8   
.text._close                0xe648            0x8           8   
.text._fstat                0xe650            0x8           8   
.text._isatty               0xe658            0x8           8   
.text._lseek                0xe660            0x8           8   
.text._read                 0xe668            0x8           8   
.text._write                0xe670            0x8           8   
.text.close                 0xe678            0x8           8   
.text.read                  0xe680            0x6           6   
.text.write                 0xe686            0x6           6   
.text.__locale_ctype_pt     0xe68c            0x6           6   
.text                       0xe694            0x4           4  App's exec code 
.rodata._global_impure_     0xe698            0x4           4   
.text.__localeconv_l        0xe69c            0x4           4   
.text.isatty                0xe6a0            0x4           4   
.text.lseek                 0xe6a4            0x4           4   
      Total ROM used  :      0xe698       59032  22.5% of 0x40000
        --------------------------------------------------------------------------
         Total Program Memory used  :      0xe698       59032  22.5% of 0x40000
        --------------------------------------------------------------------------


RAM Data-Memory Usage
section                    address  length [bytes]      (dec)  Description
-------                 ----------  -------------------------  -----------
.bss                    0x20000000          0xee8        3816  Uninitialized data 
.bss.SERCOM1_USART_Read 0x20000ee8          0x200         512   
.bss.SERCOM1_USART_Writ 0x200010e8          0x200         512   
.bss.SERCOM0_USART_Writ 0x200012e8          0x200         512   
.bss.can0RxMsg          0x200014e8          0x1e0         480   
.bss.SERCOM0_USART_Read 0x200016c8          0x180         384   
.data.__global_locale   0x20001848          0x16c         364   
.bss.eicCallbackObject  0x200019b4           0xc0         192   
.bss.iot                0x20001a74           0x9c         156   
.bss._eeprom_instance   0x20001b10           0x8c         140   
.bss.gDrvUSARTObj       0x20001b9c           0x80         128   
.data.impure_data       0x20001c1c           0x60          96   
.bss.gDrvAT24Obj        0x20001c7c           0x50          80   
.bss.sercom1USARTObj    0x20001ccc           0x40          64   
.bss.sercom0USARTObj    0x20001d0c           0x40          64   
.bss.MeterMqttData      0x20001d4c           0x2c          44   
.bss.sercom2I2CObj      0x20001d78           0x2c          44   
.bss.can0Obj            0x20001da4           0x28          40   
.bss.can0CallbackObj    0x20001dcc           0x20          32   
.bss                    0x20001dec           0x1c          28  Uninitialized data 
.bss.drvUSART0ClientObj 0x20001e08           0x10          16   
.bss.drvUSART1ClientObj 0x20001e18           0x10          16   
.bss.systick            0x20001e28            0xc          12   
.bss.iot_send_data_tick 0x20001e34            0x4           4   
.bss.at_4GLTE_link_chk_ 0x20001e38            0x4           4   
.bss.at_4G_LTE_LOGIN_ti 0x20001e3c            0x4           4   
.bss.at_GPS_tick.8773   0x20001e40            0x4           4   
.bss.at_MQTT_BIDIR_AUTH 0x20001e44            0x4           4   
.bss.at_MQTT_BIDIR_AUTH 0x20001e48            0x4           4   
.bss.at_MQTT_PARA_OPERA 0x20001e4c            0x4           4   
.bss.at_MQTT_TX_UP_DATA 0x20001e50            0x4           4   
.bss.at_NETWORK_STATUS_ 0x20001e54            0x4           4   
.bss.at_READ_tick.8772  0x20001e58            0x4           4   
.bss.at_RELOG_IN_tick.8 0x20001e5c            0x4           4   
.bss.at_module_connect_ 0x20001e60            0x4           4   
.bss.reset_tick.8758    0x20001e64            0x4           4   
.bss.ODOVALUE           0x20001e68            0x4           4   
.bss.ODO_PRE            0x20001e6c            0x4           4   
.bss._f_ODOVALUE        0x20001e70            0x4           4   
.bss.can_rx_tick        0x20001e74            0x4           4   
.bss.canbussleeptimer   0x20001e78            0x4           4   
.bss.messageID          0x20001e7c            0x4           4   
.data.rx_messageID      0x20001e80            0x4           4   
.bss.nBytesRead         0x20001e84            0x4           4   
.bss.time_100ms         0x20001e88            0x4           4   
.bss.time_1ms_bak       0x20001e8c            0x4           4   
.bss.time_1s_count      0x20001e90            0x4           4   
.bss.time_event         0x20001e94            0x4           4   
.bss.timer1ms           0x20001e98            0x4           4   
.bss.timermqttupload    0x20001e9c            0x4           4   
.data.time_full         0x20001ea0            0x4           4   
.data._impure_ptr       0x20001ea4            0x4           4   
.bss.__malloc_free_list 0x20001ea8            0x4           4   
.bss.__malloc_sbrk_star 0x20001eac            0x4           4   
.bss                    0x20001eb0            0x4           4  Uninitialized data 
.bss.at_4GLTE_link_chk_ 0x20001eb4            0x2           2   
.bss.at_4G_LTE_LOGIN_st 0x20001eb6            0x2           2   
.bss.at_GPS_state_bak.8 0x20001eb8            0x2           2   
.bss.at_MQTT_BIDIR_AUTH 0x20001eba            0x2           2   
.bss.at_MQTT_BIDIR_AUTH 0x20001ebc            0x2           2   
.bss.at_MQTT_PARA_OPERA 0x20001ebe            0x2           2   
.bss.at_MQTT_TX_UP_DATA 0x20001ec0            0x2           2   
.bss.at_NETWORK_STATUS_ 0x20001ec2            0x2           2   
.bss.at_RAED_state_bak. 0x20001ec4            0x2           2   
.bss.at_RELOG_IN_state_ 0x20001ec6            0x2           2   
.bss.at_module_connect_ 0x20001ec8            0x2           2   
.bss.count.8406         0x20001eca            0x2           2   
.bss.count.8393         0x20001ecc            0x2           2   
.bss.STATUS_RX_COMPLETE 0x20001ece            0x1           1   
.bss._canstate          0x20001ecf            0x1           1   
.bss._canstatenew       0x20001ed0            0x1           1   
.bss.msgFrameAttr       0x20001ed1            0x1           1   
.bss.odocnt             0x20001ed2            0x1           1   
.bss.rx_messageLength   0x20001ed3            0x1           1   
.data.STATUS_RX_PREPARE 0x20001ed4            0x1           1   
         Total RAM used  :      0x1ed5        7893  24.1% of 0x8000
        --------------------------------------------------------------------------
            Total Data Memory used  :      0x1ed5        7893  24.1% of 0x8000
        --------------------------------------------------------------------------


Dynamic Data-Memory Reservation
section                    address  length [bytes]      (dec)  Description
-------                 ----------  -------------------------  -----------
heap                    0x20001ed8          0x400        1024  Reserved for heap 
stack                   0x200022f0         0x5d00       23808  Reserved for stack 

        --------------------------------------------------------------------------

Discarded input sections

 .text          0x00000000        0x0 c:/program files/microchip/xc32/v2.40/bin/bin/../../lib/gcc/pic32c/6.2.1/crti.o
 .data          0x00000000        0x0 c:/program files/microchip/xc32/v2.40/bin/bin/../../lib/gcc/pic32c/6.2.1/crti.o
 .bss           0x00000000        0x0 c:/program files/microchip/xc32/v2.40/bin/bin/../../lib/gcc/pic32c/6.2.1/crti.o
 .data          0x00000000        0x4 c:/program files/microchip/xc32/v2.40/bin/bin/../../lib/gcc/pic32c/6.2.1/crtbegin.o
 .text          0x00000000        0x0 build/sam_c21n_xpro/production/_ext/1360937237/appiot.o
 .data          0x00000000        0x0 build/sam_c21n_xpro/production/_ext/1360937237/appiot.o
 .bss           0x00000000        0x0 build/sam_c21n_xpro/production/_ext/1360937237/appiot.o
 .text.setiotstate
                0x00000000        0xc build/sam_c21n_xpro/production/_ext/1360937237/appiot.o
 .text.updateiotodo
                0x00000000        0xc build/sam_c21n_xpro/production/_ext/1360937237/appiot.o
 .text.readmcahinestates
                0x00000000        0xc build/sam_c21n_xpro/production/_ext/1360937237/appiot.o
 .text.setnetworkstates
                0x00000000        0xc build/sam_c21n_xpro/production/_ext/1360937237/appiot.o
 .text.setmqttstates
                0x00000000        0xc build/sam_c21n_xpro/production/_ext/1360937237/appiot.o
 .text          0x00000000        0x0 build/sam_c21n_xpro/production/_ext/1360937237/moden.o
 .data          0x00000000        0x0 build/sam_c21n_xpro/production/_ext/1360937237/moden.o
 .bss           0x00000000        0x0 build/sam_c21n_xpro/production/_ext/1360937237/moden.o
 .text.readmodenstatue
                0x00000000        0xc build/sam_c21n_xpro/production/_ext/1360937237/moden.o
 .text.setmoden
                0x00000000        0xc build/sam_c21n_xpro/production/_ext/1360937237/moden.o
 .text.setldoon
                0x00000000        0xa build/sam_c21n_xpro/production/_ext/1360937237/moden.o
 .text.setldoff
                0x00000000        0xa build/sam_c21n_xpro/production/_ext/1360937237/moden.o
 .text          0x00000000        0x0 build/sam_c21n_xpro/production/_ext/1360937237/canapp.o
 .data          0x00000000        0x0 build/sam_c21n_xpro/production/_ext/1360937237/canapp.o
 .bss           0x00000000        0x0 build/sam_c21n_xpro/production/_ext/1360937237/canapp.o
 .text.enable_rxfifo0_interrupt
                0x00000000       0x10 build/sam_c21n_xpro/production/_ext/1360937237/canapp.o
 .text.enable_rxfifo1_interrupt
                0x00000000       0x10 build/sam_c21n_xpro/production/_ext/1360937237/canapp.o
 .text.ClearRx0buffeerarr
                0x00000000       0x14 build/sam_c21n_xpro/production/_ext/1360937237/canapp.o
 .text.SetCanBusState
                0x00000000        0x2 build/sam_c21n_xpro/production/_ext/1360937237/canapp.o
 .text.fill_bikegrade
                0x00000000       0x64 build/sam_c21n_xpro/production/_ext/1360937237/canapp.o
 .text.fillbatterysoc
                0x00000000       0x1c build/sam_c21n_xpro/production/_ext/1360937237/canapp.o
 .text.fillodo  0x00000000       0x48 build/sam_c21n_xpro/production/_ext/1360937237/canapp.o
 .text.init_ODO
                0x00000000       0x38 build/sam_c21n_xpro/production/_ext/1360937237/canapp.o
 .text.clearcanbussleeptimer
                0x00000000        0xc build/sam_c21n_xpro/production/_ext/1360937237/canapp.o
 .text.read__canstatenew
                0x00000000        0xc build/sam_c21n_xpro/production/_ext/1360937237/canapp.o
 .text.entrySleep
                0x00000000        0x2 build/sam_c21n_xpro/production/_ext/1360937237/canapp.o
 .bss.STATUS_TX_PREPARE
                0x00000000        0x1 build/sam_c21n_xpro/production/_ext/1360937237/canapp.o
 .bss.rx0ReadIndex
                0x00000000        0x1 build/sam_c21n_xpro/production/_ext/1360937237/canapp.o
 .bss.rx0Writeindex
                0x00000000        0x1 build/sam_c21n_xpro/production/_ext/1360937237/canapp.o
 .data.state    0x00000000        0x1 build/sam_c21n_xpro/production/_ext/1360937237/canapp.o
 .text          0x00000000        0x0 build/sam_c21n_xpro/production/_ext/1360937237/appuart.o
 .data          0x00000000        0x0 build/sam_c21n_xpro/production/_ext/1360937237/appuart.o
 .bss           0x00000000        0x0 build/sam_c21n_xpro/production/_ext/1360937237/appuart.o
 .text          0x00000000        0x0 build/sam_c21n_xpro/production/_ext/1360937237/appemueeprom.o
 .data          0x00000000        0x0 build/sam_c21n_xpro/production/_ext/1360937237/appemueeprom.o
 .bss           0x00000000        0x0 build/sam_c21n_xpro/production/_ext/1360937237/appemueeprom.o
 .text.clearemueeprom
                0x00000000        0xc build/sam_c21n_xpro/production/_ext/1360937237/appemueeprom.o
 .text.ReadDaraFromEEPROM
                0x00000000        0x2 build/sam_c21n_xpro/production/_ext/1360937237/appemueeprom.o
 .text.WriteDaraToEEPROM
                0x00000000        0x2 build/sam_c21n_xpro/production/_ext/1360937237/appemueeprom.o
 .text.writeiotdata
                0x00000000       0x28 build/sam_c21n_xpro/production/_ext/1360937237/appemueeprom.o
 .text.writeOdoToRam
                0x00000000        0xc build/sam_c21n_xpro/production/_ext/1360937237/appemueeprom.o
 .text.emueeprom_main
                0x00000000        0x2 build/sam_c21n_xpro/production/_ext/1360937237/appemueeprom.o
 .bss.testData  0x00000000       0x2c build/sam_c21n_xpro/production/_ext/1360937237/appemueeprom.o
 COMMON         0x00000000        0x1 build/sam_c21n_xpro/production/_ext/1360937237/appemueeprom.o
 .text          0x00000000        0x0 build/sam_c21n_xpro/production/_ext/1360937237/apptimer.o
 .data          0x00000000        0x0 build/sam_c21n_xpro/production/_ext/1360937237/apptimer.o
 .bss           0x00000000        0x0 build/sam_c21n_xpro/production/_ext/1360937237/apptimer.o
 .text.readsystick
                0x00000000        0xc build/sam_c21n_xpro/production/_ext/1360937237/apptimer.o
 .text          0x00000000        0x0 build/sam_c21n_xpro/production/_ext/1360937237/app_uart_debug.o
 .data          0x00000000        0x0 build/sam_c21n_xpro/production/_ext/1360937237/app_uart_debug.o
 .bss           0x00000000        0x0 build/sam_c21n_xpro/production/_ext/1360937237/app_uart_debug.o
 .text          0x00000000        0x0 build/sam_c21n_xpro/production/_ext/1936826263/drv_at24.o
 .data          0x00000000        0x0 build/sam_c21n_xpro/production/_ext/1936826263/drv_at24.o
 .bss           0x00000000        0x0 build/sam_c21n_xpro/production/_ext/1936826263/drv_at24.o
 .text.DRV_AT24_Status
                0x00000000        0xc build/sam_c21n_xpro/production/_ext/1936826263/drv_at24.o
 .text.DRV_AT24_Open
                0x00000000       0x44 build/sam_c21n_xpro/production/_ext/1936826263/drv_at24.o
 .text.DRV_AT24_Close
                0x00000000       0x14 build/sam_c21n_xpro/production/_ext/1936826263/drv_at24.o
 .text.DRV_AT24_EventHandlerSet
                0x00000000       0x18 build/sam_c21n_xpro/production/_ext/1936826263/drv_at24.o
 .text.DRV_AT24_Read
                0x00000000       0xac build/sam_c21n_xpro/production/_ext/1936826263/drv_at24.o
 .text.DRV_AT24_Write
                0x00000000       0x38 build/sam_c21n_xpro/production/_ext/1936826263/drv_at24.o
 .text.DRV_AT24_PageWrite
                0x00000000       0x14 build/sam_c21n_xpro/production/_ext/1936826263/drv_at24.o
 .text.DRV_AT24_TransferStatusGet
                0x00000000       0x18 build/sam_c21n_xpro/production/_ext/1936826263/drv_at24.o
 .text.DRV_AT24_GeometryGet
                0x00000000       0x58 build/sam_c21n_xpro/production/_ext/1936826263/drv_at24.o
 .text          0x00000000        0x0 build/sam_c21n_xpro/production/_ext/1274584173/drv_usart.o
 .data          0x00000000        0x0 build/sam_c21n_xpro/production/_ext/1274584173/drv_usart.o
 .bss           0x00000000        0x0 build/sam_c21n_xpro/production/_ext/1274584173/drv_usart.o
 .text._DRV_USART_DriverHandleValidate
                0x00000000       0x54 build/sam_c21n_xpro/production/_ext/1274584173/drv_usart.o
 .text.DRV_USART_Status
                0x00000000       0x1c build/sam_c21n_xpro/production/_ext/1274584173/drv_usart.o
 .text.DRV_USART_Open
                0x00000000      0x124 build/sam_c21n_xpro/production/_ext/1274584173/drv_usart.o
 .text.DRV_USART_SerialSetup
                0x00000000       0x6a build/sam_c21n_xpro/production/_ext/1274584173/drv_usart.o
 .text.DRV_USART_Close
                0x00000000       0x2a build/sam_c21n_xpro/production/_ext/1274584173/drv_usart.o
 .text.DRV_USART_ErrorGet
                0x00000000       0x12 build/sam_c21n_xpro/production/_ext/1274584173/drv_usart.o
 .text.DRV_USART_WriteBuffer
                0x00000000       0x72 build/sam_c21n_xpro/production/_ext/1274584173/drv_usart.o
 .text.DRV_USART_ReadBuffer
                0x00000000       0x72 build/sam_c21n_xpro/production/_ext/1274584173/drv_usart.o
 .text          0x00000000        0x0 build/sam_c21n_xpro/production/_ext/1019481632/emulated_eeprom.o
 .data          0x00000000        0x0 build/sam_c21n_xpro/production/_ext/1019481632/emulated_eeprom.o
 .bss           0x00000000        0x0 build/sam_c21n_xpro/production/_ext/1019481632/emulated_eeprom.o
 .text.EMU_EEPROM_PageDataRead
                0x00000000       0x64 build/sam_c21n_xpro/production/_ext/1019481632/emulated_eeprom.o
 .text.EMU_EEPROM_NVMBufferCommit
                0x00000000       0x1c build/sam_c21n_xpro/production/_ext/1019481632/emulated_eeprom.o
 .text.EMU_EEPROM_CachedDataCommit
                0x00000000       0x30 build/sam_c21n_xpro/production/_ext/1019481632/emulated_eeprom.o
 .text.EMU_EEPROM_PageDataWrite
                0x00000000      0x1f8 build/sam_c21n_xpro/production/_ext/1019481632/emulated_eeprom.o
 .text.EMU_EEPROM_StatusGet
                0x00000000        0xc build/sam_c21n_xpro/production/_ext/1019481632/emulated_eeprom.o
 .text.EMU_EEPROM_ParametersGet
                0x00000000       0x28 build/sam_c21n_xpro/production/_ext/1019481632/emulated_eeprom.o
 .text.EMU_EEPROM_PageBufferCommit
                0x00000000       0x28 build/sam_c21n_xpro/production/_ext/1019481632/emulated_eeprom.o
 .text.EMU_EEPROM_FormatMemory
                0x00000000      0x10c build/sam_c21n_xpro/production/_ext/1019481632/emulated_eeprom.o
 .text.EMU_EEPROM_PageWrite
                0x00000000       0x2c build/sam_c21n_xpro/production/_ext/1019481632/emulated_eeprom.o
 .text.EMU_EEPROM_PageRead
                0x00000000       0x2c build/sam_c21n_xpro/production/_ext/1019481632/emulated_eeprom.o
 .text.EMU_EEPROM_BufferWrite
                0x00000000      0x104 build/sam_c21n_xpro/production/_ext/1019481632/emulated_eeprom.o
 .text.EMU_EEPROM_BufferRead
                0x00000000       0xd8 build/sam_c21n_xpro/production/_ext/1019481632/emulated_eeprom.o
 .text          0x00000000        0x0 build/sam_c21n_xpro/production/_ext/1617700295/plib_adc0.o
 .data          0x00000000        0x0 build/sam_c21n_xpro/production/_ext/1617700295/plib_adc0.o
 .bss           0x00000000        0x0 build/sam_c21n_xpro/production/_ext/1617700295/plib_adc0.o
 .text.ADC0_Enable
                0x00000000       0x18 build/sam_c21n_xpro/production/_ext/1617700295/plib_adc0.o
 .text.ADC0_Disable
                0x00000000       0x18 build/sam_c21n_xpro/production/_ext/1617700295/plib_adc0.o
 .text.ADC0_ChannelSelect
                0x00000000       0x18 build/sam_c21n_xpro/production/_ext/1617700295/plib_adc0.o
 .text.ADC0_ConversionStart
                0x00000000       0x1c build/sam_c21n_xpro/production/_ext/1617700295/plib_adc0.o
 .text.ADC0_ConversionSequenceIsFinished
                0x00000000       0x10 build/sam_c21n_xpro/production/_ext/1617700295/plib_adc0.o
 .text.ADC0_ComparisonWindowSet
                0x00000000       0x18 build/sam_c21n_xpro/production/_ext/1617700295/plib_adc0.o
 .text.ADC0_WindowModeSet
                0x00000000       0x20 build/sam_c21n_xpro/production/_ext/1617700295/plib_adc0.o
 .text.ADC0_ConversionResultGet
                0x00000000        0xc build/sam_c21n_xpro/production/_ext/1617700295/plib_adc0.o
 .text.ADC0_InterruptsClear
                0x00000000        0xc build/sam_c21n_xpro/production/_ext/1617700295/plib_adc0.o
 .text.ADC0_InterruptsEnable
                0x00000000        0xc build/sam_c21n_xpro/production/_ext/1617700295/plib_adc0.o
 .text.ADC0_InterruptsDisable
                0x00000000        0xc build/sam_c21n_xpro/production/_ext/1617700295/plib_adc0.o
 .text.ADC0_ConversionStatusGet
                0x00000000       0x18 build/sam_c21n_xpro/production/_ext/1617700295/plib_adc0.o
 .text          0x00000000        0x0 build/sam_c21n_xpro/production/_ext/1617702135/plib_can0.o
 .data          0x00000000        0x0 build/sam_c21n_xpro/production/_ext/1617702135/plib_can0.o
 .bss           0x00000000        0x0 build/sam_c21n_xpro/production/_ext/1617702135/plib_can0.o
 .text.CAN0_MessageTransmit
                0x00000000       0xc0 build/sam_c21n_xpro/production/_ext/1617702135/plib_can0.o
 .text.CAN0_TransmitEventFIFOElementGet
                0x00000000       0x5c build/sam_c21n_xpro/production/_ext/1617702135/plib_can0.o
 .text.CAN0_ErrorCountGet
                0x00000000       0x14 build/sam_c21n_xpro/production/_ext/1617702135/plib_can0.o
 .text.CAN0_InterruptGet
                0x00000000       0x14 build/sam_c21n_xpro/production/_ext/1617702135/plib_can0.o
 .text.CAN0_TxFIFOIsFull
                0x00000000       0x10 build/sam_c21n_xpro/production/_ext/1617702135/plib_can0.o
 .text.CAN0_StandardFilterElementSet
                0x00000000       0x30 build/sam_c21n_xpro/production/_ext/1617702135/plib_can0.o
 .text.CAN0_StandardFilterElementGet
                0x00000000       0x30 build/sam_c21n_xpro/production/_ext/1617702135/plib_can0.o
 .text.CAN0_ExtendedFilterElementSet
                0x00000000       0x38 build/sam_c21n_xpro/production/_ext/1617702135/plib_can0.o
 .text.CAN0_ExtendedFilterElementGet
                0x00000000       0x38 build/sam_c21n_xpro/production/_ext/1617702135/plib_can0.o
 .text.CAN0_SleepModeEnter
                0x00000000       0x1c build/sam_c21n_xpro/production/_ext/1617702135/plib_can0.o
 .text.CAN0_SleepModeExit
                0x00000000       0x30 build/sam_c21n_xpro/production/_ext/1617702135/plib_can0.o
 .bss.messageMarker.6020
                0x00000000        0x1 build/sam_c21n_xpro/production/_ext/1617702135/plib_can0.o
 .text          0x00000000        0x0 build/sam_c21n_xpro/production/_ext/166077579/plib_clock.o
 .data          0x00000000        0x0 build/sam_c21n_xpro/production/_ext/166077579/plib_clock.o
 .bss           0x00000000        0x0 build/sam_c21n_xpro/production/_ext/166077579/plib_clock.o
 .text          0x00000000        0x0 build/sam_c21n_xpro/production/_ext/1617704294/plib_eic.o
 .data          0x00000000        0x0 build/sam_c21n_xpro/production/_ext/1617704294/plib_eic.o
 .bss           0x00000000        0x0 build/sam_c21n_xpro/production/_ext/1617704294/plib_eic.o
 .text.EIC_InterruptEnable
                0x00000000       0x10 build/sam_c21n_xpro/production/_ext/1617704294/plib_eic.o
 .text.EIC_InterruptDisable
                0x00000000       0x10 build/sam_c21n_xpro/production/_ext/1617704294/plib_eic.o
 .text.EIC_CallbackRegister
                0x00000000       0x28 build/sam_c21n_xpro/production/_ext/1617704294/plib_eic.o
 .text          0x00000000        0x0 build/sam_c21n_xpro/production/_ext/163928093/plib_evsys.o
 .data          0x00000000        0x0 build/sam_c21n_xpro/production/_ext/163928093/plib_evsys.o
 .bss           0x00000000        0x0 build/sam_c21n_xpro/production/_ext/163928093/plib_evsys.o
 .text          0x00000000        0x0 build/sam_c21n_xpro/production/_ext/1390493541/plib_nvic.o
 .data          0x00000000        0x0 build/sam_c21n_xpro/production/_ext/1390493541/plib_nvic.o
 .bss           0x00000000        0x0 build/sam_c21n_xpro/production/_ext/1390493541/plib_nvic.o
 .text.NVIC_INT_Enable
                0x00000000        0x8 build/sam_c21n_xpro/production/_ext/1390493541/plib_nvic.o
 .text          0x00000000        0x0 build/sam_c21n_xpro/production/_ext/770299191/plib_nvmctrl.o
 .data          0x00000000        0x0 build/sam_c21n_xpro/production/_ext/770299191/plib_nvmctrl.o
 .bss           0x00000000        0x0 build/sam_c21n_xpro/production/_ext/770299191/plib_nvmctrl.o
 .text.NVMCTRL_CacheInvalidate
                0x00000000       0x10 build/sam_c21n_xpro/production/_ext/770299191/plib_nvmctrl.o
 .text.NVMCTRL_RWWEEPROM_Read
                0x00000000       0x10 build/sam_c21n_xpro/production/_ext/770299191/plib_nvmctrl.o
 .text.NVMCTRL_RWWEEPROM_PageWrite
                0x00000000       0x28 build/sam_c21n_xpro/production/_ext/770299191/plib_nvmctrl.o
 .text.NVMCTRL_Read
                0x00000000       0x10 build/sam_c21n_xpro/production/_ext/770299191/plib_nvmctrl.o
 .text.NVMCTRL_PageBufferWrite
                0x00000000       0x14 build/sam_c21n_xpro/production/_ext/770299191/plib_nvmctrl.o
 .text.NVMCTRL_PageBufferCommit
                0x00000000       0x28 build/sam_c21n_xpro/production/_ext/770299191/plib_nvmctrl.o
 .text.NVMCTRL_PageWrite
                0x00000000       0x28 build/sam_c21n_xpro/production/_ext/770299191/plib_nvmctrl.o
 .text.NVMCTRL_RowErase
                0x00000000       0x18 build/sam_c21n_xpro/production/_ext/770299191/plib_nvmctrl.o
 .text.NVMCTRL_USER_ROW_PageWrite
                0x00000000       0x38 build/sam_c21n_xpro/production/_ext/770299191/plib_nvmctrl.o
 .text.NVMCTRL_USER_ROW_RowErase
                0x00000000       0x2c build/sam_c21n_xpro/production/_ext/770299191/plib_nvmctrl.o
 .text.NVMCTRL_ErrorGet
                0x00000000       0x18 build/sam_c21n_xpro/production/_ext/770299191/plib_nvmctrl.o
 .text.NVMCTRL_RegionLock
                0x00000000       0x14 build/sam_c21n_xpro/production/_ext/770299191/plib_nvmctrl.o
 .text.NVMCTRL_RegionUnlock
                0x00000000       0x14 build/sam_c21n_xpro/production/_ext/770299191/plib_nvmctrl.o
 .text.NVMCTRL_SecurityBitSet
                0x00000000       0x10 build/sam_c21n_xpro/production/_ext/770299191/plib_nvmctrl.o
 .text          0x00000000        0x0 build/sam_c21n_xpro/production/_ext/1390440390/plib_port.o
 .data          0x00000000        0x0 build/sam_c21n_xpro/production/_ext/1390440390/plib_port.o
 .bss           0x00000000        0x0 build/sam_c21n_xpro/production/_ext/1390440390/plib_port.o
 .text.PORT_GroupRead
                0x00000000        0x4 build/sam_c21n_xpro/production/_ext/1390440390/plib_port.o
 .text.PORT_GroupLatchRead
                0x00000000        0x4 build/sam_c21n_xpro/production/_ext/1390440390/plib_port.o
 .text.PORT_GroupSet
                0x00000000        0x4 build/sam_c21n_xpro/production/_ext/1390440390/plib_port.o
 .text.PORT_GroupClear
                0x00000000        0x4 build/sam_c21n_xpro/production/_ext/1390440390/plib_port.o
 .text.PORT_GroupToggle
                0x00000000        0x4 build/sam_c21n_xpro/production/_ext/1390440390/plib_port.o
 .text.PORT_GroupInputEnable
                0x00000000        0x4 build/sam_c21n_xpro/production/_ext/1390440390/plib_port.o
 .text.PORT_GroupOutputEnable
                0x00000000        0x4 build/sam_c21n_xpro/production/_ext/1390440390/plib_port.o
 .text.PORT_PinPeripheralFunctionConfig
                0x00000000       0x46 build/sam_c21n_xpro/production/_ext/1390440390/plib_port.o
 .text.PORT_PinGPIOConfig
                0x00000000       0x1e build/sam_c21n_xpro/production/_ext/1390440390/plib_port.o
 .text          0x00000000        0x0 build/sam_c21n_xpro/production/_ext/1451668420/plib_sercom2_i2c_master.o
 .data          0x00000000        0x0 build/sam_c21n_xpro/production/_ext/1451668420/plib_sercom2_i2c_master.o
 .bss           0x00000000        0x0 build/sam_c21n_xpro/production/_ext/1451668420/plib_sercom2_i2c_master.o
 .text.SERCOM2_I2C_TransferSetup
                0x00000000      0x108 build/sam_c21n_xpro/production/_ext/1451668420/plib_sercom2_i2c_master.o
 .text.SERCOM2_I2C_TransferAbort
                0x00000000       0x44 build/sam_c21n_xpro/production/_ext/1451668420/plib_sercom2_i2c_master.o
 .text          0x00000000        0x0 build/sam_c21n_xpro/production/_ext/1993392304/plib_sercom1_usart.o
 .data          0x00000000        0x0 build/sam_c21n_xpro/production/_ext/1993392304/plib_sercom1_usart.o
 .bss           0x00000000        0x0 build/sam_c21n_xpro/production/_ext/1993392304/plib_sercom1_usart.o
 .text.SERCOM1_USART_FrequencyGet
                0x00000000        0x8 build/sam_c21n_xpro/production/_ext/1993392304/plib_sercom1_usart.o
 .text.SERCOM1_USART_ReadFreeBufferCountGet
                0x00000000       0x14 build/sam_c21n_xpro/production/_ext/1993392304/plib_sercom1_usart.o
 .text.SERCOM1_USART_ReadBufferSizeGet
                0x00000000        0xc build/sam_c21n_xpro/production/_ext/1993392304/plib_sercom1_usart.o
 .text.SERCOM1_USART_ReadNotificationEnable
                0x00000000       0x18 build/sam_c21n_xpro/production/_ext/1993392304/plib_sercom1_usart.o
 .text.SERCOM1_USART_ReadThresholdSet
                0x00000000       0x10 build/sam_c21n_xpro/production/_ext/1993392304/plib_sercom1_usart.o
 .text.SERCOM1_USART_TransmitComplete
                0x00000000       0x10 build/sam_c21n_xpro/production/_ext/1993392304/plib_sercom1_usart.o
 .text.SERCOM1_USART_WriteBufferSizeGet
                0x00000000        0xc build/sam_c21n_xpro/production/_ext/1993392304/plib_sercom1_usart.o
 .text.SERCOM1_USART_WriteNotificationEnable
                0x00000000       0x10 build/sam_c21n_xpro/production/_ext/1993392304/plib_sercom1_usart.o
 .text.SERCOM1_USART_WriteThresholdSet
                0x00000000       0x10 build/sam_c21n_xpro/production/_ext/1993392304/plib_sercom1_usart.o
 .text          0x00000000        0x0 build/sam_c21n_xpro/production/_ext/1993392304/plib_sercom0_usart.o
 .data          0x00000000        0x0 build/sam_c21n_xpro/production/_ext/1993392304/plib_sercom0_usart.o
 .bss           0x00000000        0x0 build/sam_c21n_xpro/production/_ext/1993392304/plib_sercom0_usart.o
 .text.SERCOM0_USART_FrequencyGet
                0x00000000        0x8 build/sam_c21n_xpro/production/_ext/1993392304/plib_sercom0_usart.o
 .text.SERCOM0_USART_ReadFreeBufferCountGet
                0x00000000       0x14 build/sam_c21n_xpro/production/_ext/1993392304/plib_sercom0_usart.o
 .text.SERCOM0_USART_ReadBufferSizeGet
                0x00000000        0xc build/sam_c21n_xpro/production/_ext/1993392304/plib_sercom0_usart.o
 .text.SERCOM0_USART_ReadNotificationEnable
                0x00000000       0x18 build/sam_c21n_xpro/production/_ext/1993392304/plib_sercom0_usart.o
 .text.SERCOM0_USART_ReadThresholdSet
                0x00000000       0x10 build/sam_c21n_xpro/production/_ext/1993392304/plib_sercom0_usart.o
 .text.SERCOM0_USART_TransmitComplete
                0x00000000       0x10 build/sam_c21n_xpro/production/_ext/1993392304/plib_sercom0_usart.o
 .text.SERCOM0_USART_WriteBufferSizeGet
                0x00000000        0xc build/sam_c21n_xpro/production/_ext/1993392304/plib_sercom0_usart.o
 .text.SERCOM0_USART_WriteNotificationEnable
                0x00000000       0x10 build/sam_c21n_xpro/production/_ext/1993392304/plib_sercom0_usart.o
 .text.SERCOM0_USART_WriteThresholdSet
                0x00000000       0x10 build/sam_c21n_xpro/production/_ext/1993392304/plib_sercom0_usart.o
 .text          0x00000000        0x0 build/sam_c21n_xpro/production/_ext/1004774289/plib_systick.o
 .data          0x00000000        0x0 build/sam_c21n_xpro/production/_ext/1004774289/plib_systick.o
 .bss           0x00000000        0x0 build/sam_c21n_xpro/production/_ext/1004774289/plib_systick.o
 .text.SYSTICK_TimerRestart
                0x00000000       0x1c build/sam_c21n_xpro/production/_ext/1004774289/plib_systick.o
 .text.SYSTICK_TimerStop
                0x00000000       0x10 build/sam_c21n_xpro/production/_ext/1004774289/plib_systick.o
 .text.SYSTICK_TimerPeriodSet
                0x00000000        0xc build/sam_c21n_xpro/production/_ext/1004774289/plib_systick.o
 .text.SYSTICK_TimerPeriodGet
                0x00000000        0xc build/sam_c21n_xpro/production/_ext/1004774289/plib_systick.o
 .text.SYSTICK_TimerCounterGet
                0x00000000        0xc build/sam_c21n_xpro/production/_ext/1004774289/plib_systick.o
 .text.SYSTICK_TimerFrequencyGet
                0x00000000        0x8 build/sam_c21n_xpro/production/_ext/1004774289/plib_systick.o
 .text.SYSTICK_DelayUs
                0x00000000       0x3c build/sam_c21n_xpro/production/_ext/1004774289/plib_systick.o
 .text.SYSTICK_GetTickCounter
                0x00000000        0xc build/sam_c21n_xpro/production/_ext/1004774289/plib_systick.o
 .text.SYSTICK_StartTimeOut
                0x00000000       0x24 build/sam_c21n_xpro/production/_ext/1004774289/plib_systick.o
 .text.SYSTICK_ResetTimeOut
                0x00000000        0xc build/sam_c21n_xpro/production/_ext/1004774289/plib_systick.o
 .text.SYSTICK_IsTimeoutReached
                0x00000000       0x18 build/sam_c21n_xpro/production/_ext/1004774289/plib_systick.o
 .text          0x00000000        0x0 build/sam_c21n_xpro/production/_ext/1617721454/plib_wdt.o
 .data          0x00000000        0x0 build/sam_c21n_xpro/production/_ext/1617721454/plib_wdt.o
 .bss           0x00000000        0x0 build/sam_c21n_xpro/production/_ext/1617721454/plib_wdt.o
 .text.WDT_Enable
                0x00000000       0x20 build/sam_c21n_xpro/production/_ext/1617721454/plib_wdt.o
 .text.WDT_Disable
                0x00000000       0x20 build/sam_c21n_xpro/production/_ext/1617721454/plib_wdt.o
 .text.WDT_EnableWindowMode
                0x00000000       0x34 build/sam_c21n_xpro/production/_ext/1617721454/plib_wdt.o
 .text.WDT_DisableWindowMode
                0x00000000       0x34 build/sam_c21n_xpro/production/_ext/1617721454/plib_wdt.o
 .text.WDT_IsEnabled
                0x00000000       0x14 build/sam_c21n_xpro/production/_ext/1617721454/plib_wdt.o
 .text.WDT_IsAlwaysOn
                0x00000000        0xc build/sam_c21n_xpro/production/_ext/1617721454/plib_wdt.o
 .text.WDT_IsWindowModeEnabled
                0x00000000       0x10 build/sam_c21n_xpro/production/_ext/1617721454/plib_wdt.o
 .text.WDT_TimeoutPeriodSet
                0x00000000       0x14 build/sam_c21n_xpro/production/_ext/1617721454/plib_wdt.o
 .text.WDT_ClearWithSync
                0x00000000       0x1c build/sam_c21n_xpro/production/_ext/1617721454/plib_wdt.o
 .text          0x00000000        0x0 build/sam_c21n_xpro/production/_ext/730014449/xc32_monitor.o
 .data          0x00000000        0x0 build/sam_c21n_xpro/production/_ext/730014449/xc32_monitor.o
 .bss           0x00000000        0x0 build/sam_c21n_xpro/production/_ext/730014449/xc32_monitor.o
 .text          0x00000000        0x0 build/sam_c21n_xpro/production/_ext/855761890/sys_int.o
 .data          0x00000000        0x0 build/sam_c21n_xpro/production/_ext/855761890/sys_int.o
 .bss           0x00000000        0x0 build/sam_c21n_xpro/production/_ext/855761890/sys_int.o
 .text.SYS_INT_Enable
                0x00000000        0x8 build/sam_c21n_xpro/production/_ext/855761890/sys_int.o
 .text.SYS_INT_SourceDisable
                0x00000000       0x3c build/sam_c21n_xpro/production/_ext/855761890/sys_int.o
 .text.SYS_INT_SourceRestore
                0x00000000       0x1c build/sam_c21n_xpro/production/_ext/855761890/sys_int.o
 .text          0x00000000        0x0 build/sam_c21n_xpro/production/_ext/1758384875/initialization.o
 .data          0x00000000        0x0 build/sam_c21n_xpro/production/_ext/1758384875/initialization.o
 .bss           0x00000000        0x0 build/sam_c21n_xpro/production/_ext/1758384875/initialization.o
 .text          0x00000000        0x0 build/sam_c21n_xpro/production/_ext/1758384875/interrupts.o
 .data          0x00000000        0x0 build/sam_c21n_xpro/production/_ext/1758384875/interrupts.o
 .bss           0x00000000        0x0 build/sam_c21n_xpro/production/_ext/1758384875/interrupts.o
 .text          0x00000000        0x0 build/sam_c21n_xpro/production/_ext/1758384875/exceptions.o
 .data          0x00000000        0x0 build/sam_c21n_xpro/production/_ext/1758384875/exceptions.o
 .bss           0x00000000        0x0 build/sam_c21n_xpro/production/_ext/1758384875/exceptions.o
 .text          0x00000000        0x0 build/sam_c21n_xpro/production/_ext/1758384875/startup_xc32.o
 .data          0x00000000        0x0 build/sam_c21n_xpro/production/_ext/1758384875/startup_xc32.o
 .bss           0x00000000        0x0 build/sam_c21n_xpro/production/_ext/1758384875/startup_xc32.o
 .text          0x00000000        0x0 build/sam_c21n_xpro/production/_ext/1758384875/libc_syscalls.o
 .data          0x00000000        0x0 build/sam_c21n_xpro/production/_ext/1758384875/libc_syscalls.o
 .bss           0x00000000        0x0 build/sam_c21n_xpro/production/_ext/1758384875/libc_syscalls.o
 .text._exit    0x00000000        0x2 build/sam_c21n_xpro/production/_ext/1758384875/libc_syscalls.o
 .debug_info    0x00000000      0xea4 build/sam_c21n_xpro/production/_ext/1758384875/libc_syscalls.o
 .debug_abbrev  0x00000000      0x1a1 build/sam_c21n_xpro/production/_ext/1758384875/libc_syscalls.o
 .debug_aranges
                0x00000000       0x20 build/sam_c21n_xpro/production/_ext/1758384875/libc_syscalls.o
 .debug_ranges  0x00000000       0x10 build/sam_c21n_xpro/production/_ext/1758384875/libc_syscalls.o
 .debug_line    0x00000000      0x143 build/sam_c21n_xpro/production/_ext/1758384875/libc_syscalls.o
 .debug_str     0x00000000        0xe build/sam_c21n_xpro/production/_ext/1758384875/libc_syscalls.o
 .comment       0x00000000       0x3d build/sam_c21n_xpro/production/_ext/1758384875/libc_syscalls.o
 .debug_frame   0x00000000       0x20 build/sam_c21n_xpro/production/_ext/1758384875/libc_syscalls.o
 .ARM.attributes
                0x00000000       0x32 build/sam_c21n_xpro/production/_ext/1758384875/libc_syscalls.o
 .text          0x00000000        0x0 build/sam_c21n_xpro/production/_ext/1758384875/tasks.o
 .data          0x00000000        0x0 build/sam_c21n_xpro/production/_ext/1758384875/tasks.o
 .bss           0x00000000        0x0 build/sam_c21n_xpro/production/_ext/1758384875/tasks.o
 .text.SYS_Tasks
                0x00000000        0x8 build/sam_c21n_xpro/production/_ext/1758384875/tasks.o
 .debug_info    0x00000000      0xfd2 build/sam_c21n_xpro/production/_ext/1758384875/tasks.o
 .debug_abbrev  0x00000000      0x1c6 build/sam_c21n_xpro/production/_ext/1758384875/tasks.o
 .debug_loc     0x00000000       0x20 build/sam_c21n_xpro/production/_ext/1758384875/tasks.o
 .debug_aranges
                0x00000000       0x20 build/sam_c21n_xpro/production/_ext/1758384875/tasks.o
 .debug_ranges  0x00000000       0x10 build/sam_c21n_xpro/production/_ext/1758384875/tasks.o
 .debug_line    0x00000000      0x22f build/sam_c21n_xpro/production/_ext/1758384875/tasks.o
 .debug_str     0x00000000       0x18 build/sam_c21n_xpro/production/_ext/1758384875/tasks.o
 .comment       0x00000000       0x3d build/sam_c21n_xpro/production/_ext/1758384875/tasks.o
 .debug_frame   0x00000000       0x28 build/sam_c21n_xpro/production/_ext/1758384875/tasks.o
 .ARM.attributes
                0x00000000       0x32 build/sam_c21n_xpro/production/_ext/1758384875/tasks.o
 .text          0x00000000        0x0 build/sam_c21n_xpro/production/_ext/1360937237/main.o
 .data          0x00000000        0x0 build/sam_c21n_xpro/production/_ext/1360937237/main.o
 .bss           0x00000000        0x0 build/sam_c21n_xpro/production/_ext/1360937237/main.o
 .text.ClrWDT   0x00000000        0x8 build/sam_c21n_xpro/production/_ext/1360937237/main.o
 .text.enableWDT
                0x00000000        0x8 build/sam_c21n_xpro/production/_ext/1360937237/main.o
 .text.disableWDT
                0x00000000        0x8 build/sam_c21n_xpro/production/_ext/1360937237/main.o
 .text          0x00000000        0x0 build/sam_c21n_xpro/production/_ext/1360937237/app.o
 .data          0x00000000        0x0 build/sam_c21n_xpro/production/_ext/1360937237/app.o
 .bss           0x00000000        0x0 build/sam_c21n_xpro/production/_ext/1360937237/app.o
 .text.APP_Tasks
                0x00000000       0x14 build/sam_c21n_xpro/production/_ext/1360937237/app.o
 .text          0x00000000        0x0 c:/program files/microchip/xc32/v2.40/bin/bin/../../lib/gcc/pic32c/6.2.1/../../../../pic32c/lib\libpic32c.a(data_init.o)
 .data          0x00000000        0x0 c:/program files/microchip/xc32/v2.40/bin/bin/../../lib/gcc/pic32c/6.2.1/../../../../pic32c/lib\libpic32c.a(data_init.o)
 .bss           0x00000000        0x0 c:/program files/microchip/xc32/v2.40/bin/bin/../../lib/gcc/pic32c/6.2.1/../../../../pic32c/lib\libpic32c.a(data_init.o)
 .data          0x00000000        0x0 c:/program files/microchip/xc32/v2.40/bin/bin/../../lib/gcc/pic32c/6.2.1\libgcc.a(_udivsi3.o)
 .bss           0x00000000        0x0 c:/program files/microchip/xc32/v2.40/bin/bin/../../lib/gcc/pic32c/6.2.1\libgcc.a(_udivsi3.o)
 .data          0x00000000        0x0 c:/program files/microchip/xc32/v2.40/bin/bin/../../lib/gcc/pic32c/6.2.1\libgcc.a(_dvmd_tls.o)
 .bss           0x00000000        0x0 c:/program files/microchip/xc32/v2.40/bin/bin/../../lib/gcc/pic32c/6.2.1\libgcc.a(_dvmd_tls.o)
 .data          0x00000000        0x0 c:/program files/microchip/xc32/v2.40/bin/bin/../../lib/gcc/pic32c/6.2.1\libgcc.a(_aeabi_uldivmod.o)
 .bss           0x00000000        0x0 c:/program files/microchip/xc32/v2.40/bin/bin/../../lib/gcc/pic32c/6.2.1\libgcc.a(_aeabi_uldivmod.o)
 .data          0x00000000        0x0 c:/program files/microchip/xc32/v2.40/bin/bin/../../lib/gcc/pic32c/6.2.1\libgcc.a(_muldi3.o)
 .bss           0x00000000        0x0 c:/program files/microchip/xc32/v2.40/bin/bin/../../lib/gcc/pic32c/6.2.1\libgcc.a(_muldi3.o)
 .text          0x00000000       0x2e c:/program files/microchip/xc32/v2.40/bin/bin/../../lib/gcc/pic32c/6.2.1\libgcc.a(_fixunssfsi.o)
 .data          0x00000000        0x0 c:/program files/microchip/xc32/v2.40/bin/bin/../../lib/gcc/pic32c/6.2.1\libgcc.a(_fixunssfsi.o)
 .bss           0x00000000        0x0 c:/program files/microchip/xc32/v2.40/bin/bin/../../lib/gcc/pic32c/6.2.1\libgcc.a(_fixunssfsi.o)
 .debug_info    0x00000000     0x12a0 c:/program files/microchip/xc32/v2.40/bin/bin/../../lib/gcc/pic32c/6.2.1\libgcc.a(_fixunssfsi.o)
 .debug_abbrev  0x00000000      0x11b c:/program files/microchip/xc32/v2.40/bin/bin/../../lib/gcc/pic32c/6.2.1\libgcc.a(_fixunssfsi.o)
 .debug_loc     0x00000000       0x5a c:/program files/microchip/xc32/v2.40/bin/bin/../../lib/gcc/pic32c/6.2.1\libgcc.a(_fixunssfsi.o)
 .debug_aranges
                0x00000000       0x20 c:/program files/microchip/xc32/v2.40/bin/bin/../../lib/gcc/pic32c/6.2.1\libgcc.a(_fixunssfsi.o)
 .debug_line    0x00000000      0x28e c:/program files/microchip/xc32/v2.40/bin/bin/../../lib/gcc/pic32c/6.2.1\libgcc.a(_fixunssfsi.o)
 .debug_str     0x00000000        0x0 c:/program files/microchip/xc32/v2.40/bin/bin/../../lib/gcc/pic32c/6.2.1\libgcc.a(_fixunssfsi.o)
 .comment       0x00000000       0x3d c:/program files/microchip/xc32/v2.40/bin/bin/../../lib/gcc/pic32c/6.2.1\libgcc.a(_fixunssfsi.o)
 .debug_frame   0x00000000       0x28 c:/program files/microchip/xc32/v2.40/bin/bin/../../lib/gcc/pic32c/6.2.1\libgcc.a(_fixunssfsi.o)
 .ARM.attributes
                0x00000000       0x2c c:/program files/microchip/xc32/v2.40/bin/bin/../../lib/gcc/pic32c/6.2.1\libgcc.a(_fixunssfsi.o)
 .data          0x00000000        0x0 c:/program files/microchip/xc32/v2.40/bin/bin/../../lib/gcc/pic32c/6.2.1\libgcc.a(_udivmoddi4.o)
 .bss           0x00000000        0x0 c:/program files/microchip/xc32/v2.40/bin/bin/../../lib/gcc/pic32c/6.2.1\libgcc.a(_udivmoddi4.o)
 .ARM.extab     0x00000000        0x0 c:/program files/microchip/xc32/v2.40/bin/bin/../../lib/gcc/pic32c/6.2.1\libgcc.a(_udivmoddi4.o)
 .data          0x00000000        0x0 c:/program files/microchip/xc32/v2.40/bin/bin/../../lib/gcc/pic32c/6.2.1\libgcc.a(addsf3.o)
 .bss           0x00000000        0x0 c:/program files/microchip/xc32/v2.40/bin/bin/../../lib/gcc/pic32c/6.2.1\libgcc.a(addsf3.o)
 .data          0x00000000        0x0 c:/program files/microchip/xc32/v2.40/bin/bin/../../lib/gcc/pic32c/6.2.1\libgcc.a(divsf3.o)
 .bss           0x00000000        0x0 c:/program files/microchip/xc32/v2.40/bin/bin/../../lib/gcc/pic32c/6.2.1\libgcc.a(divsf3.o)
 .data          0x00000000        0x0 c:/program files/microchip/xc32/v2.40/bin/bin/../../lib/gcc/pic32c/6.2.1\libgcc.a(mulsf3.o)
 .bss           0x00000000        0x0 c:/program files/microchip/xc32/v2.40/bin/bin/../../lib/gcc/pic32c/6.2.1\libgcc.a(mulsf3.o)
 .data          0x00000000        0x0 c:/program files/microchip/xc32/v2.40/bin/bin/../../lib/gcc/pic32c/6.2.1\libgcc.a(subsf3.o)
 .bss           0x00000000        0x0 c:/program files/microchip/xc32/v2.40/bin/bin/../../lib/gcc/pic32c/6.2.1\libgcc.a(subsf3.o)
 .data          0x00000000        0x0 c:/program files/microchip/xc32/v2.40/bin/bin/../../lib/gcc/pic32c/6.2.1\libgcc.a(fixsfsi.o)
 .bss           0x00000000        0x0 c:/program files/microchip/xc32/v2.40/bin/bin/../../lib/gcc/pic32c/6.2.1\libgcc.a(fixsfsi.o)
 .data          0x00000000        0x0 c:/program files/microchip/xc32/v2.40/bin/bin/../../lib/gcc/pic32c/6.2.1\libgcc.a(floatsisf.o)
 .bss           0x00000000        0x0 c:/program files/microchip/xc32/v2.40/bin/bin/../../lib/gcc/pic32c/6.2.1\libgcc.a(floatsisf.o)
 .data          0x00000000        0x0 c:/program files/microchip/xc32/v2.40/bin/bin/../../lib/gcc/pic32c/6.2.1\libgcc.a(floatunsisf.o)
 .bss           0x00000000        0x0 c:/program files/microchip/xc32/v2.40/bin/bin/../../lib/gcc/pic32c/6.2.1\libgcc.a(floatunsisf.o)
 .data          0x00000000        0x0 c:/program files/microchip/xc32/v2.40/bin/bin/../../lib/gcc/pic32c/6.2.1\libgcc.a(muldf3.o)
 .bss           0x00000000        0x0 c:/program files/microchip/xc32/v2.40/bin/bin/../../lib/gcc/pic32c/6.2.1\libgcc.a(muldf3.o)
 .data          0x00000000        0x0 c:/program files/microchip/xc32/v2.40/bin/bin/../../lib/gcc/pic32c/6.2.1\libgcc.a(floatsidf.o)
 .bss           0x00000000        0x0 c:/program files/microchip/xc32/v2.40/bin/bin/../../lib/gcc/pic32c/6.2.1\libgcc.a(floatsidf.o)
 .data          0x00000000        0x0 c:/program files/microchip/xc32/v2.40/bin/bin/../../lib/gcc/pic32c/6.2.1\libgcc.a(extendsfdf2.o)
 .bss           0x00000000        0x0 c:/program files/microchip/xc32/v2.40/bin/bin/../../lib/gcc/pic32c/6.2.1\libgcc.a(extendsfdf2.o)
 .data          0x00000000        0x0 c:/program files/microchip/xc32/v2.40/bin/bin/../../lib/gcc/pic32c/6.2.1\libgcc.a(truncdfsf2.o)
 .bss           0x00000000        0x0 c:/program files/microchip/xc32/v2.40/bin/bin/../../lib/gcc/pic32c/6.2.1\libgcc.a(truncdfsf2.o)
 .data          0x00000000        0x0 c:/program files/microchip/xc32/v2.40/bin/bin/../../lib/gcc/pic32c/6.2.1\libgcc.a(_thumb1_case_uqi.o)
 .bss           0x00000000        0x0 c:/program files/microchip/xc32/v2.40/bin/bin/../../lib/gcc/pic32c/6.2.1\libgcc.a(_thumb1_case_uqi.o)
 .data          0x00000000        0x0 c:/program files/microchip/xc32/v2.40/bin/bin/../../lib/gcc/pic32c/6.2.1\libgcc.a(_thumb1_case_uhi.o)
 .bss           0x00000000        0x0 c:/program files/microchip/xc32/v2.40/bin/bin/../../lib/gcc/pic32c/6.2.1\libgcc.a(_thumb1_case_uhi.o)
 .data          0x00000000        0x0 c:/program files/microchip/xc32/v2.40/bin/bin/../../lib/gcc/pic32c/6.2.1\libgcc.a(_lshrdi3.o)
 .bss           0x00000000        0x0 c:/program files/microchip/xc32/v2.40/bin/bin/../../lib/gcc/pic32c/6.2.1\libgcc.a(_lshrdi3.o)
 .data          0x00000000        0x0 c:/program files/microchip/xc32/v2.40/bin/bin/../../lib/gcc/pic32c/6.2.1\libgcc.a(_ashldi3.o)
 .bss           0x00000000        0x0 c:/program files/microchip/xc32/v2.40/bin/bin/../../lib/gcc/pic32c/6.2.1\libgcc.a(_ashldi3.o)
 .text          0x00000000       0x74 c:/program files/microchip/xc32/v2.40/bin/bin/../../lib/gcc/pic32c/6.2.1\libgcc.a(_arm_cmpsf2.o)
 .data          0x00000000        0x0 c:/program files/microchip/xc32/v2.40/bin/bin/../../lib/gcc/pic32c/6.2.1\libgcc.a(_arm_cmpsf2.o)
 .bss           0x00000000        0x0 c:/program files/microchip/xc32/v2.40/bin/bin/../../lib/gcc/pic32c/6.2.1\libgcc.a(_arm_cmpsf2.o)
 .debug_line    0x00000000       0xb1 c:/program files/microchip/xc32/v2.40/bin/bin/../../lib/gcc/pic32c/6.2.1\libgcc.a(_arm_cmpsf2.o)
 .debug_info    0x00000000       0xee c:/program files/microchip/xc32/v2.40/bin/bin/../../lib/gcc/pic32c/6.2.1\libgcc.a(_arm_cmpsf2.o)
 .debug_abbrev  0x00000000       0x14 c:/program files/microchip/xc32/v2.40/bin/bin/../../lib/gcc/pic32c/6.2.1\libgcc.a(_arm_cmpsf2.o)
 .debug_aranges
                0x00000000       0x20 c:/program files/microchip/xc32/v2.40/bin/bin/../../lib/gcc/pic32c/6.2.1\libgcc.a(_arm_cmpsf2.o)
 .ARM.attributes
                0x00000000       0x1e c:/program files/microchip/xc32/v2.40/bin/bin/../../lib/gcc/pic32c/6.2.1\libgcc.a(_arm_cmpsf2.o)
 .data          0x00000000        0x0 c:/program files/microchip/xc32/v2.40/bin/bin/../../lib/gcc/pic32c/6.2.1\libgcc.a(_clzsi2.o)
 .bss           0x00000000        0x0 c:/program files/microchip/xc32/v2.40/bin/bin/../../lib/gcc/pic32c/6.2.1\libgcc.a(_clzsi2.o)
 .data          0x00000000        0x0 c:/program files/microchip/xc32/v2.40/bin/bin/../../lib/gcc/pic32c/6.2.1\libgcc.a(_clzdi2.o)
 .bss           0x00000000        0x0 c:/program files/microchip/xc32/v2.40/bin/bin/../../lib/gcc/pic32c/6.2.1\libgcc.a(_clzdi2.o)
 .text          0x00000000       0x4a c:/program files/microchip/xc32/v2.40/bin/bin/../../lib/gcc/pic32c/6.2.1\libgcc.a(eqsf2.o)
 .data          0x00000000        0x0 c:/program files/microchip/xc32/v2.40/bin/bin/../../lib/gcc/pic32c/6.2.1\libgcc.a(eqsf2.o)
 .bss           0x00000000        0x0 c:/program files/microchip/xc32/v2.40/bin/bin/../../lib/gcc/pic32c/6.2.1\libgcc.a(eqsf2.o)
 .debug_info    0x00000000      0x3e0 c:/program files/microchip/xc32/v2.40/bin/bin/../../lib/gcc/pic32c/6.2.1\libgcc.a(eqsf2.o)
 .debug_abbrev  0x00000000      0x128 c:/program files/microchip/xc32/v2.40/bin/bin/../../lib/gcc/pic32c/6.2.1\libgcc.a(eqsf2.o)
 .debug_loc     0x00000000       0xb8 c:/program files/microchip/xc32/v2.40/bin/bin/../../lib/gcc/pic32c/6.2.1\libgcc.a(eqsf2.o)
 .debug_aranges
                0x00000000       0x20 c:/program files/microchip/xc32/v2.40/bin/bin/../../lib/gcc/pic32c/6.2.1\libgcc.a(eqsf2.o)
 .debug_ranges  0x00000000       0x30 c:/program files/microchip/xc32/v2.40/bin/bin/../../lib/gcc/pic32c/6.2.1\libgcc.a(eqsf2.o)
 .debug_line    0x00000000      0x13e c:/program files/microchip/xc32/v2.40/bin/bin/../../lib/gcc/pic32c/6.2.1\libgcc.a(eqsf2.o)
 .debug_str     0x00000000       0x26 c:/program files/microchip/xc32/v2.40/bin/bin/../../lib/gcc/pic32c/6.2.1\libgcc.a(eqsf2.o)
 .comment       0x00000000       0x3d c:/program files/microchip/xc32/v2.40/bin/bin/../../lib/gcc/pic32c/6.2.1\libgcc.a(eqsf2.o)
 .debug_frame   0x00000000       0x2c c:/program files/microchip/xc32/v2.40/bin/bin/../../lib/gcc/pic32c/6.2.1\libgcc.a(eqsf2.o)
 .ARM.attributes
                0x00000000       0x2c c:/program files/microchip/xc32/v2.40/bin/bin/../../lib/gcc/pic32c/6.2.1\libgcc.a(eqsf2.o)
 .text          0x00000000       0x78 c:/program files/microchip/xc32/v2.40/bin/bin/../../lib/gcc/pic32c/6.2.1\libgcc.a(gesf2.o)
 .data          0x00000000        0x0 c:/program files/microchip/xc32/v2.40/bin/bin/../../lib/gcc/pic32c/6.2.1\libgcc.a(gesf2.o)
 .bss           0x00000000        0x0 c:/program files/microchip/xc32/v2.40/bin/bin/../../lib/gcc/pic32c/6.2.1\libgcc.a(gesf2.o)
 .debug_info    0x00000000      0x404 c:/program files/microchip/xc32/v2.40/bin/bin/../../lib/gcc/pic32c/6.2.1\libgcc.a(gesf2.o)
 .debug_abbrev  0x00000000      0x12a c:/program files/microchip/xc32/v2.40/bin/bin/../../lib/gcc/pic32c/6.2.1\libgcc.a(gesf2.o)
 .debug_loc     0x00000000      0x1ca c:/program files/microchip/xc32/v2.40/bin/bin/../../lib/gcc/pic32c/6.2.1\libgcc.a(gesf2.o)
 .debug_aranges
                0x00000000       0x20 c:/program files/microchip/xc32/v2.40/bin/bin/../../lib/gcc/pic32c/6.2.1\libgcc.a(gesf2.o)
 .debug_ranges  0x00000000       0x58 c:/program files/microchip/xc32/v2.40/bin/bin/../../lib/gcc/pic32c/6.2.1\libgcc.a(gesf2.o)
 .debug_line    0x00000000      0x149 c:/program files/microchip/xc32/v2.40/bin/bin/../../lib/gcc/pic32c/6.2.1\libgcc.a(gesf2.o)
 .debug_str     0x00000000       0x26 c:/program files/microchip/xc32/v2.40/bin/bin/../../lib/gcc/pic32c/6.2.1\libgcc.a(gesf2.o)
 .comment       0x00000000       0x3d c:/program files/microchip/xc32/v2.40/bin/bin/../../lib/gcc/pic32c/6.2.1\libgcc.a(gesf2.o)
 .debug_frame   0x00000000       0x30 c:/program files/microchip/xc32/v2.40/bin/bin/../../lib/gcc/pic32c/6.2.1\libgcc.a(gesf2.o)
 .ARM.attributes
                0x00000000       0x2c c:/program files/microchip/xc32/v2.40/bin/bin/../../lib/gcc/pic32c/6.2.1\libgcc.a(gesf2.o)
 .text          0x00000000       0x76 c:/program files/microchip/xc32/v2.40/bin/bin/../../lib/gcc/pic32c/6.2.1\libgcc.a(lesf2.o)
 .data          0x00000000        0x0 c:/program files/microchip/xc32/v2.40/bin/bin/../../lib/gcc/pic32c/6.2.1\libgcc.a(lesf2.o)
 .bss           0x00000000        0x0 c:/program files/microchip/xc32/v2.40/bin/bin/../../lib/gcc/pic32c/6.2.1\libgcc.a(lesf2.o)
 .debug_info    0x00000000      0x408 c:/program files/microchip/xc32/v2.40/bin/bin/../../lib/gcc/pic32c/6.2.1\libgcc.a(lesf2.o)
 .debug_abbrev  0x00000000      0x135 c:/program files/microchip/xc32/v2.40/bin/bin/../../lib/gcc/pic32c/6.2.1\libgcc.a(lesf2.o)
 .debug_loc     0x00000000      0x163 c:/program files/microchip/xc32/v2.40/bin/bin/../../lib/gcc/pic32c/6.2.1\libgcc.a(lesf2.o)
 .debug_aranges
                0x00000000       0x20 c:/program files/microchip/xc32/v2.40/bin/bin/../../lib/gcc/pic32c/6.2.1\libgcc.a(lesf2.o)
 .debug_ranges  0x00000000       0x30 c:/program files/microchip/xc32/v2.40/bin/bin/../../lib/gcc/pic32c/6.2.1\libgcc.a(lesf2.o)
 .debug_line    0x00000000      0x147 c:/program files/microchip/xc32/v2.40/bin/bin/../../lib/gcc/pic32c/6.2.1\libgcc.a(lesf2.o)
 .debug_str     0x00000000       0x26 c:/program files/microchip/xc32/v2.40/bin/bin/../../lib/gcc/pic32c/6.2.1\libgcc.a(lesf2.o)
 .comment       0x00000000       0x3d c:/program files/microchip/xc32/v2.40/bin/bin/../../lib/gcc/pic32c/6.2.1\libgcc.a(lesf2.o)
 .debug_frame   0x00000000       0x30 c:/program files/microchip/xc32/v2.40/bin/bin/../../lib/gcc/pic32c/6.2.1\libgcc.a(lesf2.o)
 .ARM.attributes
                0x00000000       0x2c c:/program files/microchip/xc32/v2.40/bin/bin/../../lib/gcc/pic32c/6.2.1\libgcc.a(lesf2.o)
 .text          0x00000000        0x0 c:/program files/microchip/xc32/v2.40/bin/bin/../../lib/gcc/pic32c/6.2.1/../../../../pic32c/lib\libc_nano.a(lib_a-atof.o)
 .data          0x00000000        0x0 c:/program files/microchip/xc32/v2.40/bin/bin/../../lib/gcc/pic32c/6.2.1/../../../../pic32c/lib\libc_nano.a(lib_a-atof.o)
 .bss           0x00000000        0x0 c:/program files/microchip/xc32/v2.40/bin/bin/../../lib/gcc/pic32c/6.2.1/../../../../pic32c/lib\libc_nano.a(lib_a-atof.o)
 .text          0x00000000        0x0 c:/program files/microchip/xc32/v2.40/bin/bin/../../lib/gcc/pic32c/6.2.1/../../../../pic32c/lib\libc_nano.a(lib_a-atoi.o)
 .data          0x00000000        0x0 c:/program files/microchip/xc32/v2.40/bin/bin/../../lib/gcc/pic32c/6.2.1/../../../../pic32c/lib\libc_nano.a(lib_a-atoi.o)
 .bss           0x00000000        0x0 c:/program files/microchip/xc32/v2.40/bin/bin/../../lib/gcc/pic32c/6.2.1/../../../../pic32c/lib\libc_nano.a(lib_a-atoi.o)
 .text._atoi_r  0x00000000        0xc c:/program files/microchip/xc32/v2.40/bin/bin/../../lib/gcc/pic32c/6.2.1/../../../../pic32c/lib\libc_nano.a(lib_a-atoi.o)
 .text          0x00000000        0x0 c:/program files/microchip/xc32/v2.40/bin/bin/../../lib/gcc/pic32c/6.2.1/../../../../pic32c/lib\libc_nano.a(lib_a-init.o)
 .data          0x00000000        0x0 c:/program files/microchip/xc32/v2.40/bin/bin/../../lib/gcc/pic32c/6.2.1/../../../../pic32c/lib\libc_nano.a(lib_a-init.o)
 .bss           0x00000000        0x0 c:/program files/microchip/xc32/v2.40/bin/bin/../../lib/gcc/pic32c/6.2.1/../../../../pic32c/lib\libc_nano.a(lib_a-init.o)
 .text          0x00000000        0x0 c:/program files/microchip/xc32/v2.40/bin/bin/../../lib/gcc/pic32c/6.2.1/../../../../pic32c/lib\libc_nano.a(lib_a-memcmp.o)
 .data          0x00000000        0x0 c:/program files/microchip/xc32/v2.40/bin/bin/../../lib/gcc/pic32c/6.2.1/../../../../pic32c/lib\libc_nano.a(lib_a-memcmp.o)
 .bss           0x00000000        0x0 c:/program files/microchip/xc32/v2.40/bin/bin/../../lib/gcc/pic32c/6.2.1/../../../../pic32c/lib\libc_nano.a(lib_a-memcmp.o)
 .text          0x00000000        0x0 c:/program files/microchip/xc32/v2.40/bin/bin/../../lib/gcc/pic32c/6.2.1/../../../../pic32c/lib\libc_nano.a(lib_a-memcpy-stub.o)
 .data          0x00000000        0x0 c:/program files/microchip/xc32/v2.40/bin/bin/../../lib/gcc/pic32c/6.2.1/../../../../pic32c/lib\libc_nano.a(lib_a-memcpy-stub.o)
 .bss           0x00000000        0x0 c:/program files/microchip/xc32/v2.40/bin/bin/../../lib/gcc/pic32c/6.2.1/../../../../pic32c/lib\libc_nano.a(lib_a-memcpy-stub.o)
 .text          0x00000000        0x0 c:/program files/microchip/xc32/v2.40/bin/bin/../../lib/gcc/pic32c/6.2.1/../../../../pic32c/lib\libc_nano.a(lib_a-memset.o)
 .data          0x00000000        0x0 c:/program files/microchip/xc32/v2.40/bin/bin/../../lib/gcc/pic32c/6.2.1/../../../../pic32c/lib\libc_nano.a(lib_a-memset.o)
 .bss           0x00000000        0x0 c:/program files/microchip/xc32/v2.40/bin/bin/../../lib/gcc/pic32c/6.2.1/../../../../pic32c/lib\libc_nano.a(lib_a-memset.o)
 .text          0x00000000        0x0 c:/program files/microchip/xc32/v2.40/bin/bin/../../lib/gcc/pic32c/6.2.1/../../../../pic32c/lib\libc_nano.a(_lib_a-sprintf.cdfFgGnopsuxX.o)
 .data          0x00000000        0x0 c:/program files/microchip/xc32/v2.40/bin/bin/../../lib/gcc/pic32c/6.2.1/../../../../pic32c/lib\libc_nano.a(_lib_a-sprintf.cdfFgGnopsuxX.o)
 .bss           0x00000000        0x0 c:/program files/microchip/xc32/v2.40/bin/bin/../../lib/gcc/pic32c/6.2.1/../../../../pic32c/lib\libc_nano.a(_lib_a-sprintf.cdfFgGnopsuxX.o)
 .text          0x00000000        0x0 c:/program files/microchip/xc32/v2.40/bin/bin/../../lib/gcc/pic32c/6.2.1/../../../../pic32c/lib\libc_nano.a(lib_a-strcat.o)
 .data          0x00000000        0x0 c:/program files/microchip/xc32/v2.40/bin/bin/../../lib/gcc/pic32c/6.2.1/../../../../pic32c/lib\libc_nano.a(lib_a-strcat.o)
 .bss           0x00000000        0x0 c:/program files/microchip/xc32/v2.40/bin/bin/../../lib/gcc/pic32c/6.2.1/../../../../pic32c/lib\libc_nano.a(lib_a-strcat.o)
 .data          0x00000000        0x0 c:/program files/microchip/xc32/v2.40/bin/bin/../../lib/gcc/pic32c/6.2.1/../../../../pic32c/lib\libc_nano.a(lib_a-strlen.o)
 .bss           0x00000000        0x0 c:/program files/microchip/xc32/v2.40/bin/bin/../../lib/gcc/pic32c/6.2.1/../../../../pic32c/lib\libc_nano.a(lib_a-strlen.o)
 .text          0x00000000        0x0 c:/program files/microchip/xc32/v2.40/bin/bin/../../lib/gcc/pic32c/6.2.1/../../../../pic32c/lib\libc_nano.a(lib_a-strstr.o)
 .data          0x00000000        0x0 c:/program files/microchip/xc32/v2.40/bin/bin/../../lib/gcc/pic32c/6.2.1/../../../../pic32c/lib\libc_nano.a(lib_a-strstr.o)
 .bss           0x00000000        0x0 c:/program files/microchip/xc32/v2.40/bin/bin/../../lib/gcc/pic32c/6.2.1/../../../../pic32c/lib\libc_nano.a(lib_a-strstr.o)
 .text          0x00000000        0x0 c:/program files/microchip/xc32/v2.40/bin/bin/../../lib/gcc/pic32c/6.2.1/../../../../pic32c/lib\libc_nano.a(lib_a-strtod.o)
 .data          0x00000000        0x0 c:/program files/microchip/xc32/v2.40/bin/bin/../../lib/gcc/pic32c/6.2.1/../../../../pic32c/lib\libc_nano.a(lib_a-strtod.o)
 .bss           0x00000000        0x0 c:/program files/microchip/xc32/v2.40/bin/bin/../../lib/gcc/pic32c/6.2.1/../../../../pic32c/lib\libc_nano.a(lib_a-strtod.o)
 .text._strtod_r
                0x00000000       0x1c c:/program files/microchip/xc32/v2.40/bin/bin/../../lib/gcc/pic32c/6.2.1/../../../../pic32c/lib\libc_nano.a(lib_a-strtod.o)
 .text.strtod_l
                0x00000000       0x18 c:/program files/microchip/xc32/v2.40/bin/bin/../../lib/gcc/pic32c/6.2.1/../../../../pic32c/lib\libc_nano.a(lib_a-strtod.o)
 .text.strtof_l
                0x00000000       0x38 c:/program files/microchip/xc32/v2.40/bin/bin/../../lib/gcc/pic32c/6.2.1/../../../../pic32c/lib\libc_nano.a(lib_a-strtod.o)
 .text.strtof   0x00000000       0x44 c:/program files/microchip/xc32/v2.40/bin/bin/../../lib/gcc/pic32c/6.2.1/../../../../pic32c/lib\libc_nano.a(lib_a-strtod.o)
 .text          0x00000000        0x0 c:/program files/microchip/xc32/v2.40/bin/bin/../../lib/gcc/pic32c/6.2.1/../../../../pic32c/lib\libc_nano.a(lib_a-strtol.o)
 .data          0x00000000        0x0 c:/program files/microchip/xc32/v2.40/bin/bin/../../lib/gcc/pic32c/6.2.1/../../../../pic32c/lib\libc_nano.a(lib_a-strtol.o)
 .bss           0x00000000        0x0 c:/program files/microchip/xc32/v2.40/bin/bin/../../lib/gcc/pic32c/6.2.1/../../../../pic32c/lib\libc_nano.a(lib_a-strtol.o)
 .text._strtol_r
                0x00000000       0x20 c:/program files/microchip/xc32/v2.40/bin/bin/../../lib/gcc/pic32c/6.2.1/../../../../pic32c/lib\libc_nano.a(lib_a-strtol.o)
 .text.strtol_l
                0x00000000       0x18 c:/program files/microchip/xc32/v2.40/bin/bin/../../lib/gcc/pic32c/6.2.1/../../../../pic32c/lib\libc_nano.a(lib_a-strtol.o)
 .text          0x00000000        0x0 c:/program files/microchip/xc32/v2.40/bin/bin/../../lib/gcc/pic32c/6.2.1/../../../../pic32c/lib\libc_nano.a(lib_a-gdtoa-gethex.o)
 .data          0x00000000        0x0 c:/program files/microchip/xc32/v2.40/bin/bin/../../lib/gcc/pic32c/6.2.1/../../../../pic32c/lib\libc_nano.a(lib_a-gdtoa-gethex.o)
 .bss           0x00000000        0x0 c:/program files/microchip/xc32/v2.40/bin/bin/../../lib/gcc/pic32c/6.2.1/../../../../pic32c/lib\libc_nano.a(lib_a-gdtoa-gethex.o)
 .text          0x00000000        0x0 c:/program files/microchip/xc32/v2.40/bin/bin/../../lib/gcc/pic32c/6.2.1/../../../../pic32c/lib\libc_nano.a(lib_a-gdtoa-hexnan.o)
 .data          0x00000000        0x0 c:/program files/microchip/xc32/v2.40/bin/bin/../../lib/gcc/pic32c/6.2.1/../../../../pic32c/lib\libc_nano.a(lib_a-gdtoa-hexnan.o)
 .bss           0x00000000        0x0 c:/program files/microchip/xc32/v2.40/bin/bin/../../lib/gcc/pic32c/6.2.1/../../../../pic32c/lib\libc_nano.a(lib_a-gdtoa-hexnan.o)
 .text          0x00000000        0x0 c:/program files/microchip/xc32/v2.40/bin/bin/../../lib/gcc/pic32c/6.2.1/../../../../pic32c/lib\libc_nano.a(lib_a-impure.o)
 .data          0x00000000        0x0 c:/program files/microchip/xc32/v2.40/bin/bin/../../lib/gcc/pic32c/6.2.1/../../../../pic32c/lib\libc_nano.a(lib_a-impure.o)
 .bss           0x00000000        0x0 c:/program files/microchip/xc32/v2.40/bin/bin/../../lib/gcc/pic32c/6.2.1/../../../../pic32c/lib\libc_nano.a(lib_a-impure.o)
 .text          0x00000000        0x0 c:/program files/microchip/xc32/v2.40/bin/bin/../../lib/gcc/pic32c/6.2.1/../../../../pic32c/lib\libc_nano.a(lib_a-localeconv.o)
 .data          0x00000000        0x0 c:/program files/microchip/xc32/v2.40/bin/bin/../../lib/gcc/pic32c/6.2.1/../../../../pic32c/lib\libc_nano.a(lib_a-localeconv.o)
 .bss           0x00000000        0x0 c:/program files/microchip/xc32/v2.40/bin/bin/../../lib/gcc/pic32c/6.2.1/../../../../pic32c/lib\libc_nano.a(lib_a-localeconv.o)
 .text.localeconv
                0x00000000       0x18 c:/program files/microchip/xc32/v2.40/bin/bin/../../lib/gcc/pic32c/6.2.1/../../../../pic32c/lib\libc_nano.a(lib_a-localeconv.o)
 .text          0x00000000        0x0 c:/program files/microchip/xc32/v2.40/bin/bin/../../lib/gcc/pic32c/6.2.1/../../../../pic32c/lib\libc_nano.a(lib_a-locale.o)
 .data          0x00000000        0x0 c:/program files/microchip/xc32/v2.40/bin/bin/../../lib/gcc/pic32c/6.2.1/../../../../pic32c/lib\libc_nano.a(lib_a-locale.o)
 .bss           0x00000000        0x0 c:/program files/microchip/xc32/v2.40/bin/bin/../../lib/gcc/pic32c/6.2.1/../../../../pic32c/lib\libc_nano.a(lib_a-locale.o)
 .text._setlocale_r
                0x00000000       0x3c c:/program files/microchip/xc32/v2.40/bin/bin/../../lib/gcc/pic32c/6.2.1/../../../../pic32c/lib\libc_nano.a(lib_a-locale.o)
 .text.__locale_ctype_ptr
                0x00000000       0x1c c:/program files/microchip/xc32/v2.40/bin/bin/../../lib/gcc/pic32c/6.2.1/../../../../pic32c/lib\libc_nano.a(lib_a-locale.o)
 .text.setlocale
                0x00000000       0x14 c:/program files/microchip/xc32/v2.40/bin/bin/../../lib/gcc/pic32c/6.2.1/../../../../pic32c/lib\libc_nano.a(lib_a-locale.o)
 .bss._PathLocale
                0x00000000        0x4 c:/program files/microchip/xc32/v2.40/bin/bin/../../lib/gcc/pic32c/6.2.1/../../../../pic32c/lib\libc_nano.a(lib_a-locale.o)
 .text          0x00000000        0x0 c:/program files/microchip/xc32/v2.40/bin/bin/../../lib/gcc/pic32c/6.2.1/../../../../pic32c/lib\libc_nano.a(lib_a-mbtowc_r.o)
 .data          0x00000000        0x0 c:/program files/microchip/xc32/v2.40/bin/bin/../../lib/gcc/pic32c/6.2.1/../../../../pic32c/lib\libc_nano.a(lib_a-mbtowc_r.o)
 .bss           0x00000000        0x0 c:/program files/microchip/xc32/v2.40/bin/bin/../../lib/gcc/pic32c/6.2.1/../../../../pic32c/lib\libc_nano.a(lib_a-mbtowc_r.o)
 .text._mbtowc_r
                0x00000000       0x24 c:/program files/microchip/xc32/v2.40/bin/bin/../../lib/gcc/pic32c/6.2.1/../../../../pic32c/lib\libc_nano.a(lib_a-mbtowc_r.o)
 .text          0x00000000        0x0 c:/program files/microchip/xc32/v2.40/bin/bin/../../lib/gcc/pic32c/6.2.1/../../../../pic32c/lib\libc_nano.a(lib_a-mprec.o)
 .data          0x00000000        0x0 c:/program files/microchip/xc32/v2.40/bin/bin/../../lib/gcc/pic32c/6.2.1/../../../../pic32c/lib\libc_nano.a(lib_a-mprec.o)
 .bss           0x00000000        0x0 c:/program files/microchip/xc32/v2.40/bin/bin/../../lib/gcc/pic32c/6.2.1/../../../../pic32c/lib\libc_nano.a(lib_a-mprec.o)
 .text._mprec_log10
                0x00000000       0x34 c:/program files/microchip/xc32/v2.40/bin/bin/../../lib/gcc/pic32c/6.2.1/../../../../pic32c/lib\libc_nano.a(lib_a-mprec.o)
 .rodata.__mprec_tinytens
                0x00000000       0x28 c:/program files/microchip/xc32/v2.40/bin/bin/../../lib/gcc/pic32c/6.2.1/../../../../pic32c/lib\libc_nano.a(lib_a-mprec.o)
 .text          0x00000000        0x0 c:/program files/microchip/xc32/v2.40/bin/bin/../../lib/gcc/pic32c/6.2.1/../../../../pic32c/lib\libc_nano.a(lib_a-nano-callocr.o)
 .data          0x00000000        0x0 c:/program files/microchip/xc32/v2.40/bin/bin/../../lib/gcc/pic32c/6.2.1/../../../../pic32c/lib\libc_nano.a(lib_a-nano-callocr.o)
 .bss           0x00000000        0x0 c:/program files/microchip/xc32/v2.40/bin/bin/../../lib/gcc/pic32c/6.2.1/../../../../pic32c/lib\libc_nano.a(lib_a-nano-callocr.o)
 .text          0x00000000        0x0 c:/program files/microchip/xc32/v2.40/bin/bin/../../lib/gcc/pic32c/6.2.1/../../../../pic32c/lib\libc_nano.a(lib_a-nano-mallocr.o)
 .data          0x00000000        0x0 c:/program files/microchip/xc32/v2.40/bin/bin/../../lib/gcc/pic32c/6.2.1/../../../../pic32c/lib\libc_nano.a(lib_a-nano-mallocr.o)
 .bss           0x00000000        0x0 c:/program files/microchip/xc32/v2.40/bin/bin/../../lib/gcc/pic32c/6.2.1/../../../../pic32c/lib\libc_nano.a(lib_a-nano-mallocr.o)
 .text          0x00000000        0x0 c:/program files/microchip/xc32/v2.40/bin/bin/../../lib/gcc/pic32c/6.2.1/../../../../pic32c/lib\libc_nano.a(_lib_a-nano-vfprintf.cdfFgGnopsuxX.o)
 .data          0x00000000        0x0 c:/program files/microchip/xc32/v2.40/bin/bin/../../lib/gcc/pic32c/6.2.1/../../../../pic32c/lib\libc_nano.a(_lib_a-nano-vfprintf.cdfFgGnopsuxX.o)
 .bss           0x00000000        0x0 c:/program files/microchip/xc32/v2.40/bin/bin/../../lib/gcc/pic32c/6.2.1/../../../../pic32c/lib\libc_nano.a(_lib_a-nano-vfprintf.cdfFgGnopsuxX.o)
 .text          0x00000000        0x0 c:/program files/microchip/xc32/v2.40/bin/bin/../../lib/gcc/pic32c/6.2.1/../../../../pic32c/lib\libc_nano.a(lib_a-nano-vfprintf_i.o)
 .data          0x00000000        0x0 c:/program files/microchip/xc32/v2.40/bin/bin/../../lib/gcc/pic32c/6.2.1/../../../../pic32c/lib\libc_nano.a(lib_a-nano-vfprintf_i.o)
 .bss           0x00000000        0x0 c:/program files/microchip/xc32/v2.40/bin/bin/../../lib/gcc/pic32c/6.2.1/../../../../pic32c/lib\libc_nano.a(lib_a-nano-vfprintf_i.o)
 .text._printf_i
                0x00000000      0x234 c:/program files/microchip/xc32/v2.40/bin/bin/../../lib/gcc/pic32c/6.2.1/../../../../pic32c/lib\libc_nano.a(lib_a-nano-vfprintf_i.o)
 .rodata        0x00000000       0x22 c:/program files/microchip/xc32/v2.40/bin/bin/../../lib/gcc/pic32c/6.2.1/../../../../pic32c/lib\libc_nano.a(lib_a-nano-vfprintf_i.o)
 .text          0x00000000        0x0 c:/program files/microchip/xc32/v2.40/bin/bin/../../lib/gcc/pic32c/6.2.1/../../../../pic32c/lib\libc_nano.a(lib_a-sbrkr.o)
 .data          0x00000000        0x0 c:/program files/microchip/xc32/v2.40/bin/bin/../../lib/gcc/pic32c/6.2.1/../../../../pic32c/lib\libc_nano.a(lib_a-sbrkr.o)
 .bss           0x00000000        0x0 c:/program files/microchip/xc32/v2.40/bin/bin/../../lib/gcc/pic32c/6.2.1/../../../../pic32c/lib\libc_nano.a(lib_a-sbrkr.o)
 .text          0x00000000        0x0 c:/program files/microchip/xc32/v2.40/bin/bin/../../lib/gcc/pic32c/6.2.1/../../../../pic32c/lib\libc_nano.a(lib_a-sf_nan.o)
 .data          0x00000000        0x0 c:/program files/microchip/xc32/v2.40/bin/bin/../../lib/gcc/pic32c/6.2.1/../../../../pic32c/lib\libc_nano.a(lib_a-sf_nan.o)
 .bss           0x00000000        0x0 c:/program files/microchip/xc32/v2.40/bin/bin/../../lib/gcc/pic32c/6.2.1/../../../../pic32c/lib\libc_nano.a(lib_a-sf_nan.o)
 .text.nanf     0x00000000        0x8 c:/program files/microchip/xc32/v2.40/bin/bin/../../lib/gcc/pic32c/6.2.1/../../../../pic32c/lib\libc_nano.a(lib_a-sf_nan.o)
 .debug_info    0x00000000      0xde4 c:/program files/microchip/xc32/v2.40/bin/bin/../../lib/gcc/pic32c/6.2.1/../../../../pic32c/lib\libc_nano.a(lib_a-sf_nan.o)
 .debug_abbrev  0x00000000      0x17a c:/program files/microchip/xc32/v2.40/bin/bin/../../lib/gcc/pic32c/6.2.1/../../../../pic32c/lib\libc_nano.a(lib_a-sf_nan.o)
 .debug_loc     0x00000000       0x21 c:/program files/microchip/xc32/v2.40/bin/bin/../../lib/gcc/pic32c/6.2.1/../../../../pic32c/lib\libc_nano.a(lib_a-sf_nan.o)
 .debug_aranges
                0x00000000       0x20 c:/program files/microchip/xc32/v2.40/bin/bin/../../lib/gcc/pic32c/6.2.1/../../../../pic32c/lib\libc_nano.a(lib_a-sf_nan.o)
 .debug_ranges  0x00000000       0x10 c:/program files/microchip/xc32/v2.40/bin/bin/../../lib/gcc/pic32c/6.2.1/../../../../pic32c/lib\libc_nano.a(lib_a-sf_nan.o)
 .debug_line    0x00000000      0x1fe c:/program files/microchip/xc32/v2.40/bin/bin/../../lib/gcc/pic32c/6.2.1/../../../../pic32c/lib\libc_nano.a(lib_a-sf_nan.o)
 .debug_str     0x00000000        0x9 c:/program files/microchip/xc32/v2.40/bin/bin/../../lib/gcc/pic32c/6.2.1/../../../../pic32c/lib\libc_nano.a(lib_a-sf_nan.o)
 .comment       0x00000000       0x3d c:/program files/microchip/xc32/v2.40/bin/bin/../../lib/gcc/pic32c/6.2.1/../../../../pic32c/lib\libc_nano.a(lib_a-sf_nan.o)
 .debug_frame   0x00000000       0x20 c:/program files/microchip/xc32/v2.40/bin/bin/../../lib/gcc/pic32c/6.2.1/../../../../pic32c/lib\libc_nano.a(lib_a-sf_nan.o)
 .ARM.attributes
                0x00000000       0x2c c:/program files/microchip/xc32/v2.40/bin/bin/../../lib/gcc/pic32c/6.2.1/../../../../pic32c/lib\libc_nano.a(lib_a-sf_nan.o)
 .text          0x00000000        0x0 c:/program files/microchip/xc32/v2.40/bin/bin/../../lib/gcc/pic32c/6.2.1/../../../../pic32c/lib\libc_nano.a(lib_a-__ssfputs.o)
 .data          0x00000000        0x0 c:/program files/microchip/xc32/v2.40/bin/bin/../../lib/gcc/pic32c/6.2.1/../../../../pic32c/lib\libc_nano.a(lib_a-__ssfputs.o)
 .bss           0x00000000        0x0 c:/program files/microchip/xc32/v2.40/bin/bin/../../lib/gcc/pic32c/6.2.1/../../../../pic32c/lib\libc_nano.a(lib_a-__ssfputs.o)
 .text          0x00000000       0x14 c:/program files/microchip/xc32/v2.40/bin/bin/../../lib/gcc/pic32c/6.2.1/../../../../pic32c/lib\libc_nano.a(lib_a-strcmp.o)
 .data          0x00000000        0x0 c:/program files/microchip/xc32/v2.40/bin/bin/../../lib/gcc/pic32c/6.2.1/../../../../pic32c/lib\libc_nano.a(lib_a-strcmp.o)
 .bss           0x00000000        0x0 c:/program files/microchip/xc32/v2.40/bin/bin/../../lib/gcc/pic32c/6.2.1/../../../../pic32c/lib\libc_nano.a(lib_a-strcmp.o)
 .debug_line    0x00000000       0xb1 c:/program files/microchip/xc32/v2.40/bin/bin/../../lib/gcc/pic32c/6.2.1/../../../../pic32c/lib\libc_nano.a(lib_a-strcmp.o)
 .debug_info    0x00000000      0x114 c:/program files/microchip/xc32/v2.40/bin/bin/../../lib/gcc/pic32c/6.2.1/../../../../pic32c/lib\libc_nano.a(lib_a-strcmp.o)
 .debug_abbrev  0x00000000       0x14 c:/program files/microchip/xc32/v2.40/bin/bin/../../lib/gcc/pic32c/6.2.1/../../../../pic32c/lib\libc_nano.a(lib_a-strcmp.o)
 .debug_aranges
                0x00000000       0x20 c:/program files/microchip/xc32/v2.40/bin/bin/../../lib/gcc/pic32c/6.2.1/../../../../pic32c/lib\libc_nano.a(lib_a-strcmp.o)
 .debug_frame   0x00000000       0x20 c:/program files/microchip/xc32/v2.40/bin/bin/../../lib/gcc/pic32c/6.2.1/../../../../pic32c/lib\libc_nano.a(lib_a-strcmp.o)
 .ARM.attributes
                0x00000000       0x1c c:/program files/microchip/xc32/v2.40/bin/bin/../../lib/gcc/pic32c/6.2.1/../../../../pic32c/lib\libc_nano.a(lib_a-strcmp.o)
 .text          0x00000000        0x0 c:/program files/microchip/xc32/v2.40/bin/bin/../../lib/gcc/pic32c/6.2.1/../../../../pic32c/lib\libc_nano.a(lib_a-strncmp.o)
 .data          0x00000000        0x0 c:/program files/microchip/xc32/v2.40/bin/bin/../../lib/gcc/pic32c/6.2.1/../../../../pic32c/lib\libc_nano.a(lib_a-strncmp.o)
 .bss           0x00000000        0x0 c:/program files/microchip/xc32/v2.40/bin/bin/../../lib/gcc/pic32c/6.2.1/../../../../pic32c/lib\libc_nano.a(lib_a-strncmp.o)
 .text          0x00000000        0x0 c:/program files/microchip/xc32/v2.40/bin/bin/../../lib/gcc/pic32c/6.2.1/../../../../pic32c/lib\libc_nano.a(lib_a-wbuf.o)
 .data          0x00000000        0x0 c:/program files/microchip/xc32/v2.40/bin/bin/../../lib/gcc/pic32c/6.2.1/../../../../pic32c/lib\libc_nano.a(lib_a-wbuf.o)
 .bss           0x00000000        0x0 c:/program files/microchip/xc32/v2.40/bin/bin/../../lib/gcc/pic32c/6.2.1/../../../../pic32c/lib\libc_nano.a(lib_a-wbuf.o)
 .text.__swbuf  0x00000000       0x14 c:/program files/microchip/xc32/v2.40/bin/bin/../../lib/gcc/pic32c/6.2.1/../../../../pic32c/lib\libc_nano.a(lib_a-wbuf.o)
 .text          0x00000000        0x0 c:/program files/microchip/xc32/v2.40/bin/bin/../../lib/gcc/pic32c/6.2.1/../../../../pic32c/lib\libc_nano.a(lib_a-wctomb_r.o)
 .data          0x00000000        0x0 c:/program files/microchip/xc32/v2.40/bin/bin/../../lib/gcc/pic32c/6.2.1/../../../../pic32c/lib\libc_nano.a(lib_a-wctomb_r.o)
 .bss           0x00000000        0x0 c:/program files/microchip/xc32/v2.40/bin/bin/../../lib/gcc/pic32c/6.2.1/../../../../pic32c/lib\libc_nano.a(lib_a-wctomb_r.o)
 .text._wctomb_r
                0x00000000       0x20 c:/program files/microchip/xc32/v2.40/bin/bin/../../lib/gcc/pic32c/6.2.1/../../../../pic32c/lib\libc_nano.a(lib_a-wctomb_r.o)
 .text          0x00000000        0x0 c:/program files/microchip/xc32/v2.40/bin/bin/../../lib/gcc/pic32c/6.2.1/../../../../pic32c/lib\libc_nano.a(lib_a-wsetup.o)
 .data          0x00000000        0x0 c:/program files/microchip/xc32/v2.40/bin/bin/../../lib/gcc/pic32c/6.2.1/../../../../pic32c/lib\libc_nano.a(lib_a-wsetup.o)
 .bss           0x00000000        0x0 c:/program files/microchip/xc32/v2.40/bin/bin/../../lib/gcc/pic32c/6.2.1/../../../../pic32c/lib\libc_nano.a(lib_a-wsetup.o)
 .text          0x00000000        0x0 c:/program files/microchip/xc32/v2.40/bin/bin/../../lib/gcc/pic32c/6.2.1/../../../../pic32c/lib\libc_nano.a(lib_a-ctype_.o)
 .data          0x00000000        0x0 c:/program files/microchip/xc32/v2.40/bin/bin/../../lib/gcc/pic32c/6.2.1/../../../../pic32c/lib\libc_nano.a(lib_a-ctype_.o)
 .bss           0x00000000        0x0 c:/program files/microchip/xc32/v2.40/bin/bin/../../lib/gcc/pic32c/6.2.1/../../../../pic32c/lib\libc_nano.a(lib_a-ctype_.o)
 .text          0x00000000        0x0 c:/program files/microchip/xc32/v2.40/bin/bin/../../lib/gcc/pic32c/6.2.1/../../../../pic32c/lib\libc_nano.a(lib_a-dtoa.o)
 .data          0x00000000        0x0 c:/program files/microchip/xc32/v2.40/bin/bin/../../lib/gcc/pic32c/6.2.1/../../../../pic32c/lib\libc_nano.a(lib_a-dtoa.o)
 .bss           0x00000000        0x0 c:/program files/microchip/xc32/v2.40/bin/bin/../../lib/gcc/pic32c/6.2.1/../../../../pic32c/lib\libc_nano.a(lib_a-dtoa.o)
 .text          0x00000000        0x0 c:/program files/microchip/xc32/v2.40/bin/bin/../../lib/gcc/pic32c/6.2.1/../../../../pic32c/lib\libc_nano.a(lib_a-fflush.o)
 .data          0x00000000        0x0 c:/program files/microchip/xc32/v2.40/bin/bin/../../lib/gcc/pic32c/6.2.1/../../../../pic32c/lib\libc_nano.a(lib_a-fflush.o)
 .bss           0x00000000        0x0 c:/program files/microchip/xc32/v2.40/bin/bin/../../lib/gcc/pic32c/6.2.1/../../../../pic32c/lib\libc_nano.a(lib_a-fflush.o)
 .text.fflush   0x00000000       0x28 c:/program files/microchip/xc32/v2.40/bin/bin/../../lib/gcc/pic32c/6.2.1/../../../../pic32c/lib\libc_nano.a(lib_a-fflush.o)
 .text          0x00000000        0x0 c:/program files/microchip/xc32/v2.40/bin/bin/../../lib/gcc/pic32c/6.2.1/../../../../pic32c/lib\libc_nano.a(lib_a-findfp.o)
 .data          0x00000000        0x0 c:/program files/microchip/xc32/v2.40/bin/bin/../../lib/gcc/pic32c/6.2.1/../../../../pic32c/lib\libc_nano.a(lib_a-findfp.o)
 .bss           0x00000000        0x0 c:/program files/microchip/xc32/v2.40/bin/bin/../../lib/gcc/pic32c/6.2.1/../../../../pic32c/lib\libc_nano.a(lib_a-findfp.o)
 .text._cleanup
                0x00000000       0x10 c:/program files/microchip/xc32/v2.40/bin/bin/../../lib/gcc/pic32c/6.2.1/../../../../pic32c/lib\libc_nano.a(lib_a-findfp.o)
 .text          0x00000000        0x0 c:/program files/microchip/xc32/v2.40/bin/bin/../../lib/gcc/pic32c/6.2.1/../../../../pic32c/lib\libc_nano.a(lib_a-fputwc.o)
 .data          0x00000000        0x0 c:/program files/microchip/xc32/v2.40/bin/bin/../../lib/gcc/pic32c/6.2.1/../../../../pic32c/lib\libc_nano.a(lib_a-fputwc.o)
 .bss           0x00000000        0x0 c:/program files/microchip/xc32/v2.40/bin/bin/../../lib/gcc/pic32c/6.2.1/../../../../pic32c/lib\libc_nano.a(lib_a-fputwc.o)
 .text.fputwc   0x00000000       0x54 c:/program files/microchip/xc32/v2.40/bin/bin/../../lib/gcc/pic32c/6.2.1/../../../../pic32c/lib\libc_nano.a(lib_a-fputwc.o)
 .text          0x00000000        0x0 c:/program files/microchip/xc32/v2.40/bin/bin/../../lib/gcc/pic32c/6.2.1/../../../../pic32c/lib\libc_nano.a(lib_a-fwalk.o)
 .data          0x00000000        0x0 c:/program files/microchip/xc32/v2.40/bin/bin/../../lib/gcc/pic32c/6.2.1/../../../../pic32c/lib\libc_nano.a(lib_a-fwalk.o)
 .bss           0x00000000        0x0 c:/program files/microchip/xc32/v2.40/bin/bin/../../lib/gcc/pic32c/6.2.1/../../../../pic32c/lib\libc_nano.a(lib_a-fwalk.o)
 .text._fwalk   0x00000000       0x38 c:/program files/microchip/xc32/v2.40/bin/bin/../../lib/gcc/pic32c/6.2.1/../../../../pic32c/lib\libc_nano.a(lib_a-fwalk.o)
 .text          0x00000000        0x0 c:/program files/microchip/xc32/v2.40/bin/bin/../../lib/gcc/pic32c/6.2.1/../../../../pic32c/lib\libc_nano.a(lib_a-makebuf.o)
 .data          0x00000000        0x0 c:/program files/microchip/xc32/v2.40/bin/bin/../../lib/gcc/pic32c/6.2.1/../../../../pic32c/lib\libc_nano.a(lib_a-makebuf.o)
 .bss           0x00000000        0x0 c:/program files/microchip/xc32/v2.40/bin/bin/../../lib/gcc/pic32c/6.2.1/../../../../pic32c/lib\libc_nano.a(lib_a-makebuf.o)
 .text          0x00000000        0x0 c:/program files/microchip/xc32/v2.40/bin/bin/../../lib/gcc/pic32c/6.2.1/../../../../pic32c/lib\libc_nano.a(lib_a-malloc.o)
 .data          0x00000000        0x0 c:/program files/microchip/xc32/v2.40/bin/bin/../../lib/gcc/pic32c/6.2.1/../../../../pic32c/lib\libc_nano.a(lib_a-malloc.o)
 .bss           0x00000000        0x0 c:/program files/microchip/xc32/v2.40/bin/bin/../../lib/gcc/pic32c/6.2.1/../../../../pic32c/lib\libc_nano.a(lib_a-malloc.o)
 .text.free     0x00000000       0x14 c:/program files/microchip/xc32/v2.40/bin/bin/../../lib/gcc/pic32c/6.2.1/../../../../pic32c/lib\libc_nano.a(lib_a-malloc.o)
 .text          0x00000000        0x0 c:/program files/microchip/xc32/v2.40/bin/bin/../../lib/gcc/pic32c/6.2.1/../../../../pic32c/lib\libc_nano.a(lib_a-memchr-stub.o)
 .data          0x00000000        0x0 c:/program files/microchip/xc32/v2.40/bin/bin/../../lib/gcc/pic32c/6.2.1/../../../../pic32c/lib\libc_nano.a(lib_a-memchr-stub.o)
 .bss           0x00000000        0x0 c:/program files/microchip/xc32/v2.40/bin/bin/../../lib/gcc/pic32c/6.2.1/../../../../pic32c/lib\libc_nano.a(lib_a-memchr-stub.o)
 .text          0x00000000        0x0 c:/program files/microchip/xc32/v2.40/bin/bin/../../lib/gcc/pic32c/6.2.1/../../../../pic32c/lib\libc_nano.a(lib_a-mlock.o)
 .data          0x00000000        0x0 c:/program files/microchip/xc32/v2.40/bin/bin/../../lib/gcc/pic32c/6.2.1/../../../../pic32c/lib\libc_nano.a(lib_a-mlock.o)
 .bss           0x00000000        0x0 c:/program files/microchip/xc32/v2.40/bin/bin/../../lib/gcc/pic32c/6.2.1/../../../../pic32c/lib\libc_nano.a(lib_a-mlock.o)
 .text          0x00000000        0x0 c:/program files/microchip/xc32/v2.40/bin/bin/../../lib/gcc/pic32c/6.2.1/../../../../pic32c/lib\libc_nano.a(lib_a-nano-freer.o)
 .data          0x00000000        0x0 c:/program files/microchip/xc32/v2.40/bin/bin/../../lib/gcc/pic32c/6.2.1/../../../../pic32c/lib\libc_nano.a(lib_a-nano-freer.o)
 .bss           0x00000000        0x0 c:/program files/microchip/xc32/v2.40/bin/bin/../../lib/gcc/pic32c/6.2.1/../../../../pic32c/lib\libc_nano.a(lib_a-nano-freer.o)
 .text          0x00000000        0x0 c:/program files/microchip/xc32/v2.40/bin/bin/../../lib/gcc/pic32c/6.2.1/../../../../pic32c/lib\libc_nano.a(lib_a-reent.o)
 .data          0x00000000        0x0 c:/program files/microchip/xc32/v2.40/bin/bin/../../lib/gcc/pic32c/6.2.1/../../../../pic32c/lib\libc_nano.a(lib_a-reent.o)
 .bss           0x00000000        0x0 c:/program files/microchip/xc32/v2.40/bin/bin/../../lib/gcc/pic32c/6.2.1/../../../../pic32c/lib\libc_nano.a(lib_a-reent.o)
 .text.cleanup_glue
                0x00000000       0x1a c:/program files/microchip/xc32/v2.40/bin/bin/../../lib/gcc/pic32c/6.2.1/../../../../pic32c/lib\libc_nano.a(lib_a-reent.o)
 .text._reclaim_reent
                0x00000000       0xcc c:/program files/microchip/xc32/v2.40/bin/bin/../../lib/gcc/pic32c/6.2.1/../../../../pic32c/lib\libc_nano.a(lib_a-reent.o)
 .text          0x00000000        0x0 c:/program files/microchip/xc32/v2.40/bin/bin/../../lib/gcc/pic32c/6.2.1/../../../../pic32c/lib\libc_nano.a(lib_a-stdio.o)
 .data          0x00000000        0x0 c:/program files/microchip/xc32/v2.40/bin/bin/../../lib/gcc/pic32c/6.2.1/../../../../pic32c/lib\libc_nano.a(lib_a-stdio.o)
 .bss           0x00000000        0x0 c:/program files/microchip/xc32/v2.40/bin/bin/../../lib/gcc/pic32c/6.2.1/../../../../pic32c/lib\libc_nano.a(lib_a-stdio.o)
 .text.__seofread
                0x00000000        0x4 c:/program files/microchip/xc32/v2.40/bin/bin/../../lib/gcc/pic32c/6.2.1/../../../../pic32c/lib\libc_nano.a(lib_a-stdio.o)
 .text          0x00000000        0x0 c:/program files/microchip/xc32/v2.40/bin/bin/../../lib/gcc/pic32c/6.2.1/../../../../pic32c/lib\libc_nano.a(lib_a-wcrtomb.o)
 .data          0x00000000        0x0 c:/program files/microchip/xc32/v2.40/bin/bin/../../lib/gcc/pic32c/6.2.1/../../../../pic32c/lib\libc_nano.a(lib_a-wcrtomb.o)
 .bss           0x00000000        0x0 c:/program files/microchip/xc32/v2.40/bin/bin/../../lib/gcc/pic32c/6.2.1/../../../../pic32c/lib\libc_nano.a(lib_a-wcrtomb.o)
 .text.wcrtomb  0x00000000       0x18 c:/program files/microchip/xc32/v2.40/bin/bin/../../lib/gcc/pic32c/6.2.1/../../../../pic32c/lib\libc_nano.a(lib_a-wcrtomb.o)
 .text          0x00000000        0x0 c:/program files/microchip/xc32/v2.40/bin/bin/../../lib/gcc/pic32c/6.2.1/../../../../pic32c/lib\libc_nano.a(lib_a-writer.o)
 .data          0x00000000        0x0 c:/program files/microchip/xc32/v2.40/bin/bin/../../lib/gcc/pic32c/6.2.1/../../../../pic32c/lib\libc_nano.a(lib_a-writer.o)
 .bss           0x00000000        0x0 c:/program files/microchip/xc32/v2.40/bin/bin/../../lib/gcc/pic32c/6.2.1/../../../../pic32c/lib\libc_nano.a(lib_a-writer.o)
 .text          0x00000000        0x0 c:/program files/microchip/xc32/v2.40/bin/bin/../../lib/gcc/pic32c/6.2.1/../../../../pic32c/lib\libc_nano.a(lib_a-closer.o)
 .data          0x00000000        0x0 c:/program files/microchip/xc32/v2.40/bin/bin/../../lib/gcc/pic32c/6.2.1/../../../../pic32c/lib\libc_nano.a(lib_a-closer.o)
 .bss           0x00000000        0x0 c:/program files/microchip/xc32/v2.40/bin/bin/../../lib/gcc/pic32c/6.2.1/../../../../pic32c/lib\libc_nano.a(lib_a-closer.o)
 .text          0x00000000        0x0 c:/program files/microchip/xc32/v2.40/bin/bin/../../lib/gcc/pic32c/6.2.1/../../../../pic32c/lib\libc_nano.a(lib_a-fstatr.o)
 .data          0x00000000        0x0 c:/program files/microchip/xc32/v2.40/bin/bin/../../lib/gcc/pic32c/6.2.1/../../../../pic32c/lib\libc_nano.a(lib_a-fstatr.o)
 .bss           0x00000000        0x0 c:/program files/microchip/xc32/v2.40/bin/bin/../../lib/gcc/pic32c/6.2.1/../../../../pic32c/lib\libc_nano.a(lib_a-fstatr.o)
 .text          0x00000000        0x0 c:/program files/microchip/xc32/v2.40/bin/bin/../../lib/gcc/pic32c/6.2.1/../../../../pic32c/lib\libc_nano.a(lib_a-isattyr.o)
 .data          0x00000000        0x0 c:/program files/microchip/xc32/v2.40/bin/bin/../../lib/gcc/pic32c/6.2.1/../../../../pic32c/lib\libc_nano.a(lib_a-isattyr.o)
 .bss           0x00000000        0x0 c:/program files/microchip/xc32/v2.40/bin/bin/../../lib/gcc/pic32c/6.2.1/../../../../pic32c/lib\libc_nano.a(lib_a-isattyr.o)
 .text          0x00000000        0x0 c:/program files/microchip/xc32/v2.40/bin/bin/../../lib/gcc/pic32c/6.2.1/../../../../pic32c/lib\libc_nano.a(lib_a-lseekr.o)
 .data          0x00000000        0x0 c:/program files/microchip/xc32/v2.40/bin/bin/../../lib/gcc/pic32c/6.2.1/../../../../pic32c/lib\libc_nano.a(lib_a-lseekr.o)
 .bss           0x00000000        0x0 c:/program files/microchip/xc32/v2.40/bin/bin/../../lib/gcc/pic32c/6.2.1/../../../../pic32c/lib\libc_nano.a(lib_a-lseekr.o)
 .text          0x00000000        0x0 c:/program files/microchip/xc32/v2.40/bin/bin/../../lib/gcc/pic32c/6.2.1/../../../../pic32c/lib\libc_nano.a(lib_a-readr.o)
 .data          0x00000000        0x0 c:/program files/microchip/xc32/v2.40/bin/bin/../../lib/gcc/pic32c/6.2.1/../../../../pic32c/lib\libc_nano.a(lib_a-readr.o)
 .bss           0x00000000        0x0 c:/program files/microchip/xc32/v2.40/bin/bin/../../lib/gcc/pic32c/6.2.1/../../../../pic32c/lib\libc_nano.a(lib_a-readr.o)
 .text          0x00000000        0x0 c:/program files/microchip/xc32/v2.40/bin/bin/../../lib/gcc/pic32c/6.2.1/../../../../pic32c/lib\libpic32c.a(_close.o)
 .data          0x00000000        0x0 c:/program files/microchip/xc32/v2.40/bin/bin/../../lib/gcc/pic32c/6.2.1/../../../../pic32c/lib\libpic32c.a(_close.o)
 .bss           0x00000000        0x0 c:/program files/microchip/xc32/v2.40/bin/bin/../../lib/gcc/pic32c/6.2.1/../../../../pic32c/lib\libpic32c.a(_close.o)
 .text          0x00000000        0x0 c:/program files/microchip/xc32/v2.40/bin/bin/../../lib/gcc/pic32c/6.2.1/../../../../pic32c/lib\libpic32c.a(_fstat.o)
 .data          0x00000000        0x0 c:/program files/microchip/xc32/v2.40/bin/bin/../../lib/gcc/pic32c/6.2.1/../../../../pic32c/lib\libpic32c.a(_fstat.o)
 .bss           0x00000000        0x0 c:/program files/microchip/xc32/v2.40/bin/bin/../../lib/gcc/pic32c/6.2.1/../../../../pic32c/lib\libpic32c.a(_fstat.o)
 .text          0x00000000        0x0 c:/program files/microchip/xc32/v2.40/bin/bin/../../lib/gcc/pic32c/6.2.1/../../../../pic32c/lib\libpic32c.a(_isatty.o)
 .data          0x00000000        0x0 c:/program files/microchip/xc32/v2.40/bin/bin/../../lib/gcc/pic32c/6.2.1/../../../../pic32c/lib\libpic32c.a(_isatty.o)
 .bss           0x00000000        0x0 c:/program files/microchip/xc32/v2.40/bin/bin/../../lib/gcc/pic32c/6.2.1/../../../../pic32c/lib\libpic32c.a(_isatty.o)
 .text          0x00000000        0x0 c:/program files/microchip/xc32/v2.40/bin/bin/../../lib/gcc/pic32c/6.2.1/../../../../pic32c/lib\libpic32c.a(_lseek.o)
 .data          0x00000000        0x0 c:/program files/microchip/xc32/v2.40/bin/bin/../../lib/gcc/pic32c/6.2.1/../../../../pic32c/lib\libpic32c.a(_lseek.o)
 .bss           0x00000000        0x0 c:/program files/microchip/xc32/v2.40/bin/bin/../../lib/gcc/pic32c/6.2.1/../../../../pic32c/lib\libpic32c.a(_lseek.o)
 .text          0x00000000        0x0 c:/program files/microchip/xc32/v2.40/bin/bin/../../lib/gcc/pic32c/6.2.1/../../../../pic32c/lib\libpic32c.a(_read.o)
 .data          0x00000000        0x0 c:/program files/microchip/xc32/v2.40/bin/bin/../../lib/gcc/pic32c/6.2.1/../../../../pic32c/lib\libpic32c.a(_read.o)
 .bss           0x00000000        0x0 c:/program files/microchip/xc32/v2.40/bin/bin/../../lib/gcc/pic32c/6.2.1/../../../../pic32c/lib\libpic32c.a(_read.o)
 .text          0x00000000        0x0 c:/program files/microchip/xc32/v2.40/bin/bin/../../lib/gcc/pic32c/6.2.1/../../../../pic32c/lib\libpic32c.a(sbrk.o)
 .data          0x00000000        0x0 c:/program files/microchip/xc32/v2.40/bin/bin/../../lib/gcc/pic32c/6.2.1/../../../../pic32c/lib\libpic32c.a(sbrk.o)
 .text          0x00000000        0x0 c:/program files/microchip/xc32/v2.40/bin/bin/../../lib/gcc/pic32c/6.2.1/../../../../pic32c/lib\libpic32c.a(_write.o)
 .data          0x00000000        0x0 c:/program files/microchip/xc32/v2.40/bin/bin/../../lib/gcc/pic32c/6.2.1/../../../../pic32c/lib\libpic32c.a(_write.o)
 .bss           0x00000000        0x0 c:/program files/microchip/xc32/v2.40/bin/bin/../../lib/gcc/pic32c/6.2.1/../../../../pic32c/lib\libpic32c.a(_write.o)
 .text          0x00000000        0x0 c:/program files/microchip/xc32/v2.40/bin/bin/../../lib/gcc/pic32c/6.2.1/../../../../pic32c/lib\libpic32c.a(close.o)
 .data          0x00000000        0x0 c:/program files/microchip/xc32/v2.40/bin/bin/../../lib/gcc/pic32c/6.2.1/../../../../pic32c/lib\libpic32c.a(close.o)
 .bss           0x00000000        0x0 c:/program files/microchip/xc32/v2.40/bin/bin/../../lib/gcc/pic32c/6.2.1/../../../../pic32c/lib\libpic32c.a(close.o)
 .gnu.warning.closestub
                0x00000000        0x0 c:/program files/microchip/xc32/v2.40/bin/bin/../../lib/gcc/pic32c/6.2.1/../../../../pic32c/lib\libpic32c.a(close.o)
 .text          0x00000000        0x0 c:/program files/microchip/xc32/v2.40/bin/bin/../../lib/gcc/pic32c/6.2.1/../../../../pic32c/lib\libpic32c.a(fstat.o)
 .data          0x00000000        0x0 c:/program files/microchip/xc32/v2.40/bin/bin/../../lib/gcc/pic32c/6.2.1/../../../../pic32c/lib\libpic32c.a(fstat.o)
 .bss           0x00000000        0x0 c:/program files/microchip/xc32/v2.40/bin/bin/../../lib/gcc/pic32c/6.2.1/../../../../pic32c/lib\libpic32c.a(fstat.o)
 .text          0x00000000        0x0 c:/program files/microchip/xc32/v2.40/bin/bin/../../lib/gcc/pic32c/6.2.1/../../../../pic32c/lib\libpic32c.a(isatty.o)
 .data          0x00000000        0x0 c:/program files/microchip/xc32/v2.40/bin/bin/../../lib/gcc/pic32c/6.2.1/../../../../pic32c/lib\libpic32c.a(isatty.o)
 .bss           0x00000000        0x0 c:/program files/microchip/xc32/v2.40/bin/bin/../../lib/gcc/pic32c/6.2.1/../../../../pic32c/lib\libpic32c.a(isatty.o)
 .text          0x00000000        0x0 c:/program files/microchip/xc32/v2.40/bin/bin/../../lib/gcc/pic32c/6.2.1/../../../../pic32c/lib\libpic32c.a(lseek.o)
 .data          0x00000000        0x0 c:/program files/microchip/xc32/v2.40/bin/bin/../../lib/gcc/pic32c/6.2.1/../../../../pic32c/lib\libpic32c.a(lseek.o)
 .bss           0x00000000        0x0 c:/program files/microchip/xc32/v2.40/bin/bin/../../lib/gcc/pic32c/6.2.1/../../../../pic32c/lib\libpic32c.a(lseek.o)
 .data          0x00000000        0x0 c:/program files/microchip/xc32/v2.40/bin/bin/../../lib/gcc/pic32c/6.2.1\libgcc.a(_divsi3.o)
 .bss           0x00000000        0x0 c:/program files/microchip/xc32/v2.40/bin/bin/../../lib/gcc/pic32c/6.2.1\libgcc.a(_divsi3.o)
 .data          0x00000000        0x0 c:/program files/microchip/xc32/v2.40/bin/bin/../../lib/gcc/pic32c/6.2.1\libgcc.a(_arm_cmpdf2.o)
 .bss           0x00000000        0x0 c:/program files/microchip/xc32/v2.40/bin/bin/../../lib/gcc/pic32c/6.2.1\libgcc.a(_arm_cmpdf2.o)
 .data          0x00000000        0x0 c:/program files/microchip/xc32/v2.40/bin/bin/../../lib/gcc/pic32c/6.2.1\libgcc.a(_fixunsdfsi.o)
 .bss           0x00000000        0x0 c:/program files/microchip/xc32/v2.40/bin/bin/../../lib/gcc/pic32c/6.2.1\libgcc.a(_fixunsdfsi.o)
 .data          0x00000000        0x0 c:/program files/microchip/xc32/v2.40/bin/bin/../../lib/gcc/pic32c/6.2.1\libgcc.a(adddf3.o)
 .bss           0x00000000        0x0 c:/program files/microchip/xc32/v2.40/bin/bin/../../lib/gcc/pic32c/6.2.1\libgcc.a(adddf3.o)
 .data          0x00000000        0x0 c:/program files/microchip/xc32/v2.40/bin/bin/../../lib/gcc/pic32c/6.2.1\libgcc.a(divdf3.o)
 .bss           0x00000000        0x0 c:/program files/microchip/xc32/v2.40/bin/bin/../../lib/gcc/pic32c/6.2.1\libgcc.a(divdf3.o)
 .data          0x00000000        0x0 c:/program files/microchip/xc32/v2.40/bin/bin/../../lib/gcc/pic32c/6.2.1\libgcc.a(eqdf2.o)
 .bss           0x00000000        0x0 c:/program files/microchip/xc32/v2.40/bin/bin/../../lib/gcc/pic32c/6.2.1\libgcc.a(eqdf2.o)
 .data          0x00000000        0x0 c:/program files/microchip/xc32/v2.40/bin/bin/../../lib/gcc/pic32c/6.2.1\libgcc.a(gedf2.o)
 .bss           0x00000000        0x0 c:/program files/microchip/xc32/v2.40/bin/bin/../../lib/gcc/pic32c/6.2.1\libgcc.a(gedf2.o)
 .data          0x00000000        0x0 c:/program files/microchip/xc32/v2.40/bin/bin/../../lib/gcc/pic32c/6.2.1\libgcc.a(ledf2.o)
 .bss           0x00000000        0x0 c:/program files/microchip/xc32/v2.40/bin/bin/../../lib/gcc/pic32c/6.2.1\libgcc.a(ledf2.o)
 .data          0x00000000        0x0 c:/program files/microchip/xc32/v2.40/bin/bin/../../lib/gcc/pic32c/6.2.1\libgcc.a(subdf3.o)
 .bss           0x00000000        0x0 c:/program files/microchip/xc32/v2.40/bin/bin/../../lib/gcc/pic32c/6.2.1\libgcc.a(subdf3.o)
 .data          0x00000000        0x0 c:/program files/microchip/xc32/v2.40/bin/bin/../../lib/gcc/pic32c/6.2.1\libgcc.a(unorddf2.o)
 .bss           0x00000000        0x0 c:/program files/microchip/xc32/v2.40/bin/bin/../../lib/gcc/pic32c/6.2.1\libgcc.a(unorddf2.o)
 .data          0x00000000        0x0 c:/program files/microchip/xc32/v2.40/bin/bin/../../lib/gcc/pic32c/6.2.1\libgcc.a(fixdfsi.o)
 .bss           0x00000000        0x0 c:/program files/microchip/xc32/v2.40/bin/bin/../../lib/gcc/pic32c/6.2.1\libgcc.a(fixdfsi.o)
 .data          0x00000000        0x0 c:/program files/microchip/xc32/v2.40/bin/bin/../../lib/gcc/pic32c/6.2.1\libgcc.a(floatunsidf.o)
 .bss           0x00000000        0x0 c:/program files/microchip/xc32/v2.40/bin/bin/../../lib/gcc/pic32c/6.2.1\libgcc.a(floatunsidf.o)
 .text          0x00000000        0x0 c:/program files/microchip/xc32/v2.40/bin/bin/../../lib/gcc/pic32c/6.2.1/crtend.o
 .data          0x00000000        0x0 c:/program files/microchip/xc32/v2.40/bin/bin/../../lib/gcc/pic32c/6.2.1/crtend.o
 .bss           0x00000000        0x0 c:/program files/microchip/xc32/v2.40/bin/bin/../../lib/gcc/pic32c/6.2.1/crtend.o
 .eh_frame      0x00000000        0x4 c:/program files/microchip/xc32/v2.40/bin/bin/../../lib/gcc/pic32c/6.2.1/crtend.o
 .comment       0x00000000       0x3d c:/program files/microchip/xc32/v2.40/bin/bin/../../lib/gcc/pic32c/6.2.1/crtend.o
 .ARM.attributes
                0x00000000       0x2c c:/program files/microchip/xc32/v2.40/bin/bin/../../lib/gcc/pic32c/6.2.1/crtend.o
 .text          0x00000000        0x0 c:/program files/microchip/xc32/v2.40/bin/bin/../../lib/gcc/pic32c/6.2.1/crtn.o
 .data          0x00000000        0x0 c:/program files/microchip/xc32/v2.40/bin/bin/../../lib/gcc/pic32c/6.2.1/crtn.o
 .bss           0x00000000        0x0 c:/program files/microchip/xc32/v2.40/bin/bin/../../lib/gcc/pic32c/6.2.1/crtn.o

Memory Configuration

Name             Origin             Length             Attributes
rom              0x00000000         0x00040000         xrl
ram              0x20000000         0x00008000         xw !r
config_00804000  0x00804000         0x00000004
config_00804004  0x00804004         0x00000004
*default*        0x00000000         0xffffffff

Linker script and memory map

LOAD c:/program files/microchip/xc32/v2.40/bin/bin/../../lib/gcc/pic32c/6.2.1/crti.o
LOAD c:/program files/microchip/xc32/v2.40/bin/bin/../../lib/gcc/pic32c/6.2.1/crtbegin.o
LOAD build/sam_c21n_xpro/production/_ext/1360937237/appiot.o
LOAD build/sam_c21n_xpro/production/_ext/1360937237/moden.o
LOAD build/sam_c21n_xpro/production/_ext/1360937237/canapp.o
LOAD build/sam_c21n_xpro/production/_ext/1360937237/appuart.o
LOAD build/sam_c21n_xpro/production/_ext/1360937237/appemueeprom.o
LOAD build/sam_c21n_xpro/production/_ext/1360937237/apptimer.o
LOAD build/sam_c21n_xpro/production/_ext/1360937237/app_uart_debug.o
LOAD build/sam_c21n_xpro/production/_ext/1936826263/drv_at24.o
LOAD build/sam_c21n_xpro/production/_ext/1274584173/drv_usart.o
LOAD build/sam_c21n_xpro/production/_ext/1019481632/emulated_eeprom.o
LOAD build/sam_c21n_xpro/production/_ext/1617700295/plib_adc0.o
LOAD build/sam_c21n_xpro/production/_ext/1617702135/plib_can0.o
LOAD build/sam_c21n_xpro/production/_ext/166077579/plib_clock.o
LOAD build/sam_c21n_xpro/production/_ext/1617704294/plib_eic.o
LOAD build/sam_c21n_xpro/production/_ext/163928093/plib_evsys.o
LOAD build/sam_c21n_xpro/production/_ext/1390493541/plib_nvic.o
LOAD build/sam_c21n_xpro/production/_ext/770299191/plib_nvmctrl.o
LOAD build/sam_c21n_xpro/production/_ext/1390440390/plib_port.o
LOAD build/sam_c21n_xpro/production/_ext/1451668420/plib_sercom2_i2c_master.o
LOAD build/sam_c21n_xpro/production/_ext/1993392304/plib_sercom1_usart.o
LOAD build/sam_c21n_xpro/production/_ext/1993392304/plib_sercom0_usart.o
LOAD build/sam_c21n_xpro/production/_ext/1004774289/plib_systick.o
LOAD build/sam_c21n_xpro/production/_ext/1617721454/plib_wdt.o
LOAD build/sam_c21n_xpro/production/_ext/730014449/xc32_monitor.o
LOAD build/sam_c21n_xpro/production/_ext/855761890/sys_int.o
LOAD build/sam_c21n_xpro/production/_ext/1758384875/initialization.o
LOAD build/sam_c21n_xpro/production/_ext/1758384875/interrupts.o
LOAD build/sam_c21n_xpro/production/_ext/1758384875/exceptions.o
LOAD build/sam_c21n_xpro/production/_ext/1758384875/startup_xc32.o
LOAD build/sam_c21n_xpro/production/_ext/1758384875/libc_syscalls.o
LOAD build/sam_c21n_xpro/production/_ext/1758384875/tasks.o
LOAD build/sam_c21n_xpro/production/_ext/1360937237/main.o
LOAD build/sam_c21n_xpro/production/_ext/1360937237/app.o
                0x00000001                __MPLAB_BUILD = 0x1
                0x00040000                __rom_end = (ORIGIN (rom) + LENGTH (rom))
                0x20008000                __ram_end = (ORIGIN (ram) + LENGTH (ram))

.config_00804000
                0x00804000        0x4
 *(.config_00804000)
 .config_00804000
                0x00804000        0x4 build/sam_c21n_xpro/production/_ext/1758384875/initialization.o

.config_00804004
                0x00804004        0x4
 *(.config_00804004)
 .config_00804004
                0x00804004        0x4 build/sam_c21n_xpro/production/_ext/1758384875/initialization.o

.vectors        0x00000000       0xbc
                0x00000000                . = ALIGN (0x4)
                0x00000000                _sfixed = .
 *(.vectors .vectors.* .vectors_default .vectors_default.*)
 .vectors       0x00000000       0xbc build/sam_c21n_xpro/production/_ext/1758384875/interrupts.o
                0x00000000                exception_table
 *(.isr_vector)
 *(.reset*)
 *(.after_vectors)

.text           0x000000bc       0x20
                0x000000bc                . = ALIGN (0x4)
 *(.glue_7t)
 .glue_7t       0x000000bc        0x0 linker stubs
 *(.glue_7)
 .glue_7        0x000000bc        0x0 linker stubs
 *(.gnu.linkonce.r.*)
 *(.ARM.extab* .gnu.linkonce.armextab.*)
                0x000000bc                . = ALIGN (0x4)
 *(.init)
 .init          0x000000bc        0x4 c:/program files/microchip/xc32/v2.40/bin/bin/../../lib/gcc/pic32c/6.2.1/crti.o
                0x000000bc                _init
 .init          0x000000c0        0x8 c:/program files/microchip/xc32/v2.40/bin/bin/../../lib/gcc/pic32c/6.2.1/crtn.o
                0x000000c8                . = ALIGN (0x4)
                0x000000c8                __preinit_array_start = .
 *(.preinit_array)
                0x000000c8                __preinit_array_end = .
                0x000000c8                . = ALIGN (0x4)
                0x000000c8                __init_array_start = .
 *(SORT(.init_array.*))
 *(.init_array)
 .init_array    0x000000c8        0x4 c:/program files/microchip/xc32/v2.40/bin/bin/../../lib/gcc/pic32c/6.2.1/crtbegin.o
                0x000000cc                __init_array_end = .
                0x000000cc                . = ALIGN (0x4)
 *crtbegin.o(.ctors)
 *(EXCLUDE_FILE(*crtend.o) .ctors)
 *(SORT(.ctors.*))
 *crtend.o(.ctors)
                0x000000cc                . = ALIGN (0x4)
 *(.fini)
 .fini          0x000000cc        0x4 c:/program files/microchip/xc32/v2.40/bin/bin/../../lib/gcc/pic32c/6.2.1/crti.o
                0x000000cc                _fini
 .fini          0x000000d0        0x8 c:/program files/microchip/xc32/v2.40/bin/bin/../../lib/gcc/pic32c/6.2.1/crtn.o
                0x000000d8                . = ALIGN (0x4)
                0x000000d8                __fini_array_start = .
 *(.fini_array)
 .fini_array    0x000000d8        0x4 c:/program files/microchip/xc32/v2.40/bin/bin/../../lib/gcc/pic32c/6.2.1/crtbegin.o
 *(SORT(.fini_array.*))
                0x000000dc                __fini_array_end = .
 *crtbegin.o(.dtors)
 *(EXCLUDE_FILE(*crtend.o) .dtors)
 *(SORT(.dtors.*))
 *crtend.o(.dtors)
                0x000000dc                . = ALIGN (0x4)
                0x000000dc                _efixed = .
                [!provide]                PROVIDE (__exidx_start, .)

.ARM.exidx      0x000000dc        0x8
 *(.ARM.exidx* .gnu.linkonce.armexidx.*)
 .ARM.exidx     0x000000dc        0x8 c:/program files/microchip/xc32/v2.40/bin/bin/../../lib/gcc/pic32c/6.2.1\libgcc.a(_udivmoddi4.o)
                [!provide]                PROVIDE (__exidx_end, .)
                0x000000e4                . = ALIGN (0x4)
                0x000000e4                _etext = .

.bss            0x20000000      0xee8
                0x20000000                . = ALIGN (0x4)
                0x20000000                __bss_start__ = .
                0x20000000                _sbss = .
                0x20000000                _szero = .
 *(COMMON)
 COMMON         0x20000000       0x34 build/sam_c21n_xpro/production/_ext/1360937237/appiot.o
                0x20000000                mqtttime
                0x20000004                _iotdata
                0x20000008                mcahineData
                0x2000000c                _iotram
                0x20000024                _iottimer
 COMMON         0x20000034      0x45d build/sam_c21n_xpro/production/_ext/1360937237/moden.o
                0x20000034                _moden
                0x20000490                _moden_cmd_data
 *fill*         0x20000491        0xf 
 COMMON         0x200004a0      0x430 build/sam_c21n_xpro/production/_ext/1360937237/canapp.o
                0x200004a0                rx_message
                0x200004a8                appCAN
                0x200004c0                Can0MessageRAM
                0x200006e4                message
                0x200006f0                CAN_ECU_Data_1
                0x20000730                ecu_init
                0x20000740                rx0_buf
                0x20000808                _canrx0buffer
 COMMON         0x200008d0      0x600 build/sam_c21n_xpro/production/_ext/1360937237/appuart.o
                0x200008d0                buffer
                0x20000ad0                rxBuffer
                0x20000cd0                platformrxbuffer
 COMMON         0x20000ed0       0x10 build/sam_c21n_xpro/production/_ext/1758384875/initialization.o
                0x20000ed0                sysObj
 COMMON         0x20000ee0        0x1 build/sam_c21n_xpro/production/_ext/1360937237/app.o
                0x20000ee0                appData
 *fill*         0x20000ee1        0x3 
 COMMON         0x20000ee4        0x4 c:/program files/microchip/xc32/v2.40/bin/bin/../../lib/gcc/pic32c/6.2.1/../../../../pic32c/lib\libc_nano.a(lib_a-reent.o)
                0x20000ee4                errno
                0x20000ee8                . = ALIGN (0x4)
                0x20000ee8                __bss_end__ = .
                0x20000ee8                _ebss = .
                0x20000ee8                _ezero = .
                0x20000ee8                . = ALIGN (0x4)
                0x20000ee8                _end = .
                0x20007fff                _ram_end_ = ((ORIGIN (ram) + LENGTH (ram)) - 0x1)
                0x00000400                _min_heap_size = 0x400
START GROUP
LOAD c:/program files/microchip/xc32/v2.40/bin/bin/../../lib/gcc/pic32c/6.2.1/../../../../pic32c/lib\libpic32c.a
LOAD c:/program files/microchip/xc32/v2.40/bin/bin/../../lib/gcc/pic32c/6.2.1\libgcc.a
LOAD c:/program files/microchip/xc32/v2.40/bin/bin/../../lib/gcc/pic32c/6.2.1/../../../../pic32c/lib\libm_nano.a
LOAD c:/program files/microchip/xc32/v2.40/bin/bin/../../lib/gcc/pic32c/6.2.1/../../../../pic32c/lib\libc_nano.a
END GROUP
LOAD c:/program files/microchip/xc32/v2.40/bin/bin/../../lib/gcc/pic32c/6.2.1/crtend.o
LOAD c:/program files/microchip/xc32/v2.40/bin/bin/../../lib/gcc/pic32c/6.2.1/crtn.o
OUTPUT(dist/sam_c21n_xpro/production/sam_c21n_xpro.X.production.elf elf32-littlearm)
LOAD stack
LOAD data_init

.ARM.attributes
                0x00000000       0x28
 .ARM.attributes
                0x00000000       0x1e c:/program files/microchip/xc32/v2.40/bin/bin/../../lib/gcc/pic32c/6.2.1/crti.o
 .ARM.attributes
                0x0000001e       0x2c c:/program files/microchip/xc32/v2.40/bin/bin/../../lib/gcc/pic32c/6.2.1/crtbegin.o
 .ARM.attributes
                0x0000004a       0x32 build/sam_c21n_xpro/production/_ext/1360937237/appiot.o
 .ARM.attributes
                0x0000007c       0x32 build/sam_c21n_xpro/production/_ext/1360937237/moden.o
 .ARM.attributes
                0x000000ae       0x32 build/sam_c21n_xpro/production/_ext/1360937237/canapp.o
 .ARM.attributes
                0x000000e0       0x32 build/sam_c21n_xpro/production/_ext/1360937237/appuart.o
 .ARM.attributes
                0x00000112       0x32 build/sam_c21n_xpro/production/_ext/1360937237/appemueeprom.o
 .ARM.attributes
                0x00000144       0x32 build/sam_c21n_xpro/production/_ext/1360937237/apptimer.o
 .ARM.attributes
                0x00000176       0x32 build/sam_c21n_xpro/production/_ext/1360937237/app_uart_debug.o
 .ARM.attributes
                0x000001a8       0x32 build/sam_c21n_xpro/production/_ext/1936826263/drv_at24.o
 .ARM.attributes
                0x000001da       0x32 build/sam_c21n_xpro/production/_ext/1274584173/drv_usart.o
 .ARM.attributes
                0x0000020c       0x32 build/sam_c21n_xpro/production/_ext/1019481632/emulated_eeprom.o
 .ARM.attributes
                0x0000023e       0x32 build/sam_c21n_xpro/production/_ext/1617700295/plib_adc0.o
 .ARM.attributes
                0x00000270       0x32 build/sam_c21n_xpro/production/_ext/1617702135/plib_can0.o
 .ARM.attributes
                0x000002a2       0x32 build/sam_c21n_xpro/production/_ext/166077579/plib_clock.o
 .ARM.attributes
                0x000002d4       0x32 build/sam_c21n_xpro/production/_ext/1617704294/plib_eic.o
 .ARM.attributes
                0x00000306       0x32 build/sam_c21n_xpro/production/_ext/163928093/plib_evsys.o
 .ARM.attributes
                0x00000338       0x32 build/sam_c21n_xpro/production/_ext/1390493541/plib_nvic.o
 .ARM.attributes
                0x0000036a       0x32 build/sam_c21n_xpro/production/_ext/770299191/plib_nvmctrl.o
 .ARM.attributes
                0x0000039c       0x32 build/sam_c21n_xpro/production/_ext/1390440390/plib_port.o
 .ARM.attributes
                0x000003ce       0x32 build/sam_c21n_xpro/production/_ext/1451668420/plib_sercom2_i2c_master.o
 .ARM.attributes
                0x00000400       0x32 build/sam_c21n_xpro/production/_ext/1993392304/plib_sercom1_usart.o
 .ARM.attributes
                0x00000432       0x32 build/sam_c21n_xpro/production/_ext/1993392304/plib_sercom0_usart.o
 .ARM.attributes
                0x00000464       0x32 build/sam_c21n_xpro/production/_ext/1004774289/plib_systick.o
 .ARM.attributes
                0x00000496       0x32 build/sam_c21n_xpro/production/_ext/1617721454/plib_wdt.o
 .ARM.attributes
                0x000004c8       0x32 build/sam_c21n_xpro/production/_ext/730014449/xc32_monitor.o
 .ARM.attributes
                0x000004fa       0x32 build/sam_c21n_xpro/production/_ext/855761890/sys_int.o
 .ARM.attributes
                0x0000052c       0x32 build/sam_c21n_xpro/production/_ext/1758384875/initialization.o
 .ARM.attributes
                0x0000055e       0x32 build/sam_c21n_xpro/production/_ext/1758384875/interrupts.o
 .ARM.attributes
                0x00000590       0x32 build/sam_c21n_xpro/production/_ext/1758384875/exceptions.o
 .ARM.attributes
                0x000005c2       0x32 build/sam_c21n_xpro/production/_ext/1758384875/startup_xc32.o
 .ARM.attributes
                0x000005f4       0x32 build/sam_c21n_xpro/production/_ext/1360937237/main.o
 .ARM.attributes
                0x00000626       0x32 build/sam_c21n_xpro/production/_ext/1360937237/app.o
 .ARM.attributes
                0x00000658       0x2c c:/program files/microchip/xc32/v2.40/bin/bin/../../lib/gcc/pic32c/6.2.1/../../../../pic32c/lib\libpic32c.a(data_init.o)
 .ARM.attributes
                0x00000684       0x1e c:/program files/microchip/xc32/v2.40/bin/bin/../../lib/gcc/pic32c/6.2.1\libgcc.a(_udivsi3.o)
 .ARM.attributes
                0x000006a2       0x1e c:/program files/microchip/xc32/v2.40/bin/bin/../../lib/gcc/pic32c/6.2.1\libgcc.a(_dvmd_tls.o)
 .ARM.attributes
                0x000006c0       0x1e c:/program files/microchip/xc32/v2.40/bin/bin/../../lib/gcc/pic32c/6.2.1\libgcc.a(_aeabi_uldivmod.o)
 .ARM.attributes
                0x000006de       0x2c c:/program files/microchip/xc32/v2.40/bin/bin/../../lib/gcc/pic32c/6.2.1\libgcc.a(_muldi3.o)
 .ARM.attributes
                0x0000070a       0x2c c:/program files/microchip/xc32/v2.40/bin/bin/../../lib/gcc/pic32c/6.2.1\libgcc.a(_udivmoddi4.o)
 .ARM.attributes
                0x00000736       0x2c c:/program files/microchip/xc32/v2.40/bin/bin/../../lib/gcc/pic32c/6.2.1\libgcc.a(addsf3.o)
 .ARM.attributes
                0x00000762       0x2c c:/program files/microchip/xc32/v2.40/bin/bin/../../lib/gcc/pic32c/6.2.1\libgcc.a(divsf3.o)
 .ARM.attributes
                0x0000078e       0x2c c:/program files/microchip/xc32/v2.40/bin/bin/../../lib/gcc/pic32c/6.2.1\libgcc.a(mulsf3.o)
 .ARM.attributes
                0x000007ba       0x2c c:/program files/microchip/xc32/v2.40/bin/bin/../../lib/gcc/pic32c/6.2.1\libgcc.a(subsf3.o)
 .ARM.attributes
                0x000007e6       0x2c c:/program files/microchip/xc32/v2.40/bin/bin/../../lib/gcc/pic32c/6.2.1\libgcc.a(fixsfsi.o)
 .ARM.attributes
                0x00000812       0x2c c:/program files/microchip/xc32/v2.40/bin/bin/../../lib/gcc/pic32c/6.2.1\libgcc.a(floatsisf.o)
 .ARM.attributes
                0x0000083e       0x2c c:/program files/microchip/xc32/v2.40/bin/bin/../../lib/gcc/pic32c/6.2.1\libgcc.a(floatunsisf.o)
 .ARM.attributes
                0x0000086a       0x2c c:/program files/microchip/xc32/v2.40/bin/bin/../../lib/gcc/pic32c/6.2.1\libgcc.a(muldf3.o)
 .ARM.attributes
                0x00000896       0x2c c:/program files/microchip/xc32/v2.40/bin/bin/../../lib/gcc/pic32c/6.2.1\libgcc.a(floatsidf.o)
 .ARM.attributes
                0x000008c2       0x2c c:/program files/microchip/xc32/v2.40/bin/bin/../../lib/gcc/pic32c/6.2.1\libgcc.a(extendsfdf2.o)
 .ARM.attributes
                0x000008ee       0x2c c:/program files/microchip/xc32/v2.40/bin/bin/../../lib/gcc/pic32c/6.2.1\libgcc.a(truncdfsf2.o)
 .ARM.attributes
                0x0000091a       0x1e c:/program files/microchip/xc32/v2.40/bin/bin/../../lib/gcc/pic32c/6.2.1\libgcc.a(_thumb1_case_uqi.o)
 .ARM.attributes
                0x00000938       0x1e c:/program files/microchip/xc32/v2.40/bin/bin/../../lib/gcc/pic32c/6.2.1\libgcc.a(_thumb1_case_uhi.o)
 .ARM.attributes
                0x00000956       0x1e c:/program files/microchip/xc32/v2.40/bin/bin/../../lib/gcc/pic32c/6.2.1\libgcc.a(_lshrdi3.o)
 .ARM.attributes
                0x00000974       0x1e c:/program files/microchip/xc32/v2.40/bin/bin/../../lib/gcc/pic32c/6.2.1\libgcc.a(_ashldi3.o)
 .ARM.attributes
                0x00000992       0x1e c:/program files/microchip/xc32/v2.40/bin/bin/../../lib/gcc/pic32c/6.2.1\libgcc.a(_clzsi2.o)
 .ARM.attributes
                0x000009b0       0x1e c:/program files/microchip/xc32/v2.40/bin/bin/../../lib/gcc/pic32c/6.2.1\libgcc.a(_clzdi2.o)
 .ARM.attributes
                0x000009ce       0x2c c:/program files/microchip/xc32/v2.40/bin/bin/../../lib/gcc/pic32c/6.2.1/../../../../pic32c/lib\libc_nano.a(lib_a-atof.o)
 .ARM.attributes
                0x000009fa       0x2c c:/program files/microchip/xc32/v2.40/bin/bin/../../lib/gcc/pic32c/6.2.1/../../../../pic32c/lib\libc_nano.a(lib_a-atoi.o)
 .ARM.attributes
                0x00000a26       0x2c c:/program files/microchip/xc32/v2.40/bin/bin/../../lib/gcc/pic32c/6.2.1/../../../../pic32c/lib\libc_nano.a(lib_a-init.o)
 .ARM.attributes
                0x00000a52       0x2c c:/program files/microchip/xc32/v2.40/bin/bin/../../lib/gcc/pic32c/6.2.1/../../../../pic32c/lib\libc_nano.a(lib_a-memcmp.o)
 .ARM.attributes
                0x00000a7e       0x2c c:/program files/microchip/xc32/v2.40/bin/bin/../../lib/gcc/pic32c/6.2.1/../../../../pic32c/lib\libc_nano.a(lib_a-memcpy-stub.o)
 .ARM.attributes
                0x00000aaa       0x2c c:/program files/microchip/xc32/v2.40/bin/bin/../../lib/gcc/pic32c/6.2.1/../../../../pic32c/lib\libc_nano.a(lib_a-memset.o)
 .ARM.attributes
                0x00000ad6       0x2c c:/program files/microchip/xc32/v2.40/bin/bin/../../lib/gcc/pic32c/6.2.1/../../../../pic32c/lib\libc_nano.a(_lib_a-sprintf.cdfFgGnopsuxX.o)
 .ARM.attributes
                0x00000b02       0x2c c:/program files/microchip/xc32/v2.40/bin/bin/../../lib/gcc/pic32c/6.2.1/../../../../pic32c/lib\libc_nano.a(lib_a-strcat.o)
 .ARM.attributes
                0x00000b2e       0x1c c:/program files/microchip/xc32/v2.40/bin/bin/../../lib/gcc/pic32c/6.2.1/../../../../pic32c/lib\libc_nano.a(lib_a-strlen.o)
 .ARM.attributes
                0x00000b4a       0x2c c:/program files/microchip/xc32/v2.40/bin/bin/../../lib/gcc/pic32c/6.2.1/../../../../pic32c/lib\libc_nano.a(lib_a-strstr.o)
 .ARM.attributes
                0x00000b76       0x2c c:/program files/microchip/xc32/v2.40/bin/bin/../../lib/gcc/pic32c/6.2.1/../../../../pic32c/lib\libc_nano.a(lib_a-strtod.o)
 .ARM.attributes
                0x00000ba2       0x2c c:/program files/microchip/xc32/v2.40/bin/bin/../../lib/gcc/pic32c/6.2.1/../../../../pic32c/lib\libc_nano.a(lib_a-strtol.o)
 .ARM.attributes
                0x00000bce       0x2c c:/program files/microchip/xc32/v2.40/bin/bin/../../lib/gcc/pic32c/6.2.1/../../../../pic32c/lib\libc_nano.a(lib_a-gdtoa-gethex.o)
 .ARM.attributes
                0x00000bfa       0x2c c:/program files/microchip/xc32/v2.40/bin/bin/../../lib/gcc/pic32c/6.2.1/../../../../pic32c/lib\libc_nano.a(lib_a-gdtoa-hexnan.o)
 .ARM.attributes
                0x00000c26       0x2c c:/program files/microchip/xc32/v2.40/bin/bin/../../lib/gcc/pic32c/6.2.1/../../../../pic32c/lib\libc_nano.a(lib_a-impure.o)
 .ARM.attributes
                0x00000c52       0x2c c:/program files/microchip/xc32/v2.40/bin/bin/../../lib/gcc/pic32c/6.2.1/../../../../pic32c/lib\libc_nano.a(lib_a-localeconv.o)
 .ARM.attributes
                0x00000c7e       0x2c c:/program files/microchip/xc32/v2.40/bin/bin/../../lib/gcc/pic32c/6.2.1/../../../../pic32c/lib\libc_nano.a(lib_a-locale.o)
 .ARM.attributes
                0x00000caa       0x2c c:/program files/microchip/xc32/v2.40/bin/bin/../../lib/gcc/pic32c/6.2.1/../../../../pic32c/lib\libc_nano.a(lib_a-mbtowc_r.o)
 .ARM.attributes
                0x00000cd6       0x2c c:/program files/microchip/xc32/v2.40/bin/bin/../../lib/gcc/pic32c/6.2.1/../../../../pic32c/lib\libc_nano.a(lib_a-mprec.o)
 .ARM.attributes
                0x00000d02       0x2c c:/program files/microchip/xc32/v2.40/bin/bin/../../lib/gcc/pic32c/6.2.1/../../../../pic32c/lib\libc_nano.a(lib_a-nano-callocr.o)
 .ARM.attributes
                0x00000d2e       0x2c c:/program files/microchip/xc32/v2.40/bin/bin/../../lib/gcc/pic32c/6.2.1/../../../../pic32c/lib\libc_nano.a(lib_a-nano-mallocr.o)
 .ARM.attributes
                0x00000d5a       0x2c c:/program files/microchip/xc32/v2.40/bin/bin/../../lib/gcc/pic32c/6.2.1/../../../../pic32c/lib\libc_nano.a(_lib_a-nano-vfprintf.cdfFgGnopsuxX.o)
 .ARM.attributes
                0x00000d86       0x2c c:/program files/microchip/xc32/v2.40/bin/bin/../../lib/gcc/pic32c/6.2.1/../../../../pic32c/lib\libc_nano.a(lib_a-nano-vfprintf_i.o)
 .ARM.attributes
                0x00000db2       0x2c c:/program files/microchip/xc32/v2.40/bin/bin/../../lib/gcc/pic32c/6.2.1/../../../../pic32c/lib\libc_nano.a(lib_a-sbrkr.o)
 .ARM.attributes
                0x00000dde       0x2c c:/program files/microchip/xc32/v2.40/bin/bin/../../lib/gcc/pic32c/6.2.1/../../../../pic32c/lib\libc_nano.a(lib_a-__ssfputs.o)
 .ARM.attributes
                0x00000e0a       0x2c c:/program files/microchip/xc32/v2.40/bin/bin/../../lib/gcc/pic32c/6.2.1/../../../../pic32c/lib\libc_nano.a(lib_a-strncmp.o)
 .ARM.attributes
                0x00000e36       0x2c c:/program files/microchip/xc32/v2.40/bin/bin/../../lib/gcc/pic32c/6.2.1/../../../../pic32c/lib\libc_nano.a(lib_a-wbuf.o)
 .ARM.attributes
                0x00000e62       0x2c c:/program files/microchip/xc32/v2.40/bin/bin/../../lib/gcc/pic32c/6.2.1/../../../../pic32c/lib\libc_nano.a(lib_a-wctomb_r.o)
 .ARM.attributes
                0x00000e8e       0x2c c:/program files/microchip/xc32/v2.40/bin/bin/../../lib/gcc/pic32c/6.2.1/../../../../pic32c/lib\libc_nano.a(lib_a-wsetup.o)
 .ARM.attributes
                0x00000eba       0x2c c:/program files/microchip/xc32/v2.40/bin/bin/../../lib/gcc/pic32c/6.2.1/../../../../pic32c/lib\libc_nano.a(lib_a-ctype_.o)
 .ARM.attributes
                0x00000ee6       0x2c c:/program files/microchip/xc32/v2.40/bin/bin/../../lib/gcc/pic32c/6.2.1/../../../../pic32c/lib\libc_nano.a(lib_a-dtoa.o)
 .ARM.attributes
                0x00000f12       0x2c c:/program files/microchip/xc32/v2.40/bin/bin/../../lib/gcc/pic32c/6.2.1/../../../../pic32c/lib\libc_nano.a(lib_a-fflush.o)
 .ARM.attributes
                0x00000f3e       0x2c c:/program files/microchip/xc32/v2.40/bin/bin/../../lib/gcc/pic32c/6.2.1/../../../../pic32c/lib\libc_nano.a(lib_a-findfp.o)
 .ARM.attributes
                0x00000f6a       0x2c c:/program files/microchip/xc32/v2.40/bin/bin/../../lib/gcc/pic32c/6.2.1/../../../../pic32c/lib\libc_nano.a(lib_a-fputwc.o)
 .ARM.attributes
                0x00000f96       0x2c c:/program files/microchip/xc32/v2.40/bin/bin/../../lib/gcc/pic32c/6.2.1/../../../../pic32c/lib\libc_nano.a(lib_a-fwalk.o)
 .ARM.attributes
                0x00000fc2       0x2c c:/program files/microchip/xc32/v2.40/bin/bin/../../lib/gcc/pic32c/6.2.1/../../../../pic32c/lib\libc_nano.a(lib_a-makebuf.o)
 .ARM.attributes
                0x00000fee       0x2c c:/program files/microchip/xc32/v2.40/bin/bin/../../lib/gcc/pic32c/6.2.1/../../../../pic32c/lib\libc_nano.a(lib_a-malloc.o)
 .ARM.attributes
                0x0000101a       0x2c c:/program files/microchip/xc32/v2.40/bin/bin/../../lib/gcc/pic32c/6.2.1/../../../../pic32c/lib\libc_nano.a(lib_a-memchr-stub.o)
 .ARM.attributes
                0x00001046       0x2c c:/program files/microchip/xc32/v2.40/bin/bin/../../lib/gcc/pic32c/6.2.1/../../../../pic32c/lib\libc_nano.a(lib_a-mlock.o)
 .ARM.attributes
                0x00001072       0x2c c:/program files/microchip/xc32/v2.40/bin/bin/../../lib/gcc/pic32c/6.2.1/../../../../pic32c/lib\libc_nano.a(lib_a-nano-freer.o)
 .ARM.attributes
                0x0000109e       0x2c c:/program files/microchip/xc32/v2.40/bin/bin/../../lib/gcc/pic32c/6.2.1/../../../../pic32c/lib\libc_nano.a(lib_a-reent.o)
 .ARM.attributes
                0x000010ca       0x2c c:/program files/microchip/xc32/v2.40/bin/bin/../../lib/gcc/pic32c/6.2.1/../../../../pic32c/lib\libc_nano.a(lib_a-stdio.o)
 .ARM.attributes
                0x000010f6       0x2c c:/program files/microchip/xc32/v2.40/bin/bin/../../lib/gcc/pic32c/6.2.1/../../../../pic32c/lib\libc_nano.a(lib_a-wcrtomb.o)
 .ARM.attributes
                0x00001122       0x2c c:/program files/microchip/xc32/v2.40/bin/bin/../../lib/gcc/pic32c/6.2.1/../../../../pic32c/lib\libc_nano.a(lib_a-writer.o)
 .ARM.attributes
                0x0000114e       0x2c c:/program files/microchip/xc32/v2.40/bin/bin/../../lib/gcc/pic32c/6.2.1/../../../../pic32c/lib\libc_nano.a(lib_a-closer.o)
 .ARM.attributes
                0x0000117a       0x2c c:/program files/microchip/xc32/v2.40/bin/bin/../../lib/gcc/pic32c/6.2.1/../../../../pic32c/lib\libc_nano.a(lib_a-fstatr.o)
 .ARM.attributes
                0x000011a6       0x2c c:/program files/microchip/xc32/v2.40/bin/bin/../../lib/gcc/pic32c/6.2.1/../../../../pic32c/lib\libc_nano.a(lib_a-isattyr.o)
 .ARM.attributes
                0x000011d2       0x2c c:/program files/microchip/xc32/v2.40/bin/bin/../../lib/gcc/pic32c/6.2.1/../../../../pic32c/lib\libc_nano.a(lib_a-lseekr.o)
 .ARM.attributes
                0x000011fe       0x2c c:/program files/microchip/xc32/v2.40/bin/bin/../../lib/gcc/pic32c/6.2.1/../../../../pic32c/lib\libc_nano.a(lib_a-readr.o)
 .ARM.attributes
                0x0000122a       0x2c c:/program files/microchip/xc32/v2.40/bin/bin/../../lib/gcc/pic32c/6.2.1/../../../../pic32c/lib\libpic32c.a(_close.o)
 .ARM.attributes
                0x00001256       0x2c c:/program files/microchip/xc32/v2.40/bin/bin/../../lib/gcc/pic32c/6.2.1/../../../../pic32c/lib\libpic32c.a(_fstat.o)
 .ARM.attributes
                0x00001282       0x2c c:/program files/microchip/xc32/v2.40/bin/bin/../../lib/gcc/pic32c/6.2.1/../../../../pic32c/lib\libpic32c.a(_isatty.o)
 .ARM.attributes
                0x000012ae       0x2c c:/program files/microchip/xc32/v2.40/bin/bin/../../lib/gcc/pic32c/6.2.1/../../../../pic32c/lib\libpic32c.a(_lseek.o)
 .ARM.attributes
                0x000012da       0x2c c:/program files/microchip/xc32/v2.40/bin/bin/../../lib/gcc/pic32c/6.2.1/../../../../pic32c/lib\libpic32c.a(_read.o)
 .ARM.attributes
                0x00001306       0x2c c:/program files/microchip/xc32/v2.40/bin/bin/../../lib/gcc/pic32c/6.2.1/../../../../pic32c/lib\libpic32c.a(sbrk.o)
 .ARM.attributes
                0x00001332       0x2c c:/program files/microchip/xc32/v2.40/bin/bin/../../lib/gcc/pic32c/6.2.1/../../../../pic32c/lib\libpic32c.a(_write.o)
 .ARM.attributes
                0x0000135e       0x2c c:/program files/microchip/xc32/v2.40/bin/bin/../../lib/gcc/pic32c/6.2.1/../../../../pic32c/lib\libpic32c.a(close.o)
 .ARM.attributes
                0x0000138a       0x2c c:/program files/microchip/xc32/v2.40/bin/bin/../../lib/gcc/pic32c/6.2.1/../../../../pic32c/lib\libpic32c.a(fstat.o)
 .ARM.attributes
                0x000013b6       0x2c c:/program files/microchip/xc32/v2.40/bin/bin/../../lib/gcc/pic32c/6.2.1/../../../../pic32c/lib\libpic32c.a(isatty.o)
 .ARM.attributes
                0x000013e2       0x2c c:/program files/microchip/xc32/v2.40/bin/bin/../../lib/gcc/pic32c/6.2.1/../../../../pic32c/lib\libpic32c.a(lseek.o)
 .ARM.attributes
                0x0000140e       0x1e c:/program files/microchip/xc32/v2.40/bin/bin/../../lib/gcc/pic32c/6.2.1\libgcc.a(_divsi3.o)
 .ARM.attributes
                0x0000142c       0x1e c:/program files/microchip/xc32/v2.40/bin/bin/../../lib/gcc/pic32c/6.2.1\libgcc.a(_arm_cmpdf2.o)
 .ARM.attributes
                0x0000144a       0x2c c:/program files/microchip/xc32/v2.40/bin/bin/../../lib/gcc/pic32c/6.2.1\libgcc.a(_fixunsdfsi.o)
 .ARM.attributes
                0x00001476       0x2c c:/program files/microchip/xc32/v2.40/bin/bin/../../lib/gcc/pic32c/6.2.1\libgcc.a(adddf3.o)
 .ARM.attributes
                0x000014a2       0x2c c:/program files/microchip/xc32/v2.40/bin/bin/../../lib/gcc/pic32c/6.2.1\libgcc.a(divdf3.o)
 .ARM.attributes
                0x000014ce       0x2c c:/program files/microchip/xc32/v2.40/bin/bin/../../lib/gcc/pic32c/6.2.1\libgcc.a(eqdf2.o)
 .ARM.attributes
                0x000014fa       0x2c c:/program files/microchip/xc32/v2.40/bin/bin/../../lib/gcc/pic32c/6.2.1\libgcc.a(gedf2.o)
 .ARM.attributes
                0x00001526       0x2c c:/program files/microchip/xc32/v2.40/bin/bin/../../lib/gcc/pic32c/6.2.1\libgcc.a(ledf2.o)
 .ARM.attributes
                0x00001552       0x2c c:/program files/microchip/xc32/v2.40/bin/bin/../../lib/gcc/pic32c/6.2.1\libgcc.a(subdf3.o)
 .ARM.attributes
                0x0000157e       0x2c c:/program files/microchip/xc32/v2.40/bin/bin/../../lib/gcc/pic32c/6.2.1\libgcc.a(unorddf2.o)
 .ARM.attributes
                0x000015aa       0x2c c:/program files/microchip/xc32/v2.40/bin/bin/../../lib/gcc/pic32c/6.2.1\libgcc.a(fixdfsi.o)
 .ARM.attributes
                0x000015d6       0x2c c:/program files/microchip/xc32/v2.40/bin/bin/../../lib/gcc/pic32c/6.2.1\libgcc.a(floatunsidf.o)
 .ARM.attributes
                0x00001602       0x1e c:/program files/microchip/xc32/v2.40/bin/bin/../../lib/gcc/pic32c/6.2.1/crtn.o

.comment        0x00000000       0x3c
 .comment       0x00000000       0x3c c:/program files/microchip/xc32/v2.40/bin/bin/../../lib/gcc/pic32c/6.2.1/crtbegin.o
                                 0x3d (size before relaxing)
 .comment       0x0000003c       0x3d build/sam_c21n_xpro/production/_ext/1360937237/appiot.o
 .comment       0x0000003c       0x3d build/sam_c21n_xpro/production/_ext/1360937237/moden.o
 .comment       0x0000003c       0x3d build/sam_c21n_xpro/production/_ext/1360937237/canapp.o
 .comment       0x0000003c       0x3d build/sam_c21n_xpro/production/_ext/1360937237/appuart.o
 .comment       0x0000003c       0x3d build/sam_c21n_xpro/production/_ext/1360937237/appemueeprom.o
 .comment       0x0000003c       0x3d build/sam_c21n_xpro/production/_ext/1360937237/apptimer.o
 .comment       0x0000003c       0x3d build/sam_c21n_xpro/production/_ext/1360937237/app_uart_debug.o
 .comment       0x0000003c       0x3d build/sam_c21n_xpro/production/_ext/1936826263/drv_at24.o
 .comment       0x0000003c       0x3d build/sam_c21n_xpro/production/_ext/1274584173/drv_usart.o
 .comment       0x0000003c       0x3d build/sam_c21n_xpro/production/_ext/1019481632/emulated_eeprom.o
 .comment       0x0000003c       0x3d build/sam_c21n_xpro/production/_ext/1617700295/plib_adc0.o
 .comment       0x0000003c       0x3d build/sam_c21n_xpro/production/_ext/1617702135/plib_can0.o
 .comment       0x0000003c       0x3d build/sam_c21n_xpro/production/_ext/166077579/plib_clock.o
 .comment       0x0000003c       0x3d build/sam_c21n_xpro/production/_ext/1617704294/plib_eic.o
 .comment       0x0000003c       0x3d build/sam_c21n_xpro/production/_ext/163928093/plib_evsys.o
 .comment       0x0000003c       0x3d build/sam_c21n_xpro/production/_ext/1390493541/plib_nvic.o
 .comment       0x0000003c       0x3d build/sam_c21n_xpro/production/_ext/770299191/plib_nvmctrl.o
 .comment       0x0000003c       0x3d build/sam_c21n_xpro/production/_ext/1390440390/plib_port.o
 .comment       0x0000003c       0x3d build/sam_c21n_xpro/production/_ext/1451668420/plib_sercom2_i2c_master.o
 .comment       0x0000003c       0x3d build/sam_c21n_xpro/production/_ext/1993392304/plib_sercom1_usart.o
 .comment       0x0000003c       0x3d build/sam_c21n_xpro/production/_ext/1993392304/plib_sercom0_usart.o
 .comment       0x0000003c       0x3d build/sam_c21n_xpro/production/_ext/1004774289/plib_systick.o
 .comment       0x0000003c       0x3d build/sam_c21n_xpro/production/_ext/1617721454/plib_wdt.o
 .comment       0x0000003c       0x3d build/sam_c21n_xpro/production/_ext/730014449/xc32_monitor.o
 .comment       0x0000003c       0x3d build/sam_c21n_xpro/production/_ext/855761890/sys_int.o
 .comment       0x0000003c       0x3d build/sam_c21n_xpro/production/_ext/1758384875/initialization.o
 .comment       0x0000003c       0x3d build/sam_c21n_xpro/production/_ext/1758384875/interrupts.o
 .comment       0x0000003c       0x3d build/sam_c21n_xpro/production/_ext/1758384875/exceptions.o
 .comment       0x0000003c       0x3d build/sam_c21n_xpro/production/_ext/1758384875/startup_xc32.o
 .comment       0x0000003c       0x3d build/sam_c21n_xpro/production/_ext/1360937237/main.o
 .comment       0x0000003c       0x3d build/sam_c21n_xpro/production/_ext/1360937237/app.o
 .comment       0x0000003c       0x3d c:/program files/microchip/xc32/v2.40/bin/bin/../../lib/gcc/pic32c/6.2.1/../../../../pic32c/lib\libpic32c.a(data_init.o)
 .comment       0x0000003c       0x3d c:/program files/microchip/xc32/v2.40/bin/bin/../../lib/gcc/pic32c/6.2.1\libgcc.a(_muldi3.o)
 .comment       0x0000003c       0x3d c:/program files/microchip/xc32/v2.40/bin/bin/../../lib/gcc/pic32c/6.2.1\libgcc.a(_udivmoddi4.o)
 .comment       0x0000003c       0x3d c:/program files/microchip/xc32/v2.40/bin/bin/../../lib/gcc/pic32c/6.2.1\libgcc.a(addsf3.o)
 .comment       0x0000003c       0x3d c:/program files/microchip/xc32/v2.40/bin/bin/../../lib/gcc/pic32c/6.2.1\libgcc.a(divsf3.o)
 .comment       0x0000003c       0x3d c:/program files/microchip/xc32/v2.40/bin/bin/../../lib/gcc/pic32c/6.2.1\libgcc.a(mulsf3.o)
 .comment       0x0000003c       0x3d c:/program files/microchip/xc32/v2.40/bin/bin/../../lib/gcc/pic32c/6.2.1\libgcc.a(subsf3.o)
 .comment       0x0000003c       0x3d c:/program files/microchip/xc32/v2.40/bin/bin/../../lib/gcc/pic32c/6.2.1\libgcc.a(fixsfsi.o)
 .comment       0x0000003c       0x3d c:/program files/microchip/xc32/v2.40/bin/bin/../../lib/gcc/pic32c/6.2.1\libgcc.a(floatsisf.o)
 .comment       0x0000003c       0x3d c:/program files/microchip/xc32/v2.40/bin/bin/../../lib/gcc/pic32c/6.2.1\libgcc.a(floatunsisf.o)
 .comment       0x0000003c       0x3d c:/program files/microchip/xc32/v2.40/bin/bin/../../lib/gcc/pic32c/6.2.1\libgcc.a(muldf3.o)
 .comment       0x0000003c       0x3d c:/program files/microchip/xc32/v2.40/bin/bin/../../lib/gcc/pic32c/6.2.1\libgcc.a(floatsidf.o)
 .comment       0x0000003c       0x3d c:/program files/microchip/xc32/v2.40/bin/bin/../../lib/gcc/pic32c/6.2.1\libgcc.a(extendsfdf2.o)
 .comment       0x0000003c       0x3d c:/program files/microchip/xc32/v2.40/bin/bin/../../lib/gcc/pic32c/6.2.1\libgcc.a(truncdfsf2.o)
 .comment       0x0000003c       0x3d c:/program files/microchip/xc32/v2.40/bin/bin/../../lib/gcc/pic32c/6.2.1/../../../../pic32c/lib\libc_nano.a(lib_a-atof.o)
 .comment       0x0000003c       0x3d c:/program files/microchip/xc32/v2.40/bin/bin/../../lib/gcc/pic32c/6.2.1/../../../../pic32c/lib\libc_nano.a(lib_a-atoi.o)
 .comment       0x0000003c       0x3d c:/program files/microchip/xc32/v2.40/bin/bin/../../lib/gcc/pic32c/6.2.1/../../../../pic32c/lib\libc_nano.a(lib_a-init.o)
 .comment       0x0000003c       0x3d c:/program files/microchip/xc32/v2.40/bin/bin/../../lib/gcc/pic32c/6.2.1/../../../../pic32c/lib\libc_nano.a(lib_a-memcmp.o)
 .comment       0x0000003c       0x3d c:/program files/microchip/xc32/v2.40/bin/bin/../../lib/gcc/pic32c/6.2.1/../../../../pic32c/lib\libc_nano.a(lib_a-memcpy-stub.o)
 .comment       0x0000003c       0x3d c:/program files/microchip/xc32/v2.40/bin/bin/../../lib/gcc/pic32c/6.2.1/../../../../pic32c/lib\libc_nano.a(lib_a-memset.o)
 .comment       0x0000003c       0x3d c:/program files/microchip/xc32/v2.40/bin/bin/../../lib/gcc/pic32c/6.2.1/../../../../pic32c/lib\libc_nano.a(_lib_a-sprintf.cdfFgGnopsuxX.o)
 .comment       0x0000003c       0x3d c:/program files/microchip/xc32/v2.40/bin/bin/../../lib/gcc/pic32c/6.2.1/../../../../pic32c/lib\libc_nano.a(lib_a-strcat.o)
 .comment       0x0000003c       0x3d c:/program files/microchip/xc32/v2.40/bin/bin/../../lib/gcc/pic32c/6.2.1/../../../../pic32c/lib\libc_nano.a(lib_a-strstr.o)
 .comment       0x0000003c       0x3d c:/program files/microchip/xc32/v2.40/bin/bin/../../lib/gcc/pic32c/6.2.1/../../../../pic32c/lib\libc_nano.a(lib_a-strtod.o)
 .comment       0x0000003c       0x3d c:/program files/microchip/xc32/v2.40/bin/bin/../../lib/gcc/pic32c/6.2.1/../../../../pic32c/lib\libc_nano.a(lib_a-strtol.o)
 .comment       0x0000003c       0x3d c:/program files/microchip/xc32/v2.40/bin/bin/../../lib/gcc/pic32c/6.2.1/../../../../pic32c/lib\libc_nano.a(lib_a-gdtoa-gethex.o)
 .comment       0x0000003c       0x3d c:/program files/microchip/xc32/v2.40/bin/bin/../../lib/gcc/pic32c/6.2.1/../../../../pic32c/lib\libc_nano.a(lib_a-gdtoa-hexnan.o)
 .comment       0x0000003c       0x3d c:/program files/microchip/xc32/v2.40/bin/bin/../../lib/gcc/pic32c/6.2.1/../../../../pic32c/lib\libc_nano.a(lib_a-impure.o)
 .comment       0x0000003c       0x3d c:/program files/microchip/xc32/v2.40/bin/bin/../../lib/gcc/pic32c/6.2.1/../../../../pic32c/lib\libc_nano.a(lib_a-localeconv.o)
 .comment       0x0000003c       0x3d c:/program files/microchip/xc32/v2.40/bin/bin/../../lib/gcc/pic32c/6.2.1/../../../../pic32c/lib\libc_nano.a(lib_a-locale.o)
 .comment       0x0000003c       0x3d c:/program files/microchip/xc32/v2.40/bin/bin/../../lib/gcc/pic32c/6.2.1/../../../../pic32c/lib\libc_nano.a(lib_a-mbtowc_r.o)
 .comment       0x0000003c       0x3d c:/program files/microchip/xc32/v2.40/bin/bin/../../lib/gcc/pic32c/6.2.1/../../../../pic32c/lib\libc_nano.a(lib_a-mprec.o)
 .comment       0x0000003c       0x3d c:/program files/microchip/xc32/v2.40/bin/bin/../../lib/gcc/pic32c/6.2.1/../../../../pic32c/lib\libc_nano.a(lib_a-nano-callocr.o)
 .comment       0x0000003c       0x3d c:/program files/microchip/xc32/v2.40/bin/bin/../../lib/gcc/pic32c/6.2.1/../../../../pic32c/lib\libc_nano.a(lib_a-nano-mallocr.o)
 .comment       0x0000003c       0x3d c:/program files/microchip/xc32/v2.40/bin/bin/../../lib/gcc/pic32c/6.2.1/../../../../pic32c/lib\libc_nano.a(_lib_a-nano-vfprintf.cdfFgGnopsuxX.o)
 .comment       0x0000003c       0x3d c:/program files/microchip/xc32/v2.40/bin/bin/../../lib/gcc/pic32c/6.2.1/../../../../pic32c/lib\libc_nano.a(lib_a-nano-vfprintf_i.o)
 .comment       0x0000003c       0x3d c:/program files/microchip/xc32/v2.40/bin/bin/../../lib/gcc/pic32c/6.2.1/../../../../pic32c/lib\libc_nano.a(lib_a-sbrkr.o)
 .comment       0x0000003c       0x3d c:/program files/microchip/xc32/v2.40/bin/bin/../../lib/gcc/pic32c/6.2.1/../../../../pic32c/lib\libc_nano.a(lib_a-__ssfputs.o)
 .comment       0x0000003c       0x3d c:/program files/microchip/xc32/v2.40/bin/bin/../../lib/gcc/pic32c/6.2.1/../../../../pic32c/lib\libc_nano.a(lib_a-strncmp.o)
 .comment       0x0000003c       0x3d c:/program files/microchip/xc32/v2.40/bin/bin/../../lib/gcc/pic32c/6.2.1/../../../../pic32c/lib\libc_nano.a(lib_a-wbuf.o)
 .comment       0x0000003c       0x3d c:/program files/microchip/xc32/v2.40/bin/bin/../../lib/gcc/pic32c/6.2.1/../../../../pic32c/lib\libc_nano.a(lib_a-wctomb_r.o)
 .comment       0x0000003c       0x3d c:/program files/microchip/xc32/v2.40/bin/bin/../../lib/gcc/pic32c/6.2.1/../../../../pic32c/lib\libc_nano.a(lib_a-wsetup.o)
 .comment       0x0000003c       0x3d c:/program files/microchip/xc32/v2.40/bin/bin/../../lib/gcc/pic32c/6.2.1/../../../../pic32c/lib\libc_nano.a(lib_a-ctype_.o)
 .comment       0x0000003c       0x3d c:/program files/microchip/xc32/v2.40/bin/bin/../../lib/gcc/pic32c/6.2.1/../../../../pic32c/lib\libc_nano.a(lib_a-dtoa.o)
 .comment       0x0000003c       0x3d c:/program files/microchip/xc32/v2.40/bin/bin/../../lib/gcc/pic32c/6.2.1/../../../../pic32c/lib\libc_nano.a(lib_a-fflush.o)
 .comment       0x0000003c       0x3d c:/program files/microchip/xc32/v2.40/bin/bin/../../lib/gcc/pic32c/6.2.1/../../../../pic32c/lib\libc_nano.a(lib_a-findfp.o)
 .comment       0x0000003c       0x3d c:/program files/microchip/xc32/v2.40/bin/bin/../../lib/gcc/pic32c/6.2.1/../../../../pic32c/lib\libc_nano.a(lib_a-fputwc.o)
 .comment       0x0000003c       0x3d c:/program files/microchip/xc32/v2.40/bin/bin/../../lib/gcc/pic32c/6.2.1/../../../../pic32c/lib\libc_nano.a(lib_a-fwalk.o)
 .comment       0x0000003c       0x3d c:/program files/microchip/xc32/v2.40/bin/bin/../../lib/gcc/pic32c/6.2.1/../../../../pic32c/lib\libc_nano.a(lib_a-makebuf.o)
 .comment       0x0000003c       0x3d c:/program files/microchip/xc32/v2.40/bin/bin/../../lib/gcc/pic32c/6.2.1/../../../../pic32c/lib\libc_nano.a(lib_a-malloc.o)
 .comment       0x0000003c       0x3d c:/program files/microchip/xc32/v2.40/bin/bin/../../lib/gcc/pic32c/6.2.1/../../../../pic32c/lib\libc_nano.a(lib_a-memchr-stub.o)
 .comment       0x0000003c       0x3d c:/program files/microchip/xc32/v2.40/bin/bin/../../lib/gcc/pic32c/6.2.1/../../../../pic32c/lib\libc_nano.a(lib_a-mlock.o)
 .comment       0x0000003c       0x3d c:/program files/microchip/xc32/v2.40/bin/bin/../../lib/gcc/pic32c/6.2.1/../../../../pic32c/lib\libc_nano.a(lib_a-nano-freer.o)
 .comment       0x0000003c       0x3d c:/program files/microchip/xc32/v2.40/bin/bin/../../lib/gcc/pic32c/6.2.1/../../../../pic32c/lib\libc_nano.a(lib_a-reent.o)
 .comment       0x0000003c       0x3d c:/program files/microchip/xc32/v2.40/bin/bin/../../lib/gcc/pic32c/6.2.1/../../../../pic32c/lib\libc_nano.a(lib_a-stdio.o)
 .comment       0x0000003c       0x3d c:/program files/microchip/xc32/v2.40/bin/bin/../../lib/gcc/pic32c/6.2.1/../../../../pic32c/lib\libc_nano.a(lib_a-wcrtomb.o)
 .comment       0x0000003c       0x3d c:/program files/microchip/xc32/v2.40/bin/bin/../../lib/gcc/pic32c/6.2.1/../../../../pic32c/lib\libc_nano.a(lib_a-writer.o)
 .comment       0x0000003c       0x3d c:/program files/microchip/xc32/v2.40/bin/bin/../../lib/gcc/pic32c/6.2.1/../../../../pic32c/lib\libc_nano.a(lib_a-closer.o)
 .comment       0x0000003c       0x3d c:/program files/microchip/xc32/v2.40/bin/bin/../../lib/gcc/pic32c/6.2.1/../../../../pic32c/lib\libc_nano.a(lib_a-fstatr.o)
 .comment       0x0000003c       0x3d c:/program files/microchip/xc32/v2.40/bin/bin/../../lib/gcc/pic32c/6.2.1/../../../../pic32c/lib\libc_nano.a(lib_a-isattyr.o)
 .comment       0x0000003c       0x3d c:/program files/microchip/xc32/v2.40/bin/bin/../../lib/gcc/pic32c/6.2.1/../../../../pic32c/lib\libc_nano.a(lib_a-lseekr.o)
 .comment       0x0000003c       0x3d c:/program files/microchip/xc32/v2.40/bin/bin/../../lib/gcc/pic32c/6.2.1/../../../../pic32c/lib\libc_nano.a(lib_a-readr.o)
 .comment       0x0000003c       0x3d c:/program files/microchip/xc32/v2.40/bin/bin/../../lib/gcc/pic32c/6.2.1/../../../../pic32c/lib\libpic32c.a(_close.o)
 .comment       0x0000003c       0x3d c:/program files/microchip/xc32/v2.40/bin/bin/../../lib/gcc/pic32c/6.2.1/../../../../pic32c/lib\libpic32c.a(_fstat.o)
 .comment       0x0000003c       0x3d c:/program files/microchip/xc32/v2.40/bin/bin/../../lib/gcc/pic32c/6.2.1/../../../../pic32c/lib\libpic32c.a(_isatty.o)
 .comment       0x0000003c       0x3d c:/program files/microchip/xc32/v2.40/bin/bin/../../lib/gcc/pic32c/6.2.1/../../../../pic32c/lib\libpic32c.a(_lseek.o)
 .comment       0x0000003c       0x3d c:/program files/microchip/xc32/v2.40/bin/bin/../../lib/gcc/pic32c/6.2.1/../../../../pic32c/lib\libpic32c.a(_read.o)
 .comment       0x0000003c       0x3d c:/program files/microchip/xc32/v2.40/bin/bin/../../lib/gcc/pic32c/6.2.1/../../../../pic32c/lib\libpic32c.a(sbrk.o)
 .comment       0x0000003c       0x3d c:/program files/microchip/xc32/v2.40/bin/bin/../../lib/gcc/pic32c/6.2.1/../../../../pic32c/lib\libpic32c.a(_write.o)
 .comment       0x0000003c       0x3d c:/program files/microchip/xc32/v2.40/bin/bin/../../lib/gcc/pic32c/6.2.1/../../../../pic32c/lib\libpic32c.a(close.o)
 .comment       0x0000003c       0x3d c:/program files/microchip/xc32/v2.40/bin/bin/../../lib/gcc/pic32c/6.2.1/../../../../pic32c/lib\libpic32c.a(fstat.o)
 .comment       0x0000003c       0x3d c:/program files/microchip/xc32/v2.40/bin/bin/../../lib/gcc/pic32c/6.2.1/../../../../pic32c/lib\libpic32c.a(isatty.o)
 .comment       0x0000003c       0x3d c:/program files/microchip/xc32/v2.40/bin/bin/../../lib/gcc/pic32c/6.2.1/../../../../pic32c/lib\libpic32c.a(lseek.o)
 .comment       0x0000003c       0x3d c:/program files/microchip/xc32/v2.40/bin/bin/../../lib/gcc/pic32c/6.2.1\libgcc.a(_fixunsdfsi.o)
 .comment       0x0000003c       0x3d c:/program files/microchip/xc32/v2.40/bin/bin/../../lib/gcc/pic32c/6.2.1\libgcc.a(adddf3.o)
 .comment       0x0000003c       0x3d c:/program files/microchip/xc32/v2.40/bin/bin/../../lib/gcc/pic32c/6.2.1\libgcc.a(divdf3.o)
 .comment       0x0000003c       0x3d c:/program files/microchip/xc32/v2.40/bin/bin/../../lib/gcc/pic32c/6.2.1\libgcc.a(eqdf2.o)
 .comment       0x0000003c       0x3d c:/program files/microchip/xc32/v2.40/bin/bin/../../lib/gcc/pic32c/6.2.1\libgcc.a(gedf2.o)
 .comment       0x0000003c       0x3d c:/program files/microchip/xc32/v2.40/bin/bin/../../lib/gcc/pic32c/6.2.1\libgcc.a(ledf2.o)
 .comment       0x0000003c       0x3d c:/program files/microchip/xc32/v2.40/bin/bin/../../lib/gcc/pic32c/6.2.1\libgcc.a(subdf3.o)
 .comment       0x0000003c       0x3d c:/program files/microchip/xc32/v2.40/bin/bin/../../lib/gcc/pic32c/6.2.1\libgcc.a(unorddf2.o)
 .comment       0x0000003c       0x3d c:/program files/microchip/xc32/v2.40/bin/bin/../../lib/gcc/pic32c/6.2.1\libgcc.a(fixdfsi.o)
 .comment       0x0000003c       0x3d c:/program files/microchip/xc32/v2.40/bin/bin/../../lib/gcc/pic32c/6.2.1\libgcc.a(floatunsidf.o)

.debug_info     0x00000000    0x7589f
 .debug_info    0x00000000     0x2883 build/sam_c21n_xpro/production/_ext/1360937237/appiot.o
 .debug_info    0x00002883     0x6385 build/sam_c21n_xpro/production/_ext/1360937237/moden.o
 .debug_info    0x00008c08     0x38f5 build/sam_c21n_xpro/production/_ext/1360937237/canapp.o
 .debug_info    0x0000c4fd     0x1656 build/sam_c21n_xpro/production/_ext/1360937237/appuart.o
 .debug_info    0x0000db53     0x14d9 build/sam_c21n_xpro/production/_ext/1360937237/appemueeprom.o
 .debug_info    0x0000f02c     0x1a70 build/sam_c21n_xpro/production/_ext/1360937237/apptimer.o
 .debug_info    0x00010a9c     0x1685 build/sam_c21n_xpro/production/_ext/1360937237/app_uart_debug.o
 .debug_info    0x00012121     0x1d5b build/sam_c21n_xpro/production/_ext/1936826263/drv_at24.o
 .debug_info    0x00013e7c     0x2a0c build/sam_c21n_xpro/production/_ext/1274584173/drv_usart.o
 .debug_info    0x00016888     0x28f0 build/sam_c21n_xpro/production/_ext/1019481632/emulated_eeprom.o
 .debug_info    0x00019178      0xc3d build/sam_c21n_xpro/production/_ext/1617700295/plib_adc0.o
 .debug_info    0x00019db5     0x284d build/sam_c21n_xpro/production/_ext/1617702135/plib_can0.o
 .debug_info    0x0001c602      0xaf5 build/sam_c21n_xpro/production/_ext/166077579/plib_clock.o
 .debug_info    0x0001d0f7      0x6dc build/sam_c21n_xpro/production/_ext/1617704294/plib_eic.o
 .debug_info    0x0001d7d3      0x349 build/sam_c21n_xpro/production/_ext/163928093/plib_evsys.o
 .debug_info    0x0001db1c      0xb0d build/sam_c21n_xpro/production/_ext/1390493541/plib_nvic.o
 .debug_info    0x0001e629     0x1672 build/sam_c21n_xpro/production/_ext/770299191/plib_nvmctrl.o
 .debug_info    0x0001fc9b      0xbaf build/sam_c21n_xpro/production/_ext/1390440390/plib_port.o
 .debug_info    0x0002084a     0x16e7 build/sam_c21n_xpro/production/_ext/1451668420/plib_sercom2_i2c_master.o
 .debug_info    0x00021f31     0x1efd build/sam_c21n_xpro/production/_ext/1993392304/plib_sercom1_usart.o
 .debug_info    0x00023e2e     0x1f0e build/sam_c21n_xpro/production/_ext/1993392304/plib_sercom0_usart.o
 .debug_info    0x00025d3c      0x8fa build/sam_c21n_xpro/production/_ext/1004774289/plib_systick.o
 .debug_info    0x00026636      0x612 build/sam_c21n_xpro/production/_ext/1617721454/plib_wdt.o
 .debug_info    0x00026c48      0x337 build/sam_c21n_xpro/production/_ext/730014449/xc32_monitor.o
 .debug_info    0x00026f7f      0x9bb build/sam_c21n_xpro/production/_ext/855761890/sys_int.o
 .debug_info    0x0002793a     0x2567 build/sam_c21n_xpro/production/_ext/1758384875/initialization.o
 .debug_info    0x00029ea1     0x1564 build/sam_c21n_xpro/production/_ext/1758384875/interrupts.o
 .debug_info    0x0002b405      0xfed build/sam_c21n_xpro/production/_ext/1758384875/exceptions.o
 .debug_info    0x0002c3f2      0x4cd build/sam_c21n_xpro/production/_ext/1758384875/startup_xc32.o
 .debug_info    0x0002c8bf     0x2044 build/sam_c21n_xpro/production/_ext/1360937237/main.o
 .debug_info    0x0002e903      0xf1e build/sam_c21n_xpro/production/_ext/1360937237/app.o
 .debug_info    0x0002f821      0x1f0 c:/program files/microchip/xc32/v2.40/bin/bin/../../lib/gcc/pic32c/6.2.1/../../../../pic32c/lib\libpic32c.a(data_init.o)
 .debug_info    0x0002fa11       0xee c:/program files/microchip/xc32/v2.40/bin/bin/../../lib/gcc/pic32c/6.2.1\libgcc.a(_udivsi3.o)
 .debug_info    0x0002faff       0xee c:/program files/microchip/xc32/v2.40/bin/bin/../../lib/gcc/pic32c/6.2.1\libgcc.a(_dvmd_tls.o)
 .debug_info    0x0002fbed       0xee c:/program files/microchip/xc32/v2.40/bin/bin/../../lib/gcc/pic32c/6.2.1\libgcc.a(_aeabi_uldivmod.o)
 .debug_info    0x0002fcdb     0x13d1 c:/program files/microchip/xc32/v2.40/bin/bin/../../lib/gcc/pic32c/6.2.1\libgcc.a(_muldi3.o)
 .debug_info    0x000310ac     0x132c c:/program files/microchip/xc32/v2.40/bin/bin/../../lib/gcc/pic32c/6.2.1\libgcc.a(_udivmoddi4.o)
 .debug_info    0x000323d8      0x556 c:/program files/microchip/xc32/v2.40/bin/bin/../../lib/gcc/pic32c/6.2.1\libgcc.a(addsf3.o)
 .debug_info    0x0003292e      0x58b c:/program files/microchip/xc32/v2.40/bin/bin/../../lib/gcc/pic32c/6.2.1\libgcc.a(divsf3.o)
 .debug_info    0x00032eb9      0x5d5 c:/program files/microchip/xc32/v2.40/bin/bin/../../lib/gcc/pic32c/6.2.1\libgcc.a(mulsf3.o)
 .debug_info    0x0003348e      0x556 c:/program files/microchip/xc32/v2.40/bin/bin/../../lib/gcc/pic32c/6.2.1\libgcc.a(subsf3.o)
 .debug_info    0x000339e4      0x39d c:/program files/microchip/xc32/v2.40/bin/bin/../../lib/gcc/pic32c/6.2.1\libgcc.a(fixsfsi.o)
 .debug_info    0x00033d81      0x477 c:/program files/microchip/xc32/v2.40/bin/bin/../../lib/gcc/pic32c/6.2.1\libgcc.a(floatsisf.o)
 .debug_info    0x000341f8      0x465 c:/program files/microchip/xc32/v2.40/bin/bin/../../lib/gcc/pic32c/6.2.1\libgcc.a(floatunsisf.o)
 .debug_info    0x0003465d      0xa41 c:/program files/microchip/xc32/v2.40/bin/bin/../../lib/gcc/pic32c/6.2.1\libgcc.a(muldf3.o)
 .debug_info    0x0003509e      0x4fc c:/program files/microchip/xc32/v2.40/bin/bin/../../lib/gcc/pic32c/6.2.1\libgcc.a(floatsidf.o)
 .debug_info    0x0003559a      0x47d c:/program files/microchip/xc32/v2.40/bin/bin/../../lib/gcc/pic32c/6.2.1\libgcc.a(extendsfdf2.o)
 .debug_info    0x00035a17      0x4ee c:/program files/microchip/xc32/v2.40/bin/bin/../../lib/gcc/pic32c/6.2.1\libgcc.a(truncdfsf2.o)
 .debug_info    0x00035f05       0xee c:/program files/microchip/xc32/v2.40/bin/bin/../../lib/gcc/pic32c/6.2.1\libgcc.a(_thumb1_case_uqi.o)
 .debug_info    0x00035ff3       0xee c:/program files/microchip/xc32/v2.40/bin/bin/../../lib/gcc/pic32c/6.2.1\libgcc.a(_thumb1_case_uhi.o)
 .debug_info    0x000360e1       0xee c:/program files/microchip/xc32/v2.40/bin/bin/../../lib/gcc/pic32c/6.2.1\libgcc.a(_lshrdi3.o)
 .debug_info    0x000361cf       0xee c:/program files/microchip/xc32/v2.40/bin/bin/../../lib/gcc/pic32c/6.2.1\libgcc.a(_ashldi3.o)
 .debug_info    0x000362bd       0xee c:/program files/microchip/xc32/v2.40/bin/bin/../../lib/gcc/pic32c/6.2.1\libgcc.a(_clzsi2.o)
 .debug_info    0x000363ab       0xee c:/program files/microchip/xc32/v2.40/bin/bin/../../lib/gcc/pic32c/6.2.1\libgcc.a(_clzdi2.o)
 .debug_info    0x00036499      0xd8b c:/program files/microchip/xc32/v2.40/bin/bin/../../lib/gcc/pic32c/6.2.1/../../../../pic32c/lib\libc_nano.a(lib_a-atof.o)
 .debug_info    0x00037224      0xdf4 c:/program files/microchip/xc32/v2.40/bin/bin/../../lib/gcc/pic32c/6.2.1/../../../../pic32c/lib\libc_nano.a(lib_a-atoi.o)
 .debug_info    0x00038018      0x359 c:/program files/microchip/xc32/v2.40/bin/bin/../../lib/gcc/pic32c/6.2.1/../../../../pic32c/lib\libc_nano.a(lib_a-init.o)
 .debug_info    0x00038371      0xd94 c:/program files/microchip/xc32/v2.40/bin/bin/../../lib/gcc/pic32c/6.2.1/../../../../pic32c/lib\libc_nano.a(lib_a-memcmp.o)
 .debug_info    0x00039105      0xdb3 c:/program files/microchip/xc32/v2.40/bin/bin/../../lib/gcc/pic32c/6.2.1/../../../../pic32c/lib\libc_nano.a(lib_a-memcpy-stub.o)
 .debug_info    0x00039eb8     0x14e8 c:/program files/microchip/xc32/v2.40/bin/bin/../../lib/gcc/pic32c/6.2.1/../../../../pic32c/lib\libc_nano.a(lib_a-memset.o)
 .debug_info    0x0003b3a0      0xe33 c:/program files/microchip/xc32/v2.40/bin/bin/../../lib/gcc/pic32c/6.2.1/../../../../pic32c/lib\libc_nano.a(_lib_a-sprintf.cdfFgGnopsuxX.o)
 .debug_info    0x0003c1d3      0xd5f c:/program files/microchip/xc32/v2.40/bin/bin/../../lib/gcc/pic32c/6.2.1/../../../../pic32c/lib\libc_nano.a(lib_a-strcat.o)
 .debug_info    0x0003cf32      0x117 c:/program files/microchip/xc32/v2.40/bin/bin/../../lib/gcc/pic32c/6.2.1/../../../../pic32c/lib\libc_nano.a(lib_a-strlen.o)
 .debug_info    0x0003d049      0xd80 c:/program files/microchip/xc32/v2.40/bin/bin/../../lib/gcc/pic32c/6.2.1/../../../../pic32c/lib\libc_nano.a(lib_a-strstr.o)
 .debug_info    0x0003ddc9     0x2599 c:/program files/microchip/xc32/v2.40/bin/bin/../../lib/gcc/pic32c/6.2.1/../../../../pic32c/lib\libc_nano.a(lib_a-strtod.o)
 .debug_info    0x00040362     0x184b c:/program files/microchip/xc32/v2.40/bin/bin/../../lib/gcc/pic32c/6.2.1/../../../../pic32c/lib\libc_nano.a(lib_a-strtol.o)
 .debug_info    0x00041bad     0x1e4c c:/program files/microchip/xc32/v2.40/bin/bin/../../lib/gcc/pic32c/6.2.1/../../../../pic32c/lib\libc_nano.a(lib_a-gdtoa-gethex.o)
 .debug_info    0x000439f9     0x193f c:/program files/microchip/xc32/v2.40/bin/bin/../../lib/gcc/pic32c/6.2.1/../../../../pic32c/lib\libc_nano.a(lib_a-gdtoa-hexnan.o)
 .debug_info    0x00045338      0xd3c c:/program files/microchip/xc32/v2.40/bin/bin/../../lib/gcc/pic32c/6.2.1/../../../../pic32c/lib\libc_nano.a(lib_a-impure.o)
 .debug_info    0x00046074     0x1635 c:/program files/microchip/xc32/v2.40/bin/bin/../../lib/gcc/pic32c/6.2.1/../../../../pic32c/lib\libc_nano.a(lib_a-localeconv.o)
 .debug_info    0x000476a9     0x17cf c:/program files/microchip/xc32/v2.40/bin/bin/../../lib/gcc/pic32c/6.2.1/../../../../pic32c/lib\libc_nano.a(lib_a-locale.o)
 .debug_info    0x00048e78     0x16a8 c:/program files/microchip/xc32/v2.40/bin/bin/../../lib/gcc/pic32c/6.2.1/../../../../pic32c/lib\libc_nano.a(lib_a-mbtowc_r.o)
 .debug_info    0x0004a520     0x24be c:/program files/microchip/xc32/v2.40/bin/bin/../../lib/gcc/pic32c/6.2.1/../../../../pic32c/lib\libc_nano.a(lib_a-mprec.o)
 .debug_info    0x0004c9de     0x101b c:/program files/microchip/xc32/v2.40/bin/bin/../../lib/gcc/pic32c/6.2.1/../../../../pic32c/lib\libc_nano.a(lib_a-nano-callocr.o)
 .debug_info    0x0004d9f9     0x119a c:/program files/microchip/xc32/v2.40/bin/bin/../../lib/gcc/pic32c/6.2.1/../../../../pic32c/lib\libc_nano.a(lib_a-nano-mallocr.o)
 .debug_info    0x0004eb93     0x26af c:/program files/microchip/xc32/v2.40/bin/bin/../../lib/gcc/pic32c/6.2.1/../../../../pic32c/lib\libc_nano.a(_lib_a-nano-vfprintf.cdfFgGnopsuxX.o)
 .debug_info    0x00051242     0x1d15 c:/program files/microchip/xc32/v2.40/bin/bin/../../lib/gcc/pic32c/6.2.1/../../../../pic32c/lib\libc_nano.a(lib_a-nano-vfprintf_i.o)
 .debug_info    0x00052f57      0xe2c c:/program files/microchip/xc32/v2.40/bin/bin/../../lib/gcc/pic32c/6.2.1/../../../../pic32c/lib\libc_nano.a(lib_a-sbrkr.o)
 .debug_info    0x00053d83     0x188d c:/program files/microchip/xc32/v2.40/bin/bin/../../lib/gcc/pic32c/6.2.1/../../../../pic32c/lib\libc_nano.a(lib_a-__ssfputs.o)
 .debug_info    0x00055610      0xd71 c:/program files/microchip/xc32/v2.40/bin/bin/../../lib/gcc/pic32c/6.2.1/../../../../pic32c/lib\libc_nano.a(lib_a-strncmp.o)
 .debug_info    0x00056381     0x11b3 c:/program files/microchip/xc32/v2.40/bin/bin/../../lib/gcc/pic32c/6.2.1/../../../../pic32c/lib\libc_nano.a(lib_a-wbuf.o)
 .debug_info    0x00057534     0x166c c:/program files/microchip/xc32/v2.40/bin/bin/../../lib/gcc/pic32c/6.2.1/../../../../pic32c/lib\libc_nano.a(lib_a-wctomb_r.o)
 .debug_info    0x00058ba0     0x112e c:/program files/microchip/xc32/v2.40/bin/bin/../../lib/gcc/pic32c/6.2.1/../../../../pic32c/lib\libc_nano.a(lib_a-wsetup.o)
 .debug_info    0x00059cce     0x14b9 c:/program files/microchip/xc32/v2.40/bin/bin/../../lib/gcc/pic32c/6.2.1/../../../../pic32c/lib\libc_nano.a(lib_a-ctype_.o)
 .debug_info    0x0005b187     0x2099 c:/program files/microchip/xc32/v2.40/bin/bin/../../lib/gcc/pic32c/6.2.1/../../../../pic32c/lib\libc_nano.a(lib_a-dtoa.o)
 .debug_info    0x0005d220     0x1298 c:/program files/microchip/xc32/v2.40/bin/bin/../../lib/gcc/pic32c/6.2.1/../../../../pic32c/lib\libc_nano.a(lib_a-fflush.o)
 .debug_info    0x0005e4b8     0x1470 c:/program files/microchip/xc32/v2.40/bin/bin/../../lib/gcc/pic32c/6.2.1/../../../../pic32c/lib\libc_nano.a(lib_a-findfp.o)
 .debug_info    0x0005f928     0x12ea c:/program files/microchip/xc32/v2.40/bin/bin/../../lib/gcc/pic32c/6.2.1/../../../../pic32c/lib\libc_nano.a(lib_a-fputwc.o)
 .debug_info    0x00060c12     0x11a9 c:/program files/microchip/xc32/v2.40/bin/bin/../../lib/gcc/pic32c/6.2.1/../../../../pic32c/lib\libc_nano.a(lib_a-fwalk.o)
 .debug_info    0x00061dbb     0x14e5 c:/program files/microchip/xc32/v2.40/bin/bin/../../lib/gcc/pic32c/6.2.1/../../../../pic32c/lib\libc_nano.a(lib_a-makebuf.o)
 .debug_info    0x000632a0      0xddf c:/program files/microchip/xc32/v2.40/bin/bin/../../lib/gcc/pic32c/6.2.1/../../../../pic32c/lib\libc_nano.a(lib_a-malloc.o)
 .debug_info    0x0006407f      0xdb2 c:/program files/microchip/xc32/v2.40/bin/bin/../../lib/gcc/pic32c/6.2.1/../../../../pic32c/lib\libc_nano.a(lib_a-memchr-stub.o)
 .debug_info    0x00064e31      0xd79 c:/program files/microchip/xc32/v2.40/bin/bin/../../lib/gcc/pic32c/6.2.1/../../../../pic32c/lib\libc_nano.a(lib_a-mlock.o)
 .debug_info    0x00065baa     0x10ed c:/program files/microchip/xc32/v2.40/bin/bin/../../lib/gcc/pic32c/6.2.1/../../../../pic32c/lib\libc_nano.a(lib_a-nano-freer.o)
 .debug_info    0x00066c97      0xf2f c:/program files/microchip/xc32/v2.40/bin/bin/../../lib/gcc/pic32c/6.2.1/../../../../pic32c/lib\libc_nano.a(lib_a-reent.o)
 .debug_info    0x00067bc6     0x135a c:/program files/microchip/xc32/v2.40/bin/bin/../../lib/gcc/pic32c/6.2.1/../../../../pic32c/lib\libc_nano.a(lib_a-stdio.o)
 .debug_info    0x00068f20     0x16a4 c:/program files/microchip/xc32/v2.40/bin/bin/../../lib/gcc/pic32c/6.2.1/../../../../pic32c/lib\libc_nano.a(lib_a-wcrtomb.o)
 .debug_info    0x0006a5c4      0xe4b c:/program files/microchip/xc32/v2.40/bin/bin/../../lib/gcc/pic32c/6.2.1/../../../../pic32c/lib\libc_nano.a(lib_a-writer.o)
 .debug_info    0x0006b40f      0xdfa c:/program files/microchip/xc32/v2.40/bin/bin/../../lib/gcc/pic32c/6.2.1/../../../../pic32c/lib\libc_nano.a(lib_a-closer.o)
 .debug_info    0x0006c209     0x10f5 c:/program files/microchip/xc32/v2.40/bin/bin/../../lib/gcc/pic32c/6.2.1/../../../../pic32c/lib\libc_nano.a(lib_a-fstatr.o)
 .debug_info    0x0006d2fe      0xe07 c:/program files/microchip/xc32/v2.40/bin/bin/../../lib/gcc/pic32c/6.2.1/../../../../pic32c/lib\libc_nano.a(lib_a-isattyr.o)
 .debug_info    0x0006e105      0xe32 c:/program files/microchip/xc32/v2.40/bin/bin/../../lib/gcc/pic32c/6.2.1/../../../../pic32c/lib\libc_nano.a(lib_a-lseekr.o)
 .debug_info    0x0006ef37      0xe49 c:/program files/microchip/xc32/v2.40/bin/bin/../../lib/gcc/pic32c/6.2.1/../../../../pic32c/lib\libc_nano.a(lib_a-readr.o)
 .debug_info    0x0006fd80      0x1d7 c:/program files/microchip/xc32/v2.40/bin/bin/../../lib/gcc/pic32c/6.2.1/../../../../pic32c/lib\libpic32c.a(_close.o)
 .debug_info    0x0006ff57      0x1d7 c:/program files/microchip/xc32/v2.40/bin/bin/../../lib/gcc/pic32c/6.2.1/../../../../pic32c/lib\libpic32c.a(_fstat.o)
 .debug_info    0x0007012e      0x1d9 c:/program files/microchip/xc32/v2.40/bin/bin/../../lib/gcc/pic32c/6.2.1/../../../../pic32c/lib\libpic32c.a(_isatty.o)
 .debug_info    0x00070307      0x1d7 c:/program files/microchip/xc32/v2.40/bin/bin/../../lib/gcc/pic32c/6.2.1/../../../../pic32c/lib\libpic32c.a(_lseek.o)
 .debug_info    0x000704de      0x1d5 c:/program files/microchip/xc32/v2.40/bin/bin/../../lib/gcc/pic32c/6.2.1/../../../../pic32c/lib\libpic32c.a(_read.o)
 .debug_info    0x000706b3      0x1d3 c:/program files/microchip/xc32/v2.40/bin/bin/../../lib/gcc/pic32c/6.2.1/../../../../pic32c/lib\libpic32c.a(sbrk.o)
 .debug_info    0x00070886      0x1d7 c:/program files/microchip/xc32/v2.40/bin/bin/../../lib/gcc/pic32c/6.2.1/../../../../pic32c/lib\libpic32c.a(_write.o)
 .debug_info    0x00070a5d      0x1d4 c:/program files/microchip/xc32/v2.40/bin/bin/../../lib/gcc/pic32c/6.2.1/../../../../pic32c/lib\libpic32c.a(close.o)
 .debug_info    0x00070c31      0x1d4 c:/program files/microchip/xc32/v2.40/bin/bin/../../lib/gcc/pic32c/6.2.1/../../../../pic32c/lib\libpic32c.a(fstat.o)
 .debug_info    0x00070e05      0x1d6 c:/program files/microchip/xc32/v2.40/bin/bin/../../lib/gcc/pic32c/6.2.1/../../../../pic32c/lib\libpic32c.a(isatty.o)
 .debug_info    0x00070fdb      0x1d4 c:/program files/microchip/xc32/v2.40/bin/bin/../../lib/gcc/pic32c/6.2.1/../../../../pic32c/lib\libpic32c.a(lseek.o)
 .debug_info    0x000711af       0xee c:/program files/microchip/xc32/v2.40/bin/bin/../../lib/gcc/pic32c/6.2.1\libgcc.a(_divsi3.o)
 .debug_info    0x0007129d       0xee c:/program files/microchip/xc32/v2.40/bin/bin/../../lib/gcc/pic32c/6.2.1\libgcc.a(_arm_cmpdf2.o)
 .debug_info    0x0007138b     0x12a0 c:/program files/microchip/xc32/v2.40/bin/bin/../../lib/gcc/pic32c/6.2.1\libgcc.a(_fixunsdfsi.o)
 .debug_info    0x0007262b      0x7b0 c:/program files/microchip/xc32/v2.40/bin/bin/../../lib/gcc/pic32c/6.2.1\libgcc.a(adddf3.o)
 .debug_info    0x00072ddb      0x9c6 c:/program files/microchip/xc32/v2.40/bin/bin/../../lib/gcc/pic32c/6.2.1\libgcc.a(divdf3.o)
 .debug_info    0x000737a1      0x413 c:/program files/microchip/xc32/v2.40/bin/bin/../../lib/gcc/pic32c/6.2.1\libgcc.a(eqdf2.o)
 .debug_info    0x00073bb4      0x43f c:/program files/microchip/xc32/v2.40/bin/bin/../../lib/gcc/pic32c/6.2.1\libgcc.a(gedf2.o)
 .debug_info    0x00073ff3      0x437 c:/program files/microchip/xc32/v2.40/bin/bin/../../lib/gcc/pic32c/6.2.1\libgcc.a(ledf2.o)
 .debug_info    0x0007442a      0x7b0 c:/program files/microchip/xc32/v2.40/bin/bin/../../lib/gcc/pic32c/6.2.1\libgcc.a(subdf3.o)
 .debug_info    0x00074bda      0x415 c:/program files/microchip/xc32/v2.40/bin/bin/../../lib/gcc/pic32c/6.2.1\libgcc.a(unorddf2.o)
 .debug_info    0x00074fef      0x3bc c:/program files/microchip/xc32/v2.40/bin/bin/../../lib/gcc/pic32c/6.2.1\libgcc.a(fixdfsi.o)
 .debug_info    0x000753ab      0x4f4 c:/program files/microchip/xc32/v2.40/bin/bin/../../lib/gcc/pic32c/6.2.1\libgcc.a(floatunsidf.o)

.debug_abbrev   0x00000000     0xc4f7
 .debug_abbrev  0x00000000      0x2ea build/sam_c21n_xpro/production/_ext/1360937237/appiot.o
 .debug_abbrev  0x000002ea      0x384 build/sam_c21n_xpro/production/_ext/1360937237/moden.o
 .debug_abbrev  0x0000066e      0x471 build/sam_c21n_xpro/production/_ext/1360937237/canapp.o
 .debug_abbrev  0x00000adf      0x262 build/sam_c21n_xpro/production/_ext/1360937237/appuart.o
 .debug_abbrev  0x00000d41      0x215 build/sam_c21n_xpro/production/_ext/1360937237/appemueeprom.o
 .debug_abbrev  0x00000f56      0x223 build/sam_c21n_xpro/production/_ext/1360937237/apptimer.o
 .debug_abbrev  0x00001179      0x255 build/sam_c21n_xpro/production/_ext/1360937237/app_uart_debug.o
 .debug_abbrev  0x000013ce      0x3b0 build/sam_c21n_xpro/production/_ext/1936826263/drv_at24.o
 .debug_abbrev  0x0000177e      0x506 build/sam_c21n_xpro/production/_ext/1274584173/drv_usart.o
 .debug_abbrev  0x00001c84      0x56a build/sam_c21n_xpro/production/_ext/1019481632/emulated_eeprom.o
 .debug_abbrev  0x000021ee      0x154 build/sam_c21n_xpro/production/_ext/1617700295/plib_adc0.o
 .debug_abbrev  0x00002342      0x3b3 build/sam_c21n_xpro/production/_ext/1617702135/plib_can0.o
 .debug_abbrev  0x000026f5      0x126 build/sam_c21n_xpro/production/_ext/166077579/plib_clock.o
 .debug_abbrev  0x0000281b      0x16c build/sam_c21n_xpro/production/_ext/1617704294/plib_eic.o
 .debug_abbrev  0x00002987       0x39 build/sam_c21n_xpro/production/_ext/163928093/plib_evsys.o
 .debug_abbrev  0x000029c0      0x1b9 build/sam_c21n_xpro/production/_ext/1390493541/plib_nvic.o
 .debug_abbrev  0x00002b79      0x26a build/sam_c21n_xpro/production/_ext/770299191/plib_nvmctrl.o
 .debug_abbrev  0x00002de3      0x1ae build/sam_c21n_xpro/production/_ext/1390440390/plib_port.o
 .debug_abbrev  0x00002f91      0x36e build/sam_c21n_xpro/production/_ext/1451668420/plib_sercom2_i2c_master.o
 .debug_abbrev  0x000032ff      0x3ee build/sam_c21n_xpro/production/_ext/1993392304/plib_sercom1_usart.o
 .debug_abbrev  0x000036ed      0x3ee build/sam_c21n_xpro/production/_ext/1993392304/plib_sercom0_usart.o
 .debug_abbrev  0x00003adb      0x1e0 build/sam_c21n_xpro/production/_ext/1004774289/plib_systick.o
 .debug_abbrev  0x00003cbb       0xc5 build/sam_c21n_xpro/production/_ext/1617721454/plib_wdt.o
 .debug_abbrev  0x00003d80       0x89 build/sam_c21n_xpro/production/_ext/730014449/xc32_monitor.o
 .debug_abbrev  0x00003e09      0x1f7 build/sam_c21n_xpro/production/_ext/855761890/sys_int.o
 .debug_abbrev  0x00004000      0x291 build/sam_c21n_xpro/production/_ext/1758384875/initialization.o
 .debug_abbrev  0x00004291      0x1b5 build/sam_c21n_xpro/production/_ext/1758384875/interrupts.o
 .debug_abbrev  0x00004446      0x1aa build/sam_c21n_xpro/production/_ext/1758384875/exceptions.o
 .debug_abbrev  0x000045f0      0x10b build/sam_c21n_xpro/production/_ext/1758384875/startup_xc32.o
 .debug_abbrev  0x000046fb      0x26c build/sam_c21n_xpro/production/_ext/1360937237/main.o
 .debug_abbrev  0x00004967      0x1ea build/sam_c21n_xpro/production/_ext/1360937237/app.o
 .debug_abbrev  0x00004b51       0x2a c:/program files/microchip/xc32/v2.40/bin/bin/../../lib/gcc/pic32c/6.2.1/../../../../pic32c/lib\libpic32c.a(data_init.o)
 .debug_abbrev  0x00004b7b       0x14 c:/program files/microchip/xc32/v2.40/bin/bin/../../lib/gcc/pic32c/6.2.1\libgcc.a(_udivsi3.o)
 .debug_abbrev  0x00004b8f       0x14 c:/program files/microchip/xc32/v2.40/bin/bin/../../lib/gcc/pic32c/6.2.1\libgcc.a(_dvmd_tls.o)
 .debug_abbrev  0x00004ba3       0x14 c:/program files/microchip/xc32/v2.40/bin/bin/../../lib/gcc/pic32c/6.2.1\libgcc.a(_aeabi_uldivmod.o)
 .debug_abbrev  0x00004bb7      0x176 c:/program files/microchip/xc32/v2.40/bin/bin/../../lib/gcc/pic32c/6.2.1\libgcc.a(_muldi3.o)
 .debug_abbrev  0x00004d2d      0x13b c:/program files/microchip/xc32/v2.40/bin/bin/../../lib/gcc/pic32c/6.2.1\libgcc.a(_udivmoddi4.o)
 .debug_abbrev  0x00004e68      0x149 c:/program files/microchip/xc32/v2.40/bin/bin/../../lib/gcc/pic32c/6.2.1\libgcc.a(addsf3.o)
 .debug_abbrev  0x00004fb1      0x135 c:/program files/microchip/xc32/v2.40/bin/bin/../../lib/gcc/pic32c/6.2.1\libgcc.a(divsf3.o)
 .debug_abbrev  0x000050e6      0x13c c:/program files/microchip/xc32/v2.40/bin/bin/../../lib/gcc/pic32c/6.2.1\libgcc.a(mulsf3.o)
 .debug_abbrev  0x00005222      0x149 c:/program files/microchip/xc32/v2.40/bin/bin/../../lib/gcc/pic32c/6.2.1\libgcc.a(subsf3.o)
 .debug_abbrev  0x0000536b      0x12e c:/program files/microchip/xc32/v2.40/bin/bin/../../lib/gcc/pic32c/6.2.1\libgcc.a(fixsfsi.o)
 .debug_abbrev  0x00005499      0x12d c:/program files/microchip/xc32/v2.40/bin/bin/../../lib/gcc/pic32c/6.2.1\libgcc.a(floatsisf.o)
 .debug_abbrev  0x000055c6      0x12d c:/program files/microchip/xc32/v2.40/bin/bin/../../lib/gcc/pic32c/6.2.1\libgcc.a(floatunsisf.o)
 .debug_abbrev  0x000056f3      0x14a c:/program files/microchip/xc32/v2.40/bin/bin/../../lib/gcc/pic32c/6.2.1\libgcc.a(muldf3.o)
 .debug_abbrev  0x0000583d      0x118 c:/program files/microchip/xc32/v2.40/bin/bin/../../lib/gcc/pic32c/6.2.1\libgcc.a(floatsidf.o)
 .debug_abbrev  0x00005955      0x114 c:/program files/microchip/xc32/v2.40/bin/bin/../../lib/gcc/pic32c/6.2.1\libgcc.a(extendsfdf2.o)
 .debug_abbrev  0x00005a69      0x10e c:/program files/microchip/xc32/v2.40/bin/bin/../../lib/gcc/pic32c/6.2.1\libgcc.a(truncdfsf2.o)
 .debug_abbrev  0x00005b77       0x14 c:/program files/microchip/xc32/v2.40/bin/bin/../../lib/gcc/pic32c/6.2.1\libgcc.a(_thumb1_case_uqi.o)
 .debug_abbrev  0x00005b8b       0x14 c:/program files/microchip/xc32/v2.40/bin/bin/../../lib/gcc/pic32c/6.2.1\libgcc.a(_thumb1_case_uhi.o)
 .debug_abbrev  0x00005b9f       0x14 c:/program files/microchip/xc32/v2.40/bin/bin/../../lib/gcc/pic32c/6.2.1\libgcc.a(_lshrdi3.o)
 .debug_abbrev  0x00005bb3       0x14 c:/program files/microchip/xc32/v2.40/bin/bin/../../lib/gcc/pic32c/6.2.1\libgcc.a(_ashldi3.o)
 .debug_abbrev  0x00005bc7       0x14 c:/program files/microchip/xc32/v2.40/bin/bin/../../lib/gcc/pic32c/6.2.1\libgcc.a(_clzsi2.o)
 .debug_abbrev  0x00005bdb       0x14 c:/program files/microchip/xc32/v2.40/bin/bin/../../lib/gcc/pic32c/6.2.1\libgcc.a(_clzdi2.o)
 .debug_abbrev  0x00005bef      0x184 c:/program files/microchip/xc32/v2.40/bin/bin/../../lib/gcc/pic32c/6.2.1/../../../../pic32c/lib\libc_nano.a(lib_a-atof.o)
 .debug_abbrev  0x00005d73      0x196 c:/program files/microchip/xc32/v2.40/bin/bin/../../lib/gcc/pic32c/6.2.1/../../../../pic32c/lib\libc_nano.a(lib_a-atoi.o)
 .debug_abbrev  0x00005f09       0xa3 c:/program files/microchip/xc32/v2.40/bin/bin/../../lib/gcc/pic32c/6.2.1/../../../../pic32c/lib\libc_nano.a(lib_a-init.o)
 .debug_abbrev  0x00005fac      0x16d c:/program files/microchip/xc32/v2.40/bin/bin/../../lib/gcc/pic32c/6.2.1/../../../../pic32c/lib\libc_nano.a(lib_a-memcmp.o)
 .debug_abbrev  0x00006119      0x17c c:/program files/microchip/xc32/v2.40/bin/bin/../../lib/gcc/pic32c/6.2.1/../../../../pic32c/lib\libc_nano.a(lib_a-memcpy-stub.o)
 .debug_abbrev  0x00006295      0x170 c:/program files/microchip/xc32/v2.40/bin/bin/../../lib/gcc/pic32c/6.2.1/../../../../pic32c/lib\libc_nano.a(lib_a-memset.o)
 .debug_abbrev  0x00006405      0x1a5 c:/program files/microchip/xc32/v2.40/bin/bin/../../lib/gcc/pic32c/6.2.1/../../../../pic32c/lib\libc_nano.a(_lib_a-sprintf.cdfFgGnopsuxX.o)
 .debug_abbrev  0x000065aa      0x157 c:/program files/microchip/xc32/v2.40/bin/bin/../../lib/gcc/pic32c/6.2.1/../../../../pic32c/lib\libc_nano.a(lib_a-strcat.o)
 .debug_abbrev  0x00006701       0x14 c:/program files/microchip/xc32/v2.40/bin/bin/../../lib/gcc/pic32c/6.2.1/../../../../pic32c/lib\libc_nano.a(lib_a-strlen.o)
 .debug_abbrev  0x00006715      0x15e c:/program files/microchip/xc32/v2.40/bin/bin/../../lib/gcc/pic32c/6.2.1/../../../../pic32c/lib\libc_nano.a(lib_a-strstr.o)
 .debug_abbrev  0x00006873      0x31e c:/program files/microchip/xc32/v2.40/bin/bin/../../lib/gcc/pic32c/6.2.1/../../../../pic32c/lib\libc_nano.a(lib_a-strtod.o)
 .debug_abbrev  0x00006b91      0x220 c:/program files/microchip/xc32/v2.40/bin/bin/../../lib/gcc/pic32c/6.2.1/../../../../pic32c/lib\libc_nano.a(lib_a-strtol.o)
 .debug_abbrev  0x00006db1      0x2df c:/program files/microchip/xc32/v2.40/bin/bin/../../lib/gcc/pic32c/6.2.1/../../../../pic32c/lib\libc_nano.a(lib_a-gdtoa-gethex.o)
 .debug_abbrev  0x00007090      0x206 c:/program files/microchip/xc32/v2.40/bin/bin/../../lib/gcc/pic32c/6.2.1/../../../../pic32c/lib\libc_nano.a(lib_a-gdtoa-hexnan.o)
 .debug_abbrev  0x00007296      0x131 c:/program files/microchip/xc32/v2.40/bin/bin/../../lib/gcc/pic32c/6.2.1/../../../../pic32c/lib\libc_nano.a(lib_a-impure.o)
 .debug_abbrev  0x000073c7      0x1fc c:/program files/microchip/xc32/v2.40/bin/bin/../../lib/gcc/pic32c/6.2.1/../../../../pic32c/lib\libc_nano.a(lib_a-localeconv.o)
 .debug_abbrev  0x000075c3      0x264 c:/program files/microchip/xc32/v2.40/bin/bin/../../lib/gcc/pic32c/6.2.1/../../../../pic32c/lib\libc_nano.a(lib_a-locale.o)
 .debug_abbrev  0x00007827      0x1cd c:/program files/microchip/xc32/v2.40/bin/bin/../../lib/gcc/pic32c/6.2.1/../../../../pic32c/lib\libc_nano.a(lib_a-mbtowc_r.o)
 .debug_abbrev  0x000079f4      0x31e c:/program files/microchip/xc32/v2.40/bin/bin/../../lib/gcc/pic32c/6.2.1/../../../../pic32c/lib\libc_nano.a(lib_a-mprec.o)
 .debug_abbrev  0x00007d12      0x1b9 c:/program files/microchip/xc32/v2.40/bin/bin/../../lib/gcc/pic32c/6.2.1/../../../../pic32c/lib\libc_nano.a(lib_a-nano-callocr.o)
 .debug_abbrev  0x00007ecb      0x286 c:/program files/microchip/xc32/v2.40/bin/bin/../../lib/gcc/pic32c/6.2.1/../../../../pic32c/lib\libc_nano.a(lib_a-nano-mallocr.o)
 .debug_abbrev  0x00008151      0x3c3 c:/program files/microchip/xc32/v2.40/bin/bin/../../lib/gcc/pic32c/6.2.1/../../../../pic32c/lib\libc_nano.a(_lib_a-nano-vfprintf.cdfFgGnopsuxX.o)
 .debug_abbrev  0x00008514      0x25f c:/program files/microchip/xc32/v2.40/bin/bin/../../lib/gcc/pic32c/6.2.1/../../../../pic32c/lib\libc_nano.a(lib_a-nano-vfprintf_i.o)
 .debug_abbrev  0x00008773      0x1a8 c:/program files/microchip/xc32/v2.40/bin/bin/../../lib/gcc/pic32c/6.2.1/../../../../pic32c/lib\libc_nano.a(lib_a-sbrkr.o)
 .debug_abbrev  0x0000891b      0x1f6 c:/program files/microchip/xc32/v2.40/bin/bin/../../lib/gcc/pic32c/6.2.1/../../../../pic32c/lib\libc_nano.a(lib_a-__ssfputs.o)
 .debug_abbrev  0x00008b11      0x148 c:/program files/microchip/xc32/v2.40/bin/bin/../../lib/gcc/pic32c/6.2.1/../../../../pic32c/lib\libc_nano.a(lib_a-strncmp.o)
 .debug_abbrev  0x00008c59      0x208 c:/program files/microchip/xc32/v2.40/bin/bin/../../lib/gcc/pic32c/6.2.1/../../../../pic32c/lib\libc_nano.a(lib_a-wbuf.o)
 .debug_abbrev  0x00008e61      0x1ce c:/program files/microchip/xc32/v2.40/bin/bin/../../lib/gcc/pic32c/6.2.1/../../../../pic32c/lib\libc_nano.a(lib_a-wctomb_r.o)
 .debug_abbrev  0x0000902f      0x1ec c:/program files/microchip/xc32/v2.40/bin/bin/../../lib/gcc/pic32c/6.2.1/../../../../pic32c/lib\libc_nano.a(lib_a-wsetup.o)
 .debug_abbrev  0x0000921b      0x131 c:/program files/microchip/xc32/v2.40/bin/bin/../../lib/gcc/pic32c/6.2.1/../../../../pic32c/lib\libc_nano.a(lib_a-ctype_.o)
 .debug_abbrev  0x0000934c      0x265 c:/program files/microchip/xc32/v2.40/bin/bin/../../lib/gcc/pic32c/6.2.1/../../../../pic32c/lib\libc_nano.a(lib_a-dtoa.o)
 .debug_abbrev  0x000095b1      0x263 c:/program files/microchip/xc32/v2.40/bin/bin/../../lib/gcc/pic32c/6.2.1/../../../../pic32c/lib\libc_nano.a(lib_a-fflush.o)
 .debug_abbrev  0x00009814      0x295 c:/program files/microchip/xc32/v2.40/bin/bin/../../lib/gcc/pic32c/6.2.1/../../../../pic32c/lib\libc_nano.a(lib_a-findfp.o)
 .debug_abbrev  0x00009aa9      0x233 c:/program files/microchip/xc32/v2.40/bin/bin/../../lib/gcc/pic32c/6.2.1/../../../../pic32c/lib\libc_nano.a(lib_a-fputwc.o)
 .debug_abbrev  0x00009cdc      0x1b0 c:/program files/microchip/xc32/v2.40/bin/bin/../../lib/gcc/pic32c/6.2.1/../../../../pic32c/lib\libc_nano.a(lib_a-fwalk.o)
 .debug_abbrev  0x00009e8c      0x268 c:/program files/microchip/xc32/v2.40/bin/bin/../../lib/gcc/pic32c/6.2.1/../../../../pic32c/lib\libc_nano.a(lib_a-makebuf.o)
 .debug_abbrev  0x0000a0f4      0x1b0 c:/program files/microchip/xc32/v2.40/bin/bin/../../lib/gcc/pic32c/6.2.1/../../../../pic32c/lib\libc_nano.a(lib_a-malloc.o)
 .debug_abbrev  0x0000a2a4      0x16d c:/program files/microchip/xc32/v2.40/bin/bin/../../lib/gcc/pic32c/6.2.1/../../../../pic32c/lib\libc_nano.a(lib_a-memchr-stub.o)
 .debug_abbrev  0x0000a411      0x165 c:/program files/microchip/xc32/v2.40/bin/bin/../../lib/gcc/pic32c/6.2.1/../../../../pic32c/lib\libc_nano.a(lib_a-mlock.o)
 .debug_abbrev  0x0000a576      0x24f c:/program files/microchip/xc32/v2.40/bin/bin/../../lib/gcc/pic32c/6.2.1/../../../../pic32c/lib\libc_nano.a(lib_a-nano-freer.o)
 .debug_abbrev  0x0000a7c5      0x1ea c:/program files/microchip/xc32/v2.40/bin/bin/../../lib/gcc/pic32c/6.2.1/../../../../pic32c/lib\libc_nano.a(lib_a-reent.o)
 .debug_abbrev  0x0000a9af      0x224 c:/program files/microchip/xc32/v2.40/bin/bin/../../lib/gcc/pic32c/6.2.1/../../../../pic32c/lib\libc_nano.a(lib_a-stdio.o)
 .debug_abbrev  0x0000abd3      0x1d5 c:/program files/microchip/xc32/v2.40/bin/bin/../../lib/gcc/pic32c/6.2.1/../../../../pic32c/lib\libc_nano.a(lib_a-wcrtomb.o)
 .debug_abbrev  0x0000ada8      0x198 c:/program files/microchip/xc32/v2.40/bin/bin/../../lib/gcc/pic32c/6.2.1/../../../../pic32c/lib\libc_nano.a(lib_a-writer.o)
 .debug_abbrev  0x0000af40      0x193 c:/program files/microchip/xc32/v2.40/bin/bin/../../lib/gcc/pic32c/6.2.1/../../../../pic32c/lib\libc_nano.a(lib_a-closer.o)
 .debug_abbrev  0x0000b0d3      0x193 c:/program files/microchip/xc32/v2.40/bin/bin/../../lib/gcc/pic32c/6.2.1/../../../../pic32c/lib\libc_nano.a(lib_a-fstatr.o)
 .debug_abbrev  0x0000b266      0x193 c:/program files/microchip/xc32/v2.40/bin/bin/../../lib/gcc/pic32c/6.2.1/../../../../pic32c/lib\libc_nano.a(lib_a-isattyr.o)
 .debug_abbrev  0x0000b3f9      0x193 c:/program files/microchip/xc32/v2.40/bin/bin/../../lib/gcc/pic32c/6.2.1/../../../../pic32c/lib\libc_nano.a(lib_a-lseekr.o)
 .debug_abbrev  0x0000b58c      0x193 c:/program files/microchip/xc32/v2.40/bin/bin/../../lib/gcc/pic32c/6.2.1/../../../../pic32c/lib\libc_nano.a(lib_a-readr.o)
 .debug_abbrev  0x0000b71f       0x2a c:/program files/microchip/xc32/v2.40/bin/bin/../../lib/gcc/pic32c/6.2.1/../../../../pic32c/lib\libpic32c.a(_close.o)
 .debug_abbrev  0x0000b749       0x2a c:/program files/microchip/xc32/v2.40/bin/bin/../../lib/gcc/pic32c/6.2.1/../../../../pic32c/lib\libpic32c.a(_fstat.o)
 .debug_abbrev  0x0000b773       0x2a c:/program files/microchip/xc32/v2.40/bin/bin/../../lib/gcc/pic32c/6.2.1/../../../../pic32c/lib\libpic32c.a(_isatty.o)
 .debug_abbrev  0x0000b79d       0x2a c:/program files/microchip/xc32/v2.40/bin/bin/../../lib/gcc/pic32c/6.2.1/../../../../pic32c/lib\libpic32c.a(_lseek.o)
 .debug_abbrev  0x0000b7c7       0x2a c:/program files/microchip/xc32/v2.40/bin/bin/../../lib/gcc/pic32c/6.2.1/../../../../pic32c/lib\libpic32c.a(_read.o)
 .debug_abbrev  0x0000b7f1       0x2a c:/program files/microchip/xc32/v2.40/bin/bin/../../lib/gcc/pic32c/6.2.1/../../../../pic32c/lib\libpic32c.a(sbrk.o)
 .debug_abbrev  0x0000b81b       0x2a c:/program files/microchip/xc32/v2.40/bin/bin/../../lib/gcc/pic32c/6.2.1/../../../../pic32c/lib\libpic32c.a(_write.o)
 .debug_abbrev  0x0000b845       0x2a c:/program files/microchip/xc32/v2.40/bin/bin/../../lib/gcc/pic32c/6.2.1/../../../../pic32c/lib\libpic32c.a(close.o)
 .debug_abbrev  0x0000b86f       0x2a c:/program files/microchip/xc32/v2.40/bin/bin/../../lib/gcc/pic32c/6.2.1/../../../../pic32c/lib\libpic32c.a(fstat.o)
 .debug_abbrev  0x0000b899       0x2a c:/program files/microchip/xc32/v2.40/bin/bin/../../lib/gcc/pic32c/6.2.1/../../../../pic32c/lib\libpic32c.a(isatty.o)
 .debug_abbrev  0x0000b8c3       0x2a c:/program files/microchip/xc32/v2.40/bin/bin/../../lib/gcc/pic32c/6.2.1/../../../../pic32c/lib\libpic32c.a(lseek.o)
 .debug_abbrev  0x0000b8ed       0x14 c:/program files/microchip/xc32/v2.40/bin/bin/../../lib/gcc/pic32c/6.2.1\libgcc.a(_divsi3.o)
 .debug_abbrev  0x0000b901       0x14 c:/program files/microchip/xc32/v2.40/bin/bin/../../lib/gcc/pic32c/6.2.1\libgcc.a(_arm_cmpdf2.o)
 .debug_abbrev  0x0000b915      0x11b c:/program files/microchip/xc32/v2.40/bin/bin/../../lib/gcc/pic32c/6.2.1\libgcc.a(_fixunsdfsi.o)
 .debug_abbrev  0x0000ba30      0x150 c:/program files/microchip/xc32/v2.40/bin/bin/../../lib/gcc/pic32c/6.2.1\libgcc.a(adddf3.o)
 .debug_abbrev  0x0000bb80      0x143 c:/program files/microchip/xc32/v2.40/bin/bin/../../lib/gcc/pic32c/6.2.1\libgcc.a(divdf3.o)
 .debug_abbrev  0x0000bcc3      0x128 c:/program files/microchip/xc32/v2.40/bin/bin/../../lib/gcc/pic32c/6.2.1\libgcc.a(eqdf2.o)
 .debug_abbrev  0x0000bdeb      0x135 c:/program files/microchip/xc32/v2.40/bin/bin/../../lib/gcc/pic32c/6.2.1\libgcc.a(gedf2.o)
 .debug_abbrev  0x0000bf20      0x12a c:/program files/microchip/xc32/v2.40/bin/bin/../../lib/gcc/pic32c/6.2.1\libgcc.a(ledf2.o)
 .debug_abbrev  0x0000c04a      0x150 c:/program files/microchip/xc32/v2.40/bin/bin/../../lib/gcc/pic32c/6.2.1\libgcc.a(subdf3.o)
 .debug_abbrev  0x0000c19a      0x119 c:/program files/microchip/xc32/v2.40/bin/bin/../../lib/gcc/pic32c/6.2.1\libgcc.a(unorddf2.o)
 .debug_abbrev  0x0000c2b3      0x12c c:/program files/microchip/xc32/v2.40/bin/bin/../../lib/gcc/pic32c/6.2.1\libgcc.a(fixdfsi.o)
 .debug_abbrev  0x0000c3df      0x118 c:/program files/microchip/xc32/v2.40/bin/bin/../../lib/gcc/pic32c/6.2.1\libgcc.a(floatunsidf.o)

.debug_loc      0x00000000    0x1b731
 .debug_loc     0x00000000      0x170 build/sam_c21n_xpro/production/_ext/1360937237/appiot.o
 .debug_loc     0x00000170      0x41c build/sam_c21n_xpro/production/_ext/1360937237/moden.o
 .debug_loc     0x0000058c      0xdd8 build/sam_c21n_xpro/production/_ext/1360937237/canapp.o
 .debug_loc     0x00001364      0x157 build/sam_c21n_xpro/production/_ext/1360937237/appuart.o
 .debug_loc     0x000014bb       0x20 build/sam_c21n_xpro/production/_ext/1360937237/apptimer.o
 .debug_loc     0x000014db      0x198 build/sam_c21n_xpro/production/_ext/1360937237/app_uart_debug.o
 .debug_loc     0x00001673      0x75f build/sam_c21n_xpro/production/_ext/1936826263/drv_at24.o
 .debug_loc     0x00001dd2      0xf89 build/sam_c21n_xpro/production/_ext/1274584173/drv_usart.o
 .debug_loc     0x00002d5b     0x14de build/sam_c21n_xpro/production/_ext/1019481632/emulated_eeprom.o
 .debug_loc     0x00004239      0x10a build/sam_c21n_xpro/production/_ext/1617700295/plib_adc0.o
 .debug_loc     0x00004343      0xdca build/sam_c21n_xpro/production/_ext/1617702135/plib_can0.o
 .debug_loc     0x0000510d       0x3f build/sam_c21n_xpro/production/_ext/166077579/plib_clock.o
 .debug_loc     0x0000514c       0xe1 build/sam_c21n_xpro/production/_ext/1617704294/plib_eic.o
 .debug_loc     0x0000522d      0x14f build/sam_c21n_xpro/production/_ext/1390493541/plib_nvic.o
 .debug_loc     0x0000537c      0x53c build/sam_c21n_xpro/production/_ext/770299191/plib_nvmctrl.o
 .debug_loc     0x000058b8      0x1ee build/sam_c21n_xpro/production/_ext/1390440390/plib_port.o
 .debug_loc     0x00005aa6      0x938 build/sam_c21n_xpro/production/_ext/1451668420/plib_sercom2_i2c_master.o
 .debug_loc     0x000063de      0xadb build/sam_c21n_xpro/production/_ext/1993392304/plib_sercom1_usart.o
 .debug_loc     0x00006eb9      0xadb build/sam_c21n_xpro/production/_ext/1993392304/plib_sercom0_usart.o
 .debug_loc     0x00007994      0x3aa build/sam_c21n_xpro/production/_ext/1004774289/plib_systick.o
 .debug_loc     0x00007d3e       0x21 build/sam_c21n_xpro/production/_ext/1617721454/plib_wdt.o
 .debug_loc     0x00007d5f       0x42 build/sam_c21n_xpro/production/_ext/730014449/xc32_monitor.o
 .debug_loc     0x00007da1      0x15b build/sam_c21n_xpro/production/_ext/855761890/sys_int.o
 .debug_loc     0x00007efc       0x41 build/sam_c21n_xpro/production/_ext/1758384875/initialization.o
 .debug_loc     0x00007f3d       0x20 build/sam_c21n_xpro/production/_ext/1758384875/startup_xc32.o
 .debug_loc     0x00007f5d       0xc1 build/sam_c21n_xpro/production/_ext/1360937237/main.o
 .debug_loc     0x0000801e       0x14 build/sam_c21n_xpro/production/_ext/1360937237/app.o
 .debug_loc     0x00008032       0x14 c:/program files/microchip/xc32/v2.40/bin/bin/../../lib/gcc/pic32c/6.2.1/../../../../pic32c/lib\libpic32c.a(data_init.o)
 .debug_loc     0x00008046      0x164 c:/program files/microchip/xc32/v2.40/bin/bin/../../lib/gcc/pic32c/6.2.1\libgcc.a(_muldi3.o)
 .debug_loc     0x000081aa      0x29d c:/program files/microchip/xc32/v2.40/bin/bin/../../lib/gcc/pic32c/6.2.1\libgcc.a(_udivmoddi4.o)
 .debug_loc     0x00008447      0xb1f c:/program files/microchip/xc32/v2.40/bin/bin/../../lib/gcc/pic32c/6.2.1\libgcc.a(addsf3.o)
 .debug_loc     0x00008f66      0x6a6 c:/program files/microchip/xc32/v2.40/bin/bin/../../lib/gcc/pic32c/6.2.1\libgcc.a(divsf3.o)
 .debug_loc     0x0000960c      0x791 c:/program files/microchip/xc32/v2.40/bin/bin/../../lib/gcc/pic32c/6.2.1\libgcc.a(mulsf3.o)
 .debug_loc     0x00009d9d      0xb1b c:/program files/microchip/xc32/v2.40/bin/bin/../../lib/gcc/pic32c/6.2.1\libgcc.a(subsf3.o)
 .debug_loc     0x0000a8b8       0xe7 c:/program files/microchip/xc32/v2.40/bin/bin/../../lib/gcc/pic32c/6.2.1\libgcc.a(fixsfsi.o)
 .debug_loc     0x0000a99f      0x180 c:/program files/microchip/xc32/v2.40/bin/bin/../../lib/gcc/pic32c/6.2.1\libgcc.a(floatsisf.o)
 .debug_loc     0x0000ab1f      0x150 c:/program files/microchip/xc32/v2.40/bin/bin/../../lib/gcc/pic32c/6.2.1\libgcc.a(floatunsisf.o)
 .debug_loc     0x0000ac6f      0xfde c:/program files/microchip/xc32/v2.40/bin/bin/../../lib/gcc/pic32c/6.2.1\libgcc.a(muldf3.o)
 .debug_loc     0x0000bc4d      0x1c1 c:/program files/microchip/xc32/v2.40/bin/bin/../../lib/gcc/pic32c/6.2.1\libgcc.a(floatsidf.o)
 .debug_loc     0x0000be0e      0x260 c:/program files/microchip/xc32/v2.40/bin/bin/../../lib/gcc/pic32c/6.2.1\libgcc.a(extendsfdf2.o)
 .debug_loc     0x0000c06e      0x2e6 c:/program files/microchip/xc32/v2.40/bin/bin/../../lib/gcc/pic32c/6.2.1\libgcc.a(truncdfsf2.o)
 .debug_loc     0x0000c354       0x41 c:/program files/microchip/xc32/v2.40/bin/bin/../../lib/gcc/pic32c/6.2.1/../../../../pic32c/lib\libc_nano.a(lib_a-atof.o)
 .debug_loc     0x0000c395       0xa3 c:/program files/microchip/xc32/v2.40/bin/bin/../../lib/gcc/pic32c/6.2.1/../../../../pic32c/lib\libc_nano.a(lib_a-atoi.o)
 .debug_loc     0x0000c438       0x72 c:/program files/microchip/xc32/v2.40/bin/bin/../../lib/gcc/pic32c/6.2.1/../../../../pic32c/lib\libc_nano.a(lib_a-init.o)
 .debug_loc     0x0000c4aa      0x158 c:/program files/microchip/xc32/v2.40/bin/bin/../../lib/gcc/pic32c/6.2.1/../../../../pic32c/lib\libc_nano.a(lib_a-memcmp.o)
 .debug_loc     0x0000c602       0xde c:/program files/microchip/xc32/v2.40/bin/bin/../../lib/gcc/pic32c/6.2.1/../../../../pic32c/lib\libc_nano.a(lib_a-memcpy-stub.o)
 .debug_loc     0x0000c6e0       0x72 c:/program files/microchip/xc32/v2.40/bin/bin/../../lib/gcc/pic32c/6.2.1/../../../../pic32c/lib\libc_nano.a(lib_a-memset.o)
 .debug_loc     0x0000c752       0x73 c:/program files/microchip/xc32/v2.40/bin/bin/../../lib/gcc/pic32c/6.2.1/../../../../pic32c/lib\libc_nano.a(_lib_a-sprintf.cdfFgGnopsuxX.o)
 .debug_loc     0x0000c7c5       0xab c:/program files/microchip/xc32/v2.40/bin/bin/../../lib/gcc/pic32c/6.2.1/../../../../pic32c/lib\libc_nano.a(lib_a-strcat.o)
 .debug_loc     0x0000c870       0x96 c:/program files/microchip/xc32/v2.40/bin/bin/../../lib/gcc/pic32c/6.2.1/../../../../pic32c/lib\libc_nano.a(lib_a-strstr.o)
 .debug_loc     0x0000c906     0x1afc c:/program files/microchip/xc32/v2.40/bin/bin/../../lib/gcc/pic32c/6.2.1/../../../../pic32c/lib\libc_nano.a(lib_a-strtod.o)
 .debug_loc     0x0000e402      0x4d5 c:/program files/microchip/xc32/v2.40/bin/bin/../../lib/gcc/pic32c/6.2.1/../../../../pic32c/lib\libc_nano.a(lib_a-strtol.o)
 .debug_loc     0x0000e8d7      0xdaa c:/program files/microchip/xc32/v2.40/bin/bin/../../lib/gcc/pic32c/6.2.1/../../../../pic32c/lib\libc_nano.a(lib_a-gdtoa-gethex.o)
 .debug_loc     0x0000f681      0x4c0 c:/program files/microchip/xc32/v2.40/bin/bin/../../lib/gcc/pic32c/6.2.1/../../../../pic32c/lib\libc_nano.a(lib_a-gdtoa-hexnan.o)
 .debug_loc     0x0000fb41       0x63 c:/program files/microchip/xc32/v2.40/bin/bin/../../lib/gcc/pic32c/6.2.1/../../../../pic32c/lib\libc_nano.a(lib_a-localeconv.o)
 .debug_loc     0x0000fba4      0x174 c:/program files/microchip/xc32/v2.40/bin/bin/../../lib/gcc/pic32c/6.2.1/../../../../pic32c/lib\libc_nano.a(lib_a-locale.o)
 .debug_loc     0x0000fd18      0x19a c:/program files/microchip/xc32/v2.40/bin/bin/../../lib/gcc/pic32c/6.2.1/../../../../pic32c/lib\libc_nano.a(lib_a-mbtowc_r.o)
 .debug_loc     0x0000feb2     0x1e16 c:/program files/microchip/xc32/v2.40/bin/bin/../../lib/gcc/pic32c/6.2.1/../../../../pic32c/lib\libc_nano.a(lib_a-mprec.o)
 .debug_loc     0x00011cc8       0xac c:/program files/microchip/xc32/v2.40/bin/bin/../../lib/gcc/pic32c/6.2.1/../../../../pic32c/lib\libc_nano.a(lib_a-nano-callocr.o)
 .debug_loc     0x00011d74      0x242 c:/program files/microchip/xc32/v2.40/bin/bin/../../lib/gcc/pic32c/6.2.1/../../../../pic32c/lib\libc_nano.a(lib_a-nano-mallocr.o)
 .debug_loc     0x00011fb6      0xe69 c:/program files/microchip/xc32/v2.40/bin/bin/../../lib/gcc/pic32c/6.2.1/../../../../pic32c/lib\libc_nano.a(_lib_a-nano-vfprintf.cdfFgGnopsuxX.o)
 .debug_loc     0x00012e1f      0x66f c:/program files/microchip/xc32/v2.40/bin/bin/../../lib/gcc/pic32c/6.2.1/../../../../pic32c/lib\libc_nano.a(lib_a-nano-vfprintf_i.o)
 .debug_loc     0x0001348e       0x6d c:/program files/microchip/xc32/v2.40/bin/bin/../../lib/gcc/pic32c/6.2.1/../../../../pic32c/lib\libc_nano.a(lib_a-sbrkr.o)
 .debug_loc     0x000134fb      0x1da c:/program files/microchip/xc32/v2.40/bin/bin/../../lib/gcc/pic32c/6.2.1/../../../../pic32c/lib\libc_nano.a(lib_a-__ssfputs.o)
 .debug_loc     0x000136d5       0xbf c:/program files/microchip/xc32/v2.40/bin/bin/../../lib/gcc/pic32c/6.2.1/../../../../pic32c/lib\libc_nano.a(lib_a-strncmp.o)
 .debug_loc     0x00013794      0x194 c:/program files/microchip/xc32/v2.40/bin/bin/../../lib/gcc/pic32c/6.2.1/../../../../pic32c/lib\libc_nano.a(lib_a-wbuf.o)
 .debug_loc     0x00013928       0xf1 c:/program files/microchip/xc32/v2.40/bin/bin/../../lib/gcc/pic32c/6.2.1/../../../../pic32c/lib\libc_nano.a(lib_a-wctomb_r.o)
 .debug_loc     0x00013a19       0x9e c:/program files/microchip/xc32/v2.40/bin/bin/../../lib/gcc/pic32c/6.2.1/../../../../pic32c/lib\libc_nano.a(lib_a-wsetup.o)
 .debug_loc     0x00013ab7     0x1c81 c:/program files/microchip/xc32/v2.40/bin/bin/../../lib/gcc/pic32c/6.2.1/../../../../pic32c/lib\libc_nano.a(lib_a-dtoa.o)
 .debug_loc     0x00015738      0x30b c:/program files/microchip/xc32/v2.40/bin/bin/../../lib/gcc/pic32c/6.2.1/../../../../pic32c/lib\libc_nano.a(lib_a-fflush.o)
 .debug_loc     0x00015a43      0x2b8 c:/program files/microchip/xc32/v2.40/bin/bin/../../lib/gcc/pic32c/6.2.1/../../../../pic32c/lib\libc_nano.a(lib_a-findfp.o)
 .debug_loc     0x00015cfb      0x2ac c:/program files/microchip/xc32/v2.40/bin/bin/../../lib/gcc/pic32c/6.2.1/../../../../pic32c/lib\libc_nano.a(lib_a-fputwc.o)
 .debug_loc     0x00015fa7      0x1d9 c:/program files/microchip/xc32/v2.40/bin/bin/../../lib/gcc/pic32c/6.2.1/../../../../pic32c/lib\libc_nano.a(lib_a-fwalk.o)
 .debug_loc     0x00016180      0x260 c:/program files/microchip/xc32/v2.40/bin/bin/../../lib/gcc/pic32c/6.2.1/../../../../pic32c/lib\libc_nano.a(lib_a-makebuf.o)
 .debug_loc     0x000163e0       0x98 c:/program files/microchip/xc32/v2.40/bin/bin/../../lib/gcc/pic32c/6.2.1/../../../../pic32c/lib\libc_nano.a(lib_a-malloc.o)
 .debug_loc     0x00016478       0xb4 c:/program files/microchip/xc32/v2.40/bin/bin/../../lib/gcc/pic32c/6.2.1/../../../../pic32c/lib\libc_nano.a(lib_a-memchr-stub.o)
 .debug_loc     0x0001652c      0x108 c:/program files/microchip/xc32/v2.40/bin/bin/../../lib/gcc/pic32c/6.2.1/../../../../pic32c/lib\libc_nano.a(lib_a-nano-freer.o)
 .debug_loc     0x00016634      0x10b c:/program files/microchip/xc32/v2.40/bin/bin/../../lib/gcc/pic32c/6.2.1/../../../../pic32c/lib\libc_nano.a(lib_a-reent.o)
 .debug_loc     0x0001673f      0x382 c:/program files/microchip/xc32/v2.40/bin/bin/../../lib/gcc/pic32c/6.2.1/../../../../pic32c/lib\libc_nano.a(lib_a-stdio.o)
 .debug_loc     0x00016ac1      0x1cb c:/program files/microchip/xc32/v2.40/bin/bin/../../lib/gcc/pic32c/6.2.1/../../../../pic32c/lib\libc_nano.a(lib_a-wcrtomb.o)
 .debug_loc     0x00016c8c       0xc5 c:/program files/microchip/xc32/v2.40/bin/bin/../../lib/gcc/pic32c/6.2.1/../../../../pic32c/lib\libc_nano.a(lib_a-writer.o)
 .debug_loc     0x00016d51       0x6d c:/program files/microchip/xc32/v2.40/bin/bin/../../lib/gcc/pic32c/6.2.1/../../../../pic32c/lib\libc_nano.a(lib_a-closer.o)
 .debug_loc     0x00016dbe       0x99 c:/program files/microchip/xc32/v2.40/bin/bin/../../lib/gcc/pic32c/6.2.1/../../../../pic32c/lib\libc_nano.a(lib_a-fstatr.o)
 .debug_loc     0x00016e57       0x6d c:/program files/microchip/xc32/v2.40/bin/bin/../../lib/gcc/pic32c/6.2.1/../../../../pic32c/lib\libc_nano.a(lib_a-isattyr.o)
 .debug_loc     0x00016ec4       0xc5 c:/program files/microchip/xc32/v2.40/bin/bin/../../lib/gcc/pic32c/6.2.1/../../../../pic32c/lib\libc_nano.a(lib_a-lseekr.o)
 .debug_loc     0x00016f89       0xc5 c:/program files/microchip/xc32/v2.40/bin/bin/../../lib/gcc/pic32c/6.2.1/../../../../pic32c/lib\libc_nano.a(lib_a-readr.o)
 .debug_loc     0x0001704e       0x14 c:/program files/microchip/xc32/v2.40/bin/bin/../../lib/gcc/pic32c/6.2.1/../../../../pic32c/lib\libpic32c.a(_close.o)
 .debug_loc     0x00017062       0x14 c:/program files/microchip/xc32/v2.40/bin/bin/../../lib/gcc/pic32c/6.2.1/../../../../pic32c/lib\libpic32c.a(_fstat.o)
 .debug_loc     0x00017076       0x14 c:/program files/microchip/xc32/v2.40/bin/bin/../../lib/gcc/pic32c/6.2.1/../../../../pic32c/lib\libpic32c.a(_isatty.o)
 .debug_loc     0x0001708a       0x14 c:/program files/microchip/xc32/v2.40/bin/bin/../../lib/gcc/pic32c/6.2.1/../../../../pic32c/lib\libpic32c.a(_lseek.o)
 .debug_loc     0x0001709e       0x14 c:/program files/microchip/xc32/v2.40/bin/bin/../../lib/gcc/pic32c/6.2.1/../../../../pic32c/lib\libpic32c.a(_read.o)
 .debug_loc     0x000170b2       0x14 c:/program files/microchip/xc32/v2.40/bin/bin/../../lib/gcc/pic32c/6.2.1/../../../../pic32c/lib\libpic32c.a(_write.o)
 .debug_loc     0x000170c6       0x49 c:/program files/microchip/xc32/v2.40/bin/bin/../../lib/gcc/pic32c/6.2.1\libgcc.a(_fixunsdfsi.o)
 .debug_loc     0x0001710f     0x147e c:/program files/microchip/xc32/v2.40/bin/bin/../../lib/gcc/pic32c/6.2.1\libgcc.a(adddf3.o)
 .debug_loc     0x0001858d     0x1513 c:/program files/microchip/xc32/v2.40/bin/bin/../../lib/gcc/pic32c/6.2.1\libgcc.a(divdf3.o)
 .debug_loc     0x00019aa0      0x120 c:/program files/microchip/xc32/v2.40/bin/bin/../../lib/gcc/pic32c/6.2.1\libgcc.a(eqdf2.o)
 .debug_loc     0x00019bc0      0x26c c:/program files/microchip/xc32/v2.40/bin/bin/../../lib/gcc/pic32c/6.2.1\libgcc.a(gedf2.o)
 .debug_loc     0x00019e2c      0x1d5 c:/program files/microchip/xc32/v2.40/bin/bin/../../lib/gcc/pic32c/6.2.1\libgcc.a(ledf2.o)
 .debug_loc     0x0001a001     0x1362 c:/program files/microchip/xc32/v2.40/bin/bin/../../lib/gcc/pic32c/6.2.1\libgcc.a(subdf3.o)
 .debug_loc     0x0001b363       0xbe c:/program files/microchip/xc32/v2.40/bin/bin/../../lib/gcc/pic32c/6.2.1\libgcc.a(unorddf2.o)
 .debug_loc     0x0001b421      0x131 c:/program files/microchip/xc32/v2.40/bin/bin/../../lib/gcc/pic32c/6.2.1\libgcc.a(fixdfsi.o)
 .debug_loc     0x0001b552      0x1df c:/program files/microchip/xc32/v2.40/bin/bin/../../lib/gcc/pic32c/6.2.1\libgcc.a(floatunsidf.o)

.debug_aranges  0x00000000     0x19b8
 .debug_aranges
                0x00000000       0x70 build/sam_c21n_xpro/production/_ext/1360937237/appiot.o
 .debug_aranges
                0x00000070       0x58 build/sam_c21n_xpro/production/_ext/1360937237/moden.o
 .debug_aranges
                0x000000c8      0x150 build/sam_c21n_xpro/production/_ext/1360937237/canapp.o
 .debug_aranges
                0x00000218       0x30 build/sam_c21n_xpro/production/_ext/1360937237/appuart.o
 .debug_aranges
                0x00000248       0x60 build/sam_c21n_xpro/production/_ext/1360937237/appemueeprom.o
 .debug_aranges
                0x000002a8       0x30 build/sam_c21n_xpro/production/_ext/1360937237/apptimer.o
 .debug_aranges
                0x000002d8       0x38 build/sam_c21n_xpro/production/_ext/1360937237/app_uart_debug.o
 .debug_aranges
                0x00000310       0x80 build/sam_c21n_xpro/production/_ext/1936826263/drv_at24.o
 .debug_aranges
                0x00000390       0x70 build/sam_c21n_xpro/production/_ext/1274584173/drv_usart.o
 .debug_aranges
                0x00000400       0x98 build/sam_c21n_xpro/production/_ext/1019481632/emulated_eeprom.o
 .debug_aranges
                0x00000498       0x80 build/sam_c21n_xpro/production/_ext/1617700295/plib_adc0.o
 .debug_aranges
                0x00000518       0xb8 build/sam_c21n_xpro/production/_ext/1617702135/plib_can0.o
 .debug_aranges
                0x000005d0       0x20 build/sam_c21n_xpro/production/_ext/166077579/plib_clock.o
 .debug_aranges
                0x000005f0       0x40 build/sam_c21n_xpro/production/_ext/1617704294/plib_eic.o
 .debug_aranges
                0x00000630       0x20 build/sam_c21n_xpro/production/_ext/163928093/plib_evsys.o
 .debug_aranges
                0x00000650       0x38 build/sam_c21n_xpro/production/_ext/1390493541/plib_nvic.o
 .debug_aranges
                0x00000688       0xa0 build/sam_c21n_xpro/production/_ext/770299191/plib_nvmctrl.o
 .debug_aranges
                0x00000728       0x70 build/sam_c21n_xpro/production/_ext/1390440390/plib_port.o
 .debug_aranges
                0x00000798       0x70 build/sam_c21n_xpro/production/_ext/1451668420/plib_sercom2_i2c_master.o
 .debug_aranges
                0x00000808       0xc0 build/sam_c21n_xpro/production/_ext/1993392304/plib_sercom1_usart.o
 .debug_aranges
                0x000008c8       0xc0 build/sam_c21n_xpro/production/_ext/1993392304/plib_sercom0_usart.o
 .debug_aranges
                0x00000988       0x98 build/sam_c21n_xpro/production/_ext/1004774289/plib_systick.o
 .debug_aranges
                0x00000a20       0x68 build/sam_c21n_xpro/production/_ext/1617721454/plib_wdt.o
 .debug_aranges
                0x00000a88       0x28 build/sam_c21n_xpro/production/_ext/730014449/xc32_monitor.o
 .debug_aranges
                0x00000ab0       0x40 build/sam_c21n_xpro/production/_ext/855761890/sys_int.o
 .debug_aranges
                0x00000af0       0x20 build/sam_c21n_xpro/production/_ext/1758384875/initialization.o
 .debug_aranges
                0x00000b10       0x20 build/sam_c21n_xpro/production/_ext/1758384875/interrupts.o
 .debug_aranges
                0x00000b30       0x28 build/sam_c21n_xpro/production/_ext/1758384875/exceptions.o
 .debug_aranges
                0x00000b58       0x28 build/sam_c21n_xpro/production/_ext/1758384875/startup_xc32.o
 .debug_aranges
                0x00000b80       0x40 build/sam_c21n_xpro/production/_ext/1360937237/main.o
 .debug_aranges
                0x00000bc0       0x28 build/sam_c21n_xpro/production/_ext/1360937237/app.o
 .debug_aranges
                0x00000be8       0x20 c:/program files/microchip/xc32/v2.40/bin/bin/../../lib/gcc/pic32c/6.2.1/../../../../pic32c/lib\libpic32c.a(data_init.o)
 .debug_aranges
                0x00000c08       0x20 c:/program files/microchip/xc32/v2.40/bin/bin/../../lib/gcc/pic32c/6.2.1\libgcc.a(_udivsi3.o)
 .debug_aranges
                0x00000c28       0x20 c:/program files/microchip/xc32/v2.40/bin/bin/../../lib/gcc/pic32c/6.2.1\libgcc.a(_dvmd_tls.o)
 .debug_aranges
                0x00000c48       0x20 c:/program files/microchip/xc32/v2.40/bin/bin/../../lib/gcc/pic32c/6.2.1\libgcc.a(_aeabi_uldivmod.o)
 .debug_aranges
                0x00000c68       0x20 c:/program files/microchip/xc32/v2.40/bin/bin/../../lib/gcc/pic32c/6.2.1\libgcc.a(_muldi3.o)
 .debug_aranges
                0x00000c88       0x20 c:/program files/microchip/xc32/v2.40/bin/bin/../../lib/gcc/pic32c/6.2.1\libgcc.a(_udivmoddi4.o)
 .debug_aranges
                0x00000ca8       0x20 c:/program files/microchip/xc32/v2.40/bin/bin/../../lib/gcc/pic32c/6.2.1\libgcc.a(addsf3.o)
 .debug_aranges
                0x00000cc8       0x20 c:/program files/microchip/xc32/v2.40/bin/bin/../../lib/gcc/pic32c/6.2.1\libgcc.a(divsf3.o)
 .debug_aranges
                0x00000ce8       0x20 c:/program files/microchip/xc32/v2.40/bin/bin/../../lib/gcc/pic32c/6.2.1\libgcc.a(mulsf3.o)
 .debug_aranges
                0x00000d08       0x20 c:/program files/microchip/xc32/v2.40/bin/bin/../../lib/gcc/pic32c/6.2.1\libgcc.a(subsf3.o)
 .debug_aranges
                0x00000d28       0x20 c:/program files/microchip/xc32/v2.40/bin/bin/../../lib/gcc/pic32c/6.2.1\libgcc.a(fixsfsi.o)
 .debug_aranges
                0x00000d48       0x20 c:/program files/microchip/xc32/v2.40/bin/bin/../../lib/gcc/pic32c/6.2.1\libgcc.a(floatsisf.o)
 .debug_aranges
                0x00000d68       0x20 c:/program files/microchip/xc32/v2.40/bin/bin/../../lib/gcc/pic32c/6.2.1\libgcc.a(floatunsisf.o)
 .debug_aranges
                0x00000d88       0x20 c:/program files/microchip/xc32/v2.40/bin/bin/../../lib/gcc/pic32c/6.2.1\libgcc.a(muldf3.o)
 .debug_aranges
                0x00000da8       0x20 c:/program files/microchip/xc32/v2.40/bin/bin/../../lib/gcc/pic32c/6.2.1\libgcc.a(floatsidf.o)
 .debug_aranges
                0x00000dc8       0x20 c:/program files/microchip/xc32/v2.40/bin/bin/../../lib/gcc/pic32c/6.2.1\libgcc.a(extendsfdf2.o)
 .debug_aranges
                0x00000de8       0x20 c:/program files/microchip/xc32/v2.40/bin/bin/../../lib/gcc/pic32c/6.2.1\libgcc.a(truncdfsf2.o)
 .debug_aranges
                0x00000e08       0x20 c:/program files/microchip/xc32/v2.40/bin/bin/../../lib/gcc/pic32c/6.2.1\libgcc.a(_thumb1_case_uqi.o)
 .debug_aranges
                0x00000e28       0x20 c:/program files/microchip/xc32/v2.40/bin/bin/../../lib/gcc/pic32c/6.2.1\libgcc.a(_thumb1_case_uhi.o)
 .debug_aranges
                0x00000e48       0x20 c:/program files/microchip/xc32/v2.40/bin/bin/../../lib/gcc/pic32c/6.2.1\libgcc.a(_lshrdi3.o)
 .debug_aranges
                0x00000e68       0x20 c:/program files/microchip/xc32/v2.40/bin/bin/../../lib/gcc/pic32c/6.2.1\libgcc.a(_ashldi3.o)
 .debug_aranges
                0x00000e88       0x20 c:/program files/microchip/xc32/v2.40/bin/bin/../../lib/gcc/pic32c/6.2.1\libgcc.a(_clzsi2.o)
 .debug_aranges
                0x00000ea8       0x20 c:/program files/microchip/xc32/v2.40/bin/bin/../../lib/gcc/pic32c/6.2.1\libgcc.a(_clzdi2.o)
 .debug_aranges
                0x00000ec8       0x20 c:/program files/microchip/xc32/v2.40/bin/bin/../../lib/gcc/pic32c/6.2.1/../../../../pic32c/lib\libc_nano.a(lib_a-atof.o)
 .debug_aranges
                0x00000ee8       0x28 c:/program files/microchip/xc32/v2.40/bin/bin/../../lib/gcc/pic32c/6.2.1/../../../../pic32c/lib\libc_nano.a(lib_a-atoi.o)
 .debug_aranges
                0x00000f10       0x20 c:/program files/microchip/xc32/v2.40/bin/bin/../../lib/gcc/pic32c/6.2.1/../../../../pic32c/lib\libc_nano.a(lib_a-init.o)
 .debug_aranges
                0x00000f30       0x20 c:/program files/microchip/xc32/v2.40/bin/bin/../../lib/gcc/pic32c/6.2.1/../../../../pic32c/lib\libc_nano.a(lib_a-memcmp.o)
 .debug_aranges
                0x00000f50       0x20 c:/program files/microchip/xc32/v2.40/bin/bin/../../lib/gcc/pic32c/6.2.1/../../../../pic32c/lib\libc_nano.a(lib_a-memcpy-stub.o)
 .debug_aranges
                0x00000f70       0x20 c:/program files/microchip/xc32/v2.40/bin/bin/../../lib/gcc/pic32c/6.2.1/../../../../pic32c/lib\libc_nano.a(lib_a-memset.o)
 .debug_aranges
                0x00000f90       0x20 c:/program files/microchip/xc32/v2.40/bin/bin/../../lib/gcc/pic32c/6.2.1/../../../../pic32c/lib\libc_nano.a(_lib_a-sprintf.cdfFgGnopsuxX.o)
 .debug_aranges
                0x00000fb0       0x20 c:/program files/microchip/xc32/v2.40/bin/bin/../../lib/gcc/pic32c/6.2.1/../../../../pic32c/lib\libc_nano.a(lib_a-strcat.o)
 .debug_aranges
                0x00000fd0       0x20 c:/program files/microchip/xc32/v2.40/bin/bin/../../lib/gcc/pic32c/6.2.1/../../../../pic32c/lib\libc_nano.a(lib_a-strlen.o)
 .debug_aranges
                0x00000ff0       0x20 c:/program files/microchip/xc32/v2.40/bin/bin/../../lib/gcc/pic32c/6.2.1/../../../../pic32c/lib\libc_nano.a(lib_a-strstr.o)
 .debug_aranges
                0x00001010       0x50 c:/program files/microchip/xc32/v2.40/bin/bin/../../lib/gcc/pic32c/6.2.1/../../../../pic32c/lib\libc_nano.a(lib_a-strtod.o)
 .debug_aranges
                0x00001060       0x38 c:/program files/microchip/xc32/v2.40/bin/bin/../../lib/gcc/pic32c/6.2.1/../../../../pic32c/lib\libc_nano.a(lib_a-strtol.o)
 .debug_aranges
                0x00001098       0x30 c:/program files/microchip/xc32/v2.40/bin/bin/../../lib/gcc/pic32c/6.2.1/../../../../pic32c/lib\libc_nano.a(lib_a-gdtoa-gethex.o)
 .debug_aranges
                0x000010c8       0x30 c:/program files/microchip/xc32/v2.40/bin/bin/../../lib/gcc/pic32c/6.2.1/../../../../pic32c/lib\libc_nano.a(lib_a-gdtoa-hexnan.o)
 .debug_aranges
                0x000010f8       0x18 c:/program files/microchip/xc32/v2.40/bin/bin/../../lib/gcc/pic32c/6.2.1/../../../../pic32c/lib\libc_nano.a(lib_a-impure.o)
 .debug_aranges
                0x00001110       0x30 c:/program files/microchip/xc32/v2.40/bin/bin/../../lib/gcc/pic32c/6.2.1/../../../../pic32c/lib\libc_nano.a(lib_a-localeconv.o)
 .debug_aranges
                0x00001140       0x40 c:/program files/microchip/xc32/v2.40/bin/bin/../../lib/gcc/pic32c/6.2.1/../../../../pic32c/lib\libc_nano.a(lib_a-locale.o)
 .debug_aranges
                0x00001180       0x28 c:/program files/microchip/xc32/v2.40/bin/bin/../../lib/gcc/pic32c/6.2.1/../../../../pic32c/lib\libc_nano.a(lib_a-mbtowc_r.o)
 .debug_aranges
                0x000011a8       0xb0 c:/program files/microchip/xc32/v2.40/bin/bin/../../lib/gcc/pic32c/6.2.1/../../../../pic32c/lib\libc_nano.a(lib_a-mprec.o)
 .debug_aranges
                0x00001258       0x20 c:/program files/microchip/xc32/v2.40/bin/bin/../../lib/gcc/pic32c/6.2.1/../../../../pic32c/lib\libc_nano.a(lib_a-nano-callocr.o)
 .debug_aranges
                0x00001278       0x20 c:/program files/microchip/xc32/v2.40/bin/bin/../../lib/gcc/pic32c/6.2.1/../../../../pic32c/lib\libc_nano.a(lib_a-nano-mallocr.o)
 .debug_aranges
                0x00001298       0x30 c:/program files/microchip/xc32/v2.40/bin/bin/../../lib/gcc/pic32c/6.2.1/../../../../pic32c/lib\libc_nano.a(_lib_a-nano-vfprintf.cdfFgGnopsuxX.o)
 .debug_aranges
                0x000012c8       0x28 c:/program files/microchip/xc32/v2.40/bin/bin/../../lib/gcc/pic32c/6.2.1/../../../../pic32c/lib\libc_nano.a(lib_a-nano-vfprintf_i.o)
 .debug_aranges
                0x000012f0       0x20 c:/program files/microchip/xc32/v2.40/bin/bin/../../lib/gcc/pic32c/6.2.1/../../../../pic32c/lib\libc_nano.a(lib_a-sbrkr.o)
 .debug_aranges
                0x00001310       0x28 c:/program files/microchip/xc32/v2.40/bin/bin/../../lib/gcc/pic32c/6.2.1/../../../../pic32c/lib\libc_nano.a(lib_a-__ssfputs.o)
 .debug_aranges
                0x00001338       0x20 c:/program files/microchip/xc32/v2.40/bin/bin/../../lib/gcc/pic32c/6.2.1/../../../../pic32c/lib\libc_nano.a(lib_a-strncmp.o)
 .debug_aranges
                0x00001358       0x28 c:/program files/microchip/xc32/v2.40/bin/bin/../../lib/gcc/pic32c/6.2.1/../../../../pic32c/lib\libc_nano.a(lib_a-wbuf.o)
 .debug_aranges
                0x00001380       0x28 c:/program files/microchip/xc32/v2.40/bin/bin/../../lib/gcc/pic32c/6.2.1/../../../../pic32c/lib\libc_nano.a(lib_a-wctomb_r.o)
 .debug_aranges
                0x000013a8       0x20 c:/program files/microchip/xc32/v2.40/bin/bin/../../lib/gcc/pic32c/6.2.1/../../../../pic32c/lib\libc_nano.a(lib_a-wsetup.o)
 .debug_aranges
                0x000013c8       0x18 c:/program files/microchip/xc32/v2.40/bin/bin/../../lib/gcc/pic32c/6.2.1/../../../../pic32c/lib\libc_nano.a(lib_a-ctype_.o)
 .debug_aranges
                0x000013e0       0x28 c:/program files/microchip/xc32/v2.40/bin/bin/../../lib/gcc/pic32c/6.2.1/../../../../pic32c/lib\libc_nano.a(lib_a-dtoa.o)
 .debug_aranges
                0x00001408       0x30 c:/program files/microchip/xc32/v2.40/bin/bin/../../lib/gcc/pic32c/6.2.1/../../../../pic32c/lib\libc_nano.a(lib_a-fflush.o)
 .debug_aranges
                0x00001438       0x48 c:/program files/microchip/xc32/v2.40/bin/bin/../../lib/gcc/pic32c/6.2.1/../../../../pic32c/lib\libc_nano.a(lib_a-findfp.o)
 .debug_aranges
                0x00001480       0x30 c:/program files/microchip/xc32/v2.40/bin/bin/../../lib/gcc/pic32c/6.2.1/../../../../pic32c/lib\libc_nano.a(lib_a-fputwc.o)
 .debug_aranges
                0x000014b0       0x28 c:/program files/microchip/xc32/v2.40/bin/bin/../../lib/gcc/pic32c/6.2.1/../../../../pic32c/lib\libc_nano.a(lib_a-fwalk.o)
 .debug_aranges
                0x000014d8       0x28 c:/program files/microchip/xc32/v2.40/bin/bin/../../lib/gcc/pic32c/6.2.1/../../../../pic32c/lib\libc_nano.a(lib_a-makebuf.o)
 .debug_aranges
                0x00001500       0x28 c:/program files/microchip/xc32/v2.40/bin/bin/../../lib/gcc/pic32c/6.2.1/../../../../pic32c/lib\libc_nano.a(lib_a-malloc.o)
 .debug_aranges
                0x00001528       0x20 c:/program files/microchip/xc32/v2.40/bin/bin/../../lib/gcc/pic32c/6.2.1/../../../../pic32c/lib\libc_nano.a(lib_a-memchr-stub.o)
 .debug_aranges
                0x00001548       0x20 c:/program files/microchip/xc32/v2.40/bin/bin/../../lib/gcc/pic32c/6.2.1/../../../../pic32c/lib\libc_nano.a(lib_a-mlock.o)
 .debug_aranges
                0x00001568       0x20 c:/program files/microchip/xc32/v2.40/bin/bin/../../lib/gcc/pic32c/6.2.1/../../../../pic32c/lib\libc_nano.a(lib_a-nano-freer.o)
 .debug_aranges
                0x00001588       0x28 c:/program files/microchip/xc32/v2.40/bin/bin/../../lib/gcc/pic32c/6.2.1/../../../../pic32c/lib\libc_nano.a(lib_a-reent.o)
 .debug_aranges
                0x000015b0       0x40 c:/program files/microchip/xc32/v2.40/bin/bin/../../lib/gcc/pic32c/6.2.1/../../../../pic32c/lib\libc_nano.a(lib_a-stdio.o)
 .debug_aranges
                0x000015f0       0x28 c:/program files/microchip/xc32/v2.40/bin/bin/../../lib/gcc/pic32c/6.2.1/../../../../pic32c/lib\libc_nano.a(lib_a-wcrtomb.o)
 .debug_aranges
                0x00001618       0x20 c:/program files/microchip/xc32/v2.40/bin/bin/../../lib/gcc/pic32c/6.2.1/../../../../pic32c/lib\libc_nano.a(lib_a-writer.o)
 .debug_aranges
                0x00001638       0x20 c:/program files/microchip/xc32/v2.40/bin/bin/../../lib/gcc/pic32c/6.2.1/../../../../pic32c/lib\libc_nano.a(lib_a-closer.o)
 .debug_aranges
                0x00001658       0x20 c:/program files/microchip/xc32/v2.40/bin/bin/../../lib/gcc/pic32c/6.2.1/../../../../pic32c/lib\libc_nano.a(lib_a-fstatr.o)
 .debug_aranges
                0x00001678       0x20 c:/program files/microchip/xc32/v2.40/bin/bin/../../lib/gcc/pic32c/6.2.1/../../../../pic32c/lib\libc_nano.a(lib_a-isattyr.o)
 .debug_aranges
                0x00001698       0x20 c:/program files/microchip/xc32/v2.40/bin/bin/../../lib/gcc/pic32c/6.2.1/../../../../pic32c/lib\libc_nano.a(lib_a-lseekr.o)
 .debug_aranges
                0x000016b8       0x20 c:/program files/microchip/xc32/v2.40/bin/bin/../../lib/gcc/pic32c/6.2.1/../../../../pic32c/lib\libc_nano.a(lib_a-readr.o)
 .debug_aranges
                0x000016d8       0x20 c:/program files/microchip/xc32/v2.40/bin/bin/../../lib/gcc/pic32c/6.2.1/../../../../pic32c/lib\libpic32c.a(_close.o)
 .debug_aranges
                0x000016f8       0x20 c:/program files/microchip/xc32/v2.40/bin/bin/../../lib/gcc/pic32c/6.2.1/../../../../pic32c/lib\libpic32c.a(_fstat.o)
 .debug_aranges
                0x00001718       0x20 c:/program files/microchip/xc32/v2.40/bin/bin/../../lib/gcc/pic32c/6.2.1/../../../../pic32c/lib\libpic32c.a(_isatty.o)
 .debug_aranges
                0x00001738       0x20 c:/program files/microchip/xc32/v2.40/bin/bin/../../lib/gcc/pic32c/6.2.1/../../../../pic32c/lib\libpic32c.a(_lseek.o)
 .debug_aranges
                0x00001758       0x20 c:/program files/microchip/xc32/v2.40/bin/bin/../../lib/gcc/pic32c/6.2.1/../../../../pic32c/lib\libpic32c.a(_read.o)
 .debug_aranges
                0x00001778       0x20 c:/program files/microchip/xc32/v2.40/bin/bin/../../lib/gcc/pic32c/6.2.1/../../../../pic32c/lib\libpic32c.a(sbrk.o)
 .debug_aranges
                0x00001798       0x20 c:/program files/microchip/xc32/v2.40/bin/bin/../../lib/gcc/pic32c/6.2.1/../../../../pic32c/lib\libpic32c.a(_write.o)
 .debug_aranges
                0x000017b8       0x20 c:/program files/microchip/xc32/v2.40/bin/bin/../../lib/gcc/pic32c/6.2.1/../../../../pic32c/lib\libpic32c.a(close.o)
 .debug_aranges
                0x000017d8       0x20 c:/program files/microchip/xc32/v2.40/bin/bin/../../lib/gcc/pic32c/6.2.1/../../../../pic32c/lib\libpic32c.a(fstat.o)
 .debug_aranges
                0x000017f8       0x20 c:/program files/microchip/xc32/v2.40/bin/bin/../../lib/gcc/pic32c/6.2.1/../../../../pic32c/lib\libpic32c.a(isatty.o)
 .debug_aranges
                0x00001818       0x20 c:/program files/microchip/xc32/v2.40/bin/bin/../../lib/gcc/pic32c/6.2.1/../../../../pic32c/lib\libpic32c.a(lseek.o)
 .debug_aranges
                0x00001838       0x20 c:/program files/microchip/xc32/v2.40/bin/bin/../../lib/gcc/pic32c/6.2.1\libgcc.a(_divsi3.o)
 .debug_aranges
                0x00001858       0x20 c:/program files/microchip/xc32/v2.40/bin/bin/../../lib/gcc/pic32c/6.2.1\libgcc.a(_arm_cmpdf2.o)
 .debug_aranges
                0x00001878       0x20 c:/program files/microchip/xc32/v2.40/bin/bin/../../lib/gcc/pic32c/6.2.1\libgcc.a(_fixunsdfsi.o)
 .debug_aranges
                0x00001898       0x20 c:/program files/microchip/xc32/v2.40/bin/bin/../../lib/gcc/pic32c/6.2.1\libgcc.a(adddf3.o)
 .debug_aranges
                0x000018b8       0x20 c:/program files/microchip/xc32/v2.40/bin/bin/../../lib/gcc/pic32c/6.2.1\libgcc.a(divdf3.o)
 .debug_aranges
                0x000018d8       0x20 c:/program files/microchip/xc32/v2.40/bin/bin/../../lib/gcc/pic32c/6.2.1\libgcc.a(eqdf2.o)
 .debug_aranges
                0x000018f8       0x20 c:/program files/microchip/xc32/v2.40/bin/bin/../../lib/gcc/pic32c/6.2.1\libgcc.a(gedf2.o)
 .debug_aranges
                0x00001918       0x20 c:/program files/microchip/xc32/v2.40/bin/bin/../../lib/gcc/pic32c/6.2.1\libgcc.a(ledf2.o)
 .debug_aranges
                0x00001938       0x20 c:/program files/microchip/xc32/v2.40/bin/bin/../../lib/gcc/pic32c/6.2.1\libgcc.a(subdf3.o)
 .debug_aranges
                0x00001958       0x20 c:/program files/microchip/xc32/v2.40/bin/bin/../../lib/gcc/pic32c/6.2.1\libgcc.a(unorddf2.o)
 .debug_aranges
                0x00001978       0x20 c:/program files/microchip/xc32/v2.40/bin/bin/../../lib/gcc/pic32c/6.2.1\libgcc.a(fixdfsi.o)
 .debug_aranges
                0x00001998       0x20 c:/program files/microchip/xc32/v2.40/bin/bin/../../lib/gcc/pic32c/6.2.1\libgcc.a(floatunsidf.o)

.debug_ranges   0x00000000     0x25d8
 .debug_ranges  0x00000000       0x60 build/sam_c21n_xpro/production/_ext/1360937237/appiot.o
 .debug_ranges  0x00000060       0x90 build/sam_c21n_xpro/production/_ext/1360937237/moden.o
 .debug_ranges  0x000000f0      0x140 build/sam_c21n_xpro/production/_ext/1360937237/canapp.o
 .debug_ranges  0x00000230       0x20 build/sam_c21n_xpro/production/_ext/1360937237/appuart.o
 .debug_ranges  0x00000250       0x50 build/sam_c21n_xpro/production/_ext/1360937237/appemueeprom.o
 .debug_ranges  0x000002a0       0x20 build/sam_c21n_xpro/production/_ext/1360937237/apptimer.o
 .debug_ranges  0x000002c0       0x28 build/sam_c21n_xpro/production/_ext/1360937237/app_uart_debug.o
 .debug_ranges  0x000002e8       0x88 build/sam_c21n_xpro/production/_ext/1936826263/drv_at24.o
 .debug_ranges  0x00000370      0x130 build/sam_c21n_xpro/production/_ext/1274584173/drv_usart.o
 .debug_ranges  0x000004a0      0x2a0 build/sam_c21n_xpro/production/_ext/1019481632/emulated_eeprom.o
 .debug_ranges  0x00000740       0x70 build/sam_c21n_xpro/production/_ext/1617700295/plib_adc0.o
 .debug_ranges  0x000007b0       0xc8 build/sam_c21n_xpro/production/_ext/1617702135/plib_can0.o
 .debug_ranges  0x00000878       0x10 build/sam_c21n_xpro/production/_ext/166077579/plib_clock.o
 .debug_ranges  0x00000888       0x30 build/sam_c21n_xpro/production/_ext/1617704294/plib_eic.o
 .debug_ranges  0x000008b8       0x10 build/sam_c21n_xpro/production/_ext/163928093/plib_evsys.o
 .debug_ranges  0x000008c8       0x28 build/sam_c21n_xpro/production/_ext/1390493541/plib_nvic.o
 .debug_ranges  0x000008f0       0x90 build/sam_c21n_xpro/production/_ext/770299191/plib_nvmctrl.o
 .debug_ranges  0x00000980       0x60 build/sam_c21n_xpro/production/_ext/1390440390/plib_port.o
 .debug_ranges  0x000009e0       0xe8 build/sam_c21n_xpro/production/_ext/1451668420/plib_sercom2_i2c_master.o
 .debug_ranges  0x00000ac8      0x1b0 build/sam_c21n_xpro/production/_ext/1993392304/plib_sercom1_usart.o
 .debug_ranges  0x00000c78      0x1b0 build/sam_c21n_xpro/production/_ext/1993392304/plib_sercom0_usart.o
 .debug_ranges  0x00000e28       0x88 build/sam_c21n_xpro/production/_ext/1004774289/plib_systick.o
 .debug_ranges  0x00000eb0       0x58 build/sam_c21n_xpro/production/_ext/1617721454/plib_wdt.o
 .debug_ranges  0x00000f08       0x18 build/sam_c21n_xpro/production/_ext/730014449/xc32_monitor.o
 .debug_ranges  0x00000f20       0x30 build/sam_c21n_xpro/production/_ext/855761890/sys_int.o
 .debug_ranges  0x00000f50       0x10 build/sam_c21n_xpro/production/_ext/1758384875/initialization.o
 .debug_ranges  0x00000f60       0x10 build/sam_c21n_xpro/production/_ext/1758384875/interrupts.o
 .debug_ranges  0x00000f70       0x18 build/sam_c21n_xpro/production/_ext/1758384875/exceptions.o
 .debug_ranges  0x00000f88       0x18 build/sam_c21n_xpro/production/_ext/1758384875/startup_xc32.o
 .debug_ranges  0x00000fa0       0x30 build/sam_c21n_xpro/production/_ext/1360937237/main.o
 .debug_ranges  0x00000fd0       0x18 build/sam_c21n_xpro/production/_ext/1360937237/app.o
 .debug_ranges  0x00000fe8       0x10 c:/program files/microchip/xc32/v2.40/bin/bin/../../lib/gcc/pic32c/6.2.1/../../../../pic32c/lib\libpic32c.a(data_init.o)
 .debug_ranges  0x00000ff8       0x28 c:/program files/microchip/xc32/v2.40/bin/bin/../../lib/gcc/pic32c/6.2.1\libgcc.a(_muldi3.o)
 .debug_ranges  0x00001020       0xe8 c:/program files/microchip/xc32/v2.40/bin/bin/../../lib/gcc/pic32c/6.2.1\libgcc.a(addsf3.o)
 .debug_ranges  0x00001108       0x50 c:/program files/microchip/xc32/v2.40/bin/bin/../../lib/gcc/pic32c/6.2.1\libgcc.a(divsf3.o)
 .debug_ranges  0x00001158       0x50 c:/program files/microchip/xc32/v2.40/bin/bin/../../lib/gcc/pic32c/6.2.1\libgcc.a(mulsf3.o)
 .debug_ranges  0x000011a8       0xf0 c:/program files/microchip/xc32/v2.40/bin/bin/../../lib/gcc/pic32c/6.2.1\libgcc.a(subsf3.o)
 .debug_ranges  0x00001298       0x38 c:/program files/microchip/xc32/v2.40/bin/bin/../../lib/gcc/pic32c/6.2.1\libgcc.a(floatsisf.o)
 .debug_ranges  0x000012d0       0x38 c:/program files/microchip/xc32/v2.40/bin/bin/../../lib/gcc/pic32c/6.2.1\libgcc.a(floatunsisf.o)
 .debug_ranges  0x00001308      0x1d0 c:/program files/microchip/xc32/v2.40/bin/bin/../../lib/gcc/pic32c/6.2.1\libgcc.a(muldf3.o)
 .debug_ranges  0x000014d8       0x50 c:/program files/microchip/xc32/v2.40/bin/bin/../../lib/gcc/pic32c/6.2.1\libgcc.a(floatsidf.o)
 .debug_ranges  0x00001528       0x20 c:/program files/microchip/xc32/v2.40/bin/bin/../../lib/gcc/pic32c/6.2.1\libgcc.a(extendsfdf2.o)
 .debug_ranges  0x00001548       0x38 c:/program files/microchip/xc32/v2.40/bin/bin/../../lib/gcc/pic32c/6.2.1\libgcc.a(truncdfsf2.o)
 .debug_ranges  0x00001580       0x10 c:/program files/microchip/xc32/v2.40/bin/bin/../../lib/gcc/pic32c/6.2.1/../../../../pic32c/lib\libc_nano.a(lib_a-atof.o)
 .debug_ranges  0x00001590       0x18 c:/program files/microchip/xc32/v2.40/bin/bin/../../lib/gcc/pic32c/6.2.1/../../../../pic32c/lib\libc_nano.a(lib_a-atoi.o)
 .debug_ranges  0x000015a8       0x10 c:/program files/microchip/xc32/v2.40/bin/bin/../../lib/gcc/pic32c/6.2.1/../../../../pic32c/lib\libc_nano.a(lib_a-init.o)
 .debug_ranges  0x000015b8       0x10 c:/program files/microchip/xc32/v2.40/bin/bin/../../lib/gcc/pic32c/6.2.1/../../../../pic32c/lib\libc_nano.a(lib_a-memcmp.o)
 .debug_ranges  0x000015c8       0x10 c:/program files/microchip/xc32/v2.40/bin/bin/../../lib/gcc/pic32c/6.2.1/../../../../pic32c/lib\libc_nano.a(lib_a-memcpy-stub.o)
 .debug_ranges  0x000015d8       0x10 c:/program files/microchip/xc32/v2.40/bin/bin/../../lib/gcc/pic32c/6.2.1/../../../../pic32c/lib\libc_nano.a(lib_a-memset.o)
 .debug_ranges  0x000015e8       0x10 c:/program files/microchip/xc32/v2.40/bin/bin/../../lib/gcc/pic32c/6.2.1/../../../../pic32c/lib\libc_nano.a(_lib_a-sprintf.cdfFgGnopsuxX.o)
 .debug_ranges  0x000015f8       0x10 c:/program files/microchip/xc32/v2.40/bin/bin/../../lib/gcc/pic32c/6.2.1/../../../../pic32c/lib\libc_nano.a(lib_a-strcat.o)
 .debug_ranges  0x00001608       0x28 c:/program files/microchip/xc32/v2.40/bin/bin/../../lib/gcc/pic32c/6.2.1/../../../../pic32c/lib\libc_nano.a(lib_a-strstr.o)
 .debug_ranges  0x00001630       0x90 c:/program files/microchip/xc32/v2.40/bin/bin/../../lib/gcc/pic32c/6.2.1/../../../../pic32c/lib\libc_nano.a(lib_a-strtod.o)
 .debug_ranges  0x000016c0       0x28 c:/program files/microchip/xc32/v2.40/bin/bin/../../lib/gcc/pic32c/6.2.1/../../../../pic32c/lib\libc_nano.a(lib_a-strtol.o)
 .debug_ranges  0x000016e8       0x50 c:/program files/microchip/xc32/v2.40/bin/bin/../../lib/gcc/pic32c/6.2.1/../../../../pic32c/lib\libc_nano.a(lib_a-gdtoa-gethex.o)
 .debug_ranges  0x00001738       0x20 c:/program files/microchip/xc32/v2.40/bin/bin/../../lib/gcc/pic32c/6.2.1/../../../../pic32c/lib\libc_nano.a(lib_a-gdtoa-hexnan.o)
 .debug_ranges  0x00001758       0x20 c:/program files/microchip/xc32/v2.40/bin/bin/../../lib/gcc/pic32c/6.2.1/../../../../pic32c/lib\libc_nano.a(lib_a-localeconv.o)
 .debug_ranges  0x00001778       0x30 c:/program files/microchip/xc32/v2.40/bin/bin/../../lib/gcc/pic32c/6.2.1/../../../../pic32c/lib\libc_nano.a(lib_a-locale.o)
 .debug_ranges  0x000017a8       0x18 c:/program files/microchip/xc32/v2.40/bin/bin/../../lib/gcc/pic32c/6.2.1/../../../../pic32c/lib\libc_nano.a(lib_a-mbtowc_r.o)
 .debug_ranges  0x000017c0       0xd0 c:/program files/microchip/xc32/v2.40/bin/bin/../../lib/gcc/pic32c/6.2.1/../../../../pic32c/lib\libc_nano.a(lib_a-mprec.o)
 .debug_ranges  0x00001890       0x10 c:/program files/microchip/xc32/v2.40/bin/bin/../../lib/gcc/pic32c/6.2.1/../../../../pic32c/lib\libc_nano.a(lib_a-nano-callocr.o)
 .debug_ranges  0x000018a0       0x60 c:/program files/microchip/xc32/v2.40/bin/bin/../../lib/gcc/pic32c/6.2.1/../../../../pic32c/lib\libc_nano.a(lib_a-nano-mallocr.o)
 .debug_ranges  0x00001900      0x1b0 c:/program files/microchip/xc32/v2.40/bin/bin/../../lib/gcc/pic32c/6.2.1/../../../../pic32c/lib\libc_nano.a(_lib_a-nano-vfprintf.cdfFgGnopsuxX.o)
 .debug_ranges  0x00001ab0       0x90 c:/program files/microchip/xc32/v2.40/bin/bin/../../lib/gcc/pic32c/6.2.1/../../../../pic32c/lib\libc_nano.a(lib_a-nano-vfprintf_i.o)
 .debug_ranges  0x00001b40       0x10 c:/program files/microchip/xc32/v2.40/bin/bin/../../lib/gcc/pic32c/6.2.1/../../../../pic32c/lib\libc_nano.a(lib_a-sbrkr.o)
 .debug_ranges  0x00001b50       0x30 c:/program files/microchip/xc32/v2.40/bin/bin/../../lib/gcc/pic32c/6.2.1/../../../../pic32c/lib\libc_nano.a(lib_a-__ssfputs.o)
 .debug_ranges  0x00001b80       0x10 c:/program files/microchip/xc32/v2.40/bin/bin/../../lib/gcc/pic32c/6.2.1/../../../../pic32c/lib\libc_nano.a(lib_a-strncmp.o)
 .debug_ranges  0x00001b90       0x30 c:/program files/microchip/xc32/v2.40/bin/bin/../../lib/gcc/pic32c/6.2.1/../../../../pic32c/lib\libc_nano.a(lib_a-wbuf.o)
 .debug_ranges  0x00001bc0       0x18 c:/program files/microchip/xc32/v2.40/bin/bin/../../lib/gcc/pic32c/6.2.1/../../../../pic32c/lib\libc_nano.a(lib_a-wctomb_r.o)
 .debug_ranges  0x00001bd8       0x38 c:/program files/microchip/xc32/v2.40/bin/bin/../../lib/gcc/pic32c/6.2.1/../../../../pic32c/lib\libc_nano.a(lib_a-wsetup.o)
 .debug_ranges  0x00001c10       0x30 c:/program files/microchip/xc32/v2.40/bin/bin/../../lib/gcc/pic32c/6.2.1/../../../../pic32c/lib\libc_nano.a(lib_a-dtoa.o)
 .debug_ranges  0x00001c40       0x68 c:/program files/microchip/xc32/v2.40/bin/bin/../../lib/gcc/pic32c/6.2.1/../../../../pic32c/lib\libc_nano.a(lib_a-fflush.o)
 .debug_ranges  0x00001ca8       0x38 c:/program files/microchip/xc32/v2.40/bin/bin/../../lib/gcc/pic32c/6.2.1/../../../../pic32c/lib\libc_nano.a(lib_a-findfp.o)
 .debug_ranges  0x00001ce0       0x50 c:/program files/microchip/xc32/v2.40/bin/bin/../../lib/gcc/pic32c/6.2.1/../../../../pic32c/lib\libc_nano.a(lib_a-fputwc.o)
 .debug_ranges  0x00001d30       0x18 c:/program files/microchip/xc32/v2.40/bin/bin/../../lib/gcc/pic32c/6.2.1/../../../../pic32c/lib\libc_nano.a(lib_a-fwalk.o)
 .debug_ranges  0x00001d48       0x30 c:/program files/microchip/xc32/v2.40/bin/bin/../../lib/gcc/pic32c/6.2.1/../../../../pic32c/lib\libc_nano.a(lib_a-makebuf.o)
 .debug_ranges  0x00001d78       0x18 c:/program files/microchip/xc32/v2.40/bin/bin/../../lib/gcc/pic32c/6.2.1/../../../../pic32c/lib\libc_nano.a(lib_a-malloc.o)
 .debug_ranges  0x00001d90       0x10 c:/program files/microchip/xc32/v2.40/bin/bin/../../lib/gcc/pic32c/6.2.1/../../../../pic32c/lib\libc_nano.a(lib_a-memchr-stub.o)
 .debug_ranges  0x00001da0       0x10 c:/program files/microchip/xc32/v2.40/bin/bin/../../lib/gcc/pic32c/6.2.1/../../../../pic32c/lib\libc_nano.a(lib_a-mlock.o)
 .debug_ranges  0x00001db0       0x28 c:/program files/microchip/xc32/v2.40/bin/bin/../../lib/gcc/pic32c/6.2.1/../../../../pic32c/lib\libc_nano.a(lib_a-nano-freer.o)
 .debug_ranges  0x00001dd8       0x48 c:/program files/microchip/xc32/v2.40/bin/bin/../../lib/gcc/pic32c/6.2.1/../../../../pic32c/lib\libc_nano.a(lib_a-reent.o)
 .debug_ranges  0x00001e20       0x30 c:/program files/microchip/xc32/v2.40/bin/bin/../../lib/gcc/pic32c/6.2.1/../../../../pic32c/lib\libc_nano.a(lib_a-stdio.o)
 .debug_ranges  0x00001e50       0x30 c:/program files/microchip/xc32/v2.40/bin/bin/../../lib/gcc/pic32c/6.2.1/../../../../pic32c/lib\libc_nano.a(lib_a-wcrtomb.o)
 .debug_ranges  0x00001e80       0x10 c:/program files/microchip/xc32/v2.40/bin/bin/../../lib/gcc/pic32c/6.2.1/../../../../pic32c/lib\libc_nano.a(lib_a-writer.o)
 .debug_ranges  0x00001e90       0x10 c:/program files/microchip/xc32/v2.40/bin/bin/../../lib/gcc/pic32c/6.2.1/../../../../pic32c/lib\libc_nano.a(lib_a-closer.o)
 .debug_ranges  0x00001ea0       0x10 c:/program files/microchip/xc32/v2.40/bin/bin/../../lib/gcc/pic32c/6.2.1/../../../../pic32c/lib\libc_nano.a(lib_a-fstatr.o)
 .debug_ranges  0x00001eb0       0x10 c:/program files/microchip/xc32/v2.40/bin/bin/../../lib/gcc/pic32c/6.2.1/../../../../pic32c/lib\libc_nano.a(lib_a-isattyr.o)
 .debug_ranges  0x00001ec0       0x10 c:/program files/microchip/xc32/v2.40/bin/bin/../../lib/gcc/pic32c/6.2.1/../../../../pic32c/lib\libc_nano.a(lib_a-lseekr.o)
 .debug_ranges  0x00001ed0       0x10 c:/program files/microchip/xc32/v2.40/bin/bin/../../lib/gcc/pic32c/6.2.1/../../../../pic32c/lib\libc_nano.a(lib_a-readr.o)
 .debug_ranges  0x00001ee0       0x10 c:/program files/microchip/xc32/v2.40/bin/bin/../../lib/gcc/pic32c/6.2.1/../../../../pic32c/lib\libpic32c.a(_close.o)
 .debug_ranges  0x00001ef0       0x10 c:/program files/microchip/xc32/v2.40/bin/bin/../../lib/gcc/pic32c/6.2.1/../../../../pic32c/lib\libpic32c.a(_fstat.o)
 .debug_ranges  0x00001f00       0x10 c:/program files/microchip/xc32/v2.40/bin/bin/../../lib/gcc/pic32c/6.2.1/../../../../pic32c/lib\libpic32c.a(_isatty.o)
 .debug_ranges  0x00001f10       0x10 c:/program files/microchip/xc32/v2.40/bin/bin/../../lib/gcc/pic32c/6.2.1/../../../../pic32c/lib\libpic32c.a(_lseek.o)
 .debug_ranges  0x00001f20       0x10 c:/program files/microchip/xc32/v2.40/bin/bin/../../lib/gcc/pic32c/6.2.1/../../../../pic32c/lib\libpic32c.a(_read.o)
 .debug_ranges  0x00001f30       0x10 c:/program files/microchip/xc32/v2.40/bin/bin/../../lib/gcc/pic32c/6.2.1/../../../../pic32c/lib\libpic32c.a(sbrk.o)
 .debug_ranges  0x00001f40       0x10 c:/program files/microchip/xc32/v2.40/bin/bin/../../lib/gcc/pic32c/6.2.1/../../../../pic32c/lib\libpic32c.a(_write.o)
 .debug_ranges  0x00001f50       0x10 c:/program files/microchip/xc32/v2.40/bin/bin/../../lib/gcc/pic32c/6.2.1/../../../../pic32c/lib\libpic32c.a(close.o)
 .debug_ranges  0x00001f60       0x10 c:/program files/microchip/xc32/v2.40/bin/bin/../../lib/gcc/pic32c/6.2.1/../../../../pic32c/lib\libpic32c.a(fstat.o)
 .debug_ranges  0x00001f70       0x10 c:/program files/microchip/xc32/v2.40/bin/bin/../../lib/gcc/pic32c/6.2.1/../../../../pic32c/lib\libpic32c.a(isatty.o)
 .debug_ranges  0x00001f80       0x10 c:/program files/microchip/xc32/v2.40/bin/bin/../../lib/gcc/pic32c/6.2.1/../../../../pic32c/lib\libpic32c.a(lseek.o)
 .debug_ranges  0x00001f90      0x1b0 c:/program files/microchip/xc32/v2.40/bin/bin/../../lib/gcc/pic32c/6.2.1\libgcc.a(adddf3.o)
 .debug_ranges  0x00002140      0x178 c:/program files/microchip/xc32/v2.40/bin/bin/../../lib/gcc/pic32c/6.2.1\libgcc.a(divdf3.o)
 .debug_ranges  0x000022b8       0x50 c:/program files/microchip/xc32/v2.40/bin/bin/../../lib/gcc/pic32c/6.2.1\libgcc.a(eqdf2.o)
 .debug_ranges  0x00002308       0x30 c:/program files/microchip/xc32/v2.40/bin/bin/../../lib/gcc/pic32c/6.2.1\libgcc.a(gedf2.o)
 .debug_ranges  0x00002338       0x48 c:/program files/microchip/xc32/v2.40/bin/bin/../../lib/gcc/pic32c/6.2.1\libgcc.a(ledf2.o)
 .debug_ranges  0x00002380      0x1b8 c:/program files/microchip/xc32/v2.40/bin/bin/../../lib/gcc/pic32c/6.2.1\libgcc.a(subdf3.o)
 .debug_ranges  0x00002538       0x40 c:/program files/microchip/xc32/v2.40/bin/bin/../../lib/gcc/pic32c/6.2.1\libgcc.a(unorddf2.o)
 .debug_ranges  0x00002578       0x18 c:/program files/microchip/xc32/v2.40/bin/bin/../../lib/gcc/pic32c/6.2.1\libgcc.a(fixdfsi.o)
 .debug_ranges  0x00002590       0x48 c:/program files/microchip/xc32/v2.40/bin/bin/../../lib/gcc/pic32c/6.2.1\libgcc.a(floatunsidf.o)

.debug_line     0x00000000    0x12236
 .debug_line    0x00000000      0x3a4 build/sam_c21n_xpro/production/_ext/1360937237/appiot.o
 .debug_line    0x000003a4      0xa6f build/sam_c21n_xpro/production/_ext/1360937237/moden.o
 .debug_line    0x00000e13      0x6ab build/sam_c21n_xpro/production/_ext/1360937237/canapp.o
 .debug_line    0x000014be      0x2df build/sam_c21n_xpro/production/_ext/1360937237/appuart.o
 .debug_line    0x0000179d      0x2da build/sam_c21n_xpro/production/_ext/1360937237/appemueeprom.o
 .debug_line    0x00001a77      0x2d8 build/sam_c21n_xpro/production/_ext/1360937237/apptimer.o
 .debug_line    0x00001d4f      0x2f9 build/sam_c21n_xpro/production/_ext/1360937237/app_uart_debug.o
 .debug_line    0x00002048      0x3d5 build/sam_c21n_xpro/production/_ext/1936826263/drv_at24.o
 .debug_line    0x0000241d      0x56a build/sam_c21n_xpro/production/_ext/1274584173/drv_usart.o
 .debug_line    0x00002987      0x75c build/sam_c21n_xpro/production/_ext/1019481632/emulated_eeprom.o
 .debug_line    0x000030e3      0x243 build/sam_c21n_xpro/production/_ext/1617700295/plib_adc0.o
 .debug_line    0x00003326      0x48b build/sam_c21n_xpro/production/_ext/1617702135/plib_can0.o
 .debug_line    0x000037b1      0x188 build/sam_c21n_xpro/production/_ext/166077579/plib_clock.o
 .debug_line    0x00003939      0x1b6 build/sam_c21n_xpro/production/_ext/1617704294/plib_eic.o
 .debug_line    0x00003aef       0x6a build/sam_c21n_xpro/production/_ext/163928093/plib_evsys.o
 .debug_line    0x00003b59      0x228 build/sam_c21n_xpro/production/_ext/1390493541/plib_nvic.o
 .debug_line    0x00003d81      0x30b build/sam_c21n_xpro/production/_ext/770299191/plib_nvmctrl.o
 .debug_line    0x0000408c      0x221 build/sam_c21n_xpro/production/_ext/1390440390/plib_port.o
 .debug_line    0x000042ad      0x374 build/sam_c21n_xpro/production/_ext/1451668420/plib_sercom2_i2c_master.o
 .debug_line    0x00004621      0x4a1 build/sam_c21n_xpro/production/_ext/1993392304/plib_sercom1_usart.o
 .debug_line    0x00004ac2      0x4a1 build/sam_c21n_xpro/production/_ext/1993392304/plib_sercom0_usart.o
 .debug_line    0x00004f63      0x29f build/sam_c21n_xpro/production/_ext/1004774289/plib_systick.o
 .debug_line    0x00005202      0x1f3 build/sam_c21n_xpro/production/_ext/1617721454/plib_wdt.o
 .debug_line    0x000053f5       0xc0 build/sam_c21n_xpro/production/_ext/730014449/xc32_monitor.o
 .debug_line    0x000054b5      0x261 build/sam_c21n_xpro/production/_ext/855761890/sys_int.o
 .debug_line    0x00005716      0x6b9 build/sam_c21n_xpro/production/_ext/1758384875/initialization.o
 .debug_line    0x00005dcf      0x234 build/sam_c21n_xpro/production/_ext/1758384875/interrupts.o
 .debug_line    0x00006003      0x22f build/sam_c21n_xpro/production/_ext/1758384875/exceptions.o
 .debug_line    0x00006232      0x189 build/sam_c21n_xpro/production/_ext/1758384875/startup_xc32.o
 .debug_line    0x000063bb      0x387 build/sam_c21n_xpro/production/_ext/1360937237/main.o
 .debug_line    0x00006742      0x149 build/sam_c21n_xpro/production/_ext/1360937237/app.o
 .debug_line    0x0000688b       0xe3 c:/program files/microchip/xc32/v2.40/bin/bin/../../lib/gcc/pic32c/6.2.1/../../../../pic32c/lib\libpic32c.a(data_init.o)
 .debug_line    0x0000696e       0xb3 c:/program files/microchip/xc32/v2.40/bin/bin/../../lib/gcc/pic32c/6.2.1\libgcc.a(_udivsi3.o)
 .debug_line    0x00006a21       0x9c c:/program files/microchip/xc32/v2.40/bin/bin/../../lib/gcc/pic32c/6.2.1\libgcc.a(_dvmd_tls.o)
 .debug_line    0x00006abd       0xa7 c:/program files/microchip/xc32/v2.40/bin/bin/../../lib/gcc/pic32c/6.2.1\libgcc.a(_aeabi_uldivmod.o)
 .debug_line    0x00006b64      0x296 c:/program files/microchip/xc32/v2.40/bin/bin/../../lib/gcc/pic32c/6.2.1\libgcc.a(_muldi3.o)
 .debug_line    0x00006dfa      0x2b2 c:/program files/microchip/xc32/v2.40/bin/bin/../../lib/gcc/pic32c/6.2.1\libgcc.a(_udivmoddi4.o)
 .debug_line    0x000070ac      0x197 c:/program files/microchip/xc32/v2.40/bin/bin/../../lib/gcc/pic32c/6.2.1\libgcc.a(addsf3.o)
 .debug_line    0x00007243      0x161 c:/program files/microchip/xc32/v2.40/bin/bin/../../lib/gcc/pic32c/6.2.1\libgcc.a(divsf3.o)
 .debug_line    0x000073a4      0x15f c:/program files/microchip/xc32/v2.40/bin/bin/../../lib/gcc/pic32c/6.2.1\libgcc.a(mulsf3.o)
 .debug_line    0x00007503      0x19a c:/program files/microchip/xc32/v2.40/bin/bin/../../lib/gcc/pic32c/6.2.1\libgcc.a(subsf3.o)
 .debug_line    0x0000769d      0x12a c:/program files/microchip/xc32/v2.40/bin/bin/../../lib/gcc/pic32c/6.2.1\libgcc.a(fixsfsi.o)
 .debug_line    0x000077c7      0x132 c:/program files/microchip/xc32/v2.40/bin/bin/../../lib/gcc/pic32c/6.2.1\libgcc.a(floatsisf.o)
 .debug_line    0x000078f9      0x137 c:/program files/microchip/xc32/v2.40/bin/bin/../../lib/gcc/pic32c/6.2.1\libgcc.a(floatunsisf.o)
 .debug_line    0x00007a30      0x182 c:/program files/microchip/xc32/v2.40/bin/bin/../../lib/gcc/pic32c/6.2.1\libgcc.a(muldf3.o)
 .debug_line    0x00007bb2      0x12a c:/program files/microchip/xc32/v2.40/bin/bin/../../lib/gcc/pic32c/6.2.1\libgcc.a(floatsidf.o)
 .debug_line    0x00007cdc      0x145 c:/program files/microchip/xc32/v2.40/bin/bin/../../lib/gcc/pic32c/6.2.1\libgcc.a(extendsfdf2.o)
 .debug_line    0x00007e21      0x154 c:/program files/microchip/xc32/v2.40/bin/bin/../../lib/gcc/pic32c/6.2.1\libgcc.a(truncdfsf2.o)
 .debug_line    0x00007f75       0xa4 c:/program files/microchip/xc32/v2.40/bin/bin/../../lib/gcc/pic32c/6.2.1\libgcc.a(_thumb1_case_uqi.o)
 .debug_line    0x00008019       0xa5 c:/program files/microchip/xc32/v2.40/bin/bin/../../lib/gcc/pic32c/6.2.1\libgcc.a(_thumb1_case_uhi.o)
 .debug_line    0x000080be       0xa7 c:/program files/microchip/xc32/v2.40/bin/bin/../../lib/gcc/pic32c/6.2.1\libgcc.a(_lshrdi3.o)
 .debug_line    0x00008165       0xa7 c:/program files/microchip/xc32/v2.40/bin/bin/../../lib/gcc/pic32c/6.2.1\libgcc.a(_ashldi3.o)
 .debug_line    0x0000820c       0xb0 c:/program files/microchip/xc32/v2.40/bin/bin/../../lib/gcc/pic32c/6.2.1\libgcc.a(_clzsi2.o)
 .debug_line    0x000082bc       0xa6 c:/program files/microchip/xc32/v2.40/bin/bin/../../lib/gcc/pic32c/6.2.1\libgcc.a(_clzdi2.o)
 .debug_line    0x00008362      0x200 c:/program files/microchip/xc32/v2.40/bin/bin/../../lib/gcc/pic32c/6.2.1/../../../../pic32c/lib\libc_nano.a(lib_a-atof.o)
 .debug_line    0x00008562      0x212 c:/program files/microchip/xc32/v2.40/bin/bin/../../lib/gcc/pic32c/6.2.1/../../../../pic32c/lib\libc_nano.a(lib_a-atoi.o)
 .debug_line    0x00008774      0x118 c:/program files/microchip/xc32/v2.40/bin/bin/../../lib/gcc/pic32c/6.2.1/../../../../pic32c/lib\libc_nano.a(lib_a-init.o)
 .debug_line    0x0000888c      0x20a c:/program files/microchip/xc32/v2.40/bin/bin/../../lib/gcc/pic32c/6.2.1/../../../../pic32c/lib\libc_nano.a(lib_a-memcmp.o)
 .debug_line    0x00008a96      0x21c c:/program files/microchip/xc32/v2.40/bin/bin/../../lib/gcc/pic32c/6.2.1/../../../../pic32c/lib\libc_nano.a(lib_a-memcpy-stub.o)
 .debug_line    0x00008cb2      0x2ad c:/program files/microchip/xc32/v2.40/bin/bin/../../lib/gcc/pic32c/6.2.1/../../../../pic32c/lib\libc_nano.a(lib_a-memset.o)
 .debug_line    0x00008f5f      0x1d4 c:/program files/microchip/xc32/v2.40/bin/bin/../../lib/gcc/pic32c/6.2.1/../../../../pic32c/lib\libc_nano.a(_lib_a-sprintf.cdfFgGnopsuxX.o)
 .debug_line    0x00009133      0x20a c:/program files/microchip/xc32/v2.40/bin/bin/../../lib/gcc/pic32c/6.2.1/../../../../pic32c/lib\libc_nano.a(lib_a-strcat.o)
 .debug_line    0x0000933d       0xb1 c:/program files/microchip/xc32/v2.40/bin/bin/../../lib/gcc/pic32c/6.2.1/../../../../pic32c/lib\libc_nano.a(lib_a-strlen.o)
 .debug_line    0x000093ee      0x212 c:/program files/microchip/xc32/v2.40/bin/bin/../../lib/gcc/pic32c/6.2.1/../../../../pic32c/lib\libc_nano.a(lib_a-strstr.o)
 .debug_line    0x00009600      0x709 c:/program files/microchip/xc32/v2.40/bin/bin/../../lib/gcc/pic32c/6.2.1/../../../../pic32c/lib\libc_nano.a(lib_a-strtod.o)
 .debug_line    0x00009d09      0x360 c:/program files/microchip/xc32/v2.40/bin/bin/../../lib/gcc/pic32c/6.2.1/../../../../pic32c/lib\libc_nano.a(lib_a-strtol.o)
 .debug_line    0x0000a069      0x4c1 c:/program files/microchip/xc32/v2.40/bin/bin/../../lib/gcc/pic32c/6.2.1/../../../../pic32c/lib\libc_nano.a(lib_a-gdtoa-gethex.o)
 .debug_line    0x0000a52a      0x346 c:/program files/microchip/xc32/v2.40/bin/bin/../../lib/gcc/pic32c/6.2.1/../../../../pic32c/lib\libc_nano.a(lib_a-gdtoa-hexnan.o)
 .debug_line    0x0000a870      0x17e c:/program files/microchip/xc32/v2.40/bin/bin/../../lib/gcc/pic32c/6.2.1/../../../../pic32c/lib\libc_nano.a(lib_a-impure.o)
 .debug_line    0x0000a9ee      0x268 c:/program files/microchip/xc32/v2.40/bin/bin/../../lib/gcc/pic32c/6.2.1/../../../../pic32c/lib\libc_nano.a(lib_a-localeconv.o)
 .debug_line    0x0000ac56      0x32f c:/program files/microchip/xc32/v2.40/bin/bin/../../lib/gcc/pic32c/6.2.1/../../../../pic32c/lib\libc_nano.a(lib_a-locale.o)
 .debug_line    0x0000af85      0x2d9 c:/program files/microchip/xc32/v2.40/bin/bin/../../lib/gcc/pic32c/6.2.1/../../../../pic32c/lib\libc_nano.a(lib_a-mbtowc_r.o)
 .debug_line    0x0000b25e      0x6f2 c:/program files/microchip/xc32/v2.40/bin/bin/../../lib/gcc/pic32c/6.2.1/../../../../pic32c/lib\libc_nano.a(lib_a-mprec.o)
 .debug_line    0x0000b950      0x219 c:/program files/microchip/xc32/v2.40/bin/bin/../../lib/gcc/pic32c/6.2.1/../../../../pic32c/lib\libc_nano.a(lib_a-nano-callocr.o)
 .debug_line    0x0000bb69      0x259 c:/program files/microchip/xc32/v2.40/bin/bin/../../lib/gcc/pic32c/6.2.1/../../../../pic32c/lib\libc_nano.a(lib_a-nano-mallocr.o)
 .debug_line    0x0000bdc2      0x59a c:/program files/microchip/xc32/v2.40/bin/bin/../../lib/gcc/pic32c/6.2.1/../../../../pic32c/lib\libc_nano.a(_lib_a-nano-vfprintf.cdfFgGnopsuxX.o)
 .debug_line    0x0000c35c      0x490 c:/program files/microchip/xc32/v2.40/bin/bin/../../lib/gcc/pic32c/6.2.1/../../../../pic32c/lib\libc_nano.a(lib_a-nano-vfprintf_i.o)
 .debug_line    0x0000c7ec      0x214 c:/program files/microchip/xc32/v2.40/bin/bin/../../lib/gcc/pic32c/6.2.1/../../../../pic32c/lib\libc_nano.a(lib_a-sbrkr.o)
 .debug_line    0x0000ca00      0x365 c:/program files/microchip/xc32/v2.40/bin/bin/../../lib/gcc/pic32c/6.2.1/../../../../pic32c/lib\libc_nano.a(lib_a-__ssfputs.o)
 .debug_line    0x0000cd65      0x20d c:/program files/microchip/xc32/v2.40/bin/bin/../../lib/gcc/pic32c/6.2.1/../../../../pic32c/lib\libc_nano.a(lib_a-strncmp.o)
 .debug_line    0x0000cf72      0x27d c:/program files/microchip/xc32/v2.40/bin/bin/../../lib/gcc/pic32c/6.2.1/../../../../pic32c/lib\libc_nano.a(lib_a-wbuf.o)
 .debug_line    0x0000d1ef      0x2cf c:/program files/microchip/xc32/v2.40/bin/bin/../../lib/gcc/pic32c/6.2.1/../../../../pic32c/lib\libc_nano.a(lib_a-wctomb_r.o)
 .debug_line    0x0000d4be      0x26c c:/program files/microchip/xc32/v2.40/bin/bin/../../lib/gcc/pic32c/6.2.1/../../../../pic32c/lib\libc_nano.a(lib_a-wsetup.o)
 .debug_line    0x0000d72a      0x21e c:/program files/microchip/xc32/v2.40/bin/bin/../../lib/gcc/pic32c/6.2.1/../../../../pic32c/lib\libc_nano.a(lib_a-ctype_.o)
 .debug_line    0x0000d948      0x65e c:/program files/microchip/xc32/v2.40/bin/bin/../../lib/gcc/pic32c/6.2.1/../../../../pic32c/lib\libc_nano.a(lib_a-dtoa.o)
 .debug_line    0x0000dfa6      0x2d3 c:/program files/microchip/xc32/v2.40/bin/bin/../../lib/gcc/pic32c/6.2.1/../../../../pic32c/lib\libc_nano.a(lib_a-fflush.o)
 .debug_line    0x0000e279      0x315 c:/program files/microchip/xc32/v2.40/bin/bin/../../lib/gcc/pic32c/6.2.1/../../../../pic32c/lib\libc_nano.a(lib_a-findfp.o)
 .debug_line    0x0000e58e      0x2a0 c:/program files/microchip/xc32/v2.40/bin/bin/../../lib/gcc/pic32c/6.2.1/../../../../pic32c/lib\libc_nano.a(lib_a-fputwc.o)
 .debug_line    0x0000e82e      0x269 c:/program files/microchip/xc32/v2.40/bin/bin/../../lib/gcc/pic32c/6.2.1/../../../../pic32c/lib\libc_nano.a(lib_a-fwalk.o)
 .debug_line    0x0000ea97      0x328 c:/program files/microchip/xc32/v2.40/bin/bin/../../lib/gcc/pic32c/6.2.1/../../../../pic32c/lib\libc_nano.a(lib_a-makebuf.o)
 .debug_line    0x0000edbf      0x224 c:/program files/microchip/xc32/v2.40/bin/bin/../../lib/gcc/pic32c/6.2.1/../../../../pic32c/lib\libc_nano.a(lib_a-malloc.o)
 .debug_line    0x0000efe3      0x21c c:/program files/microchip/xc32/v2.40/bin/bin/../../lib/gcc/pic32c/6.2.1/../../../../pic32c/lib\libc_nano.a(lib_a-memchr-stub.o)
 .debug_line    0x0000f1ff      0x18e c:/program files/microchip/xc32/v2.40/bin/bin/../../lib/gcc/pic32c/6.2.1/../../../../pic32c/lib\libc_nano.a(lib_a-mlock.o)
 .debug_line    0x0000f38d      0x1d4 c:/program files/microchip/xc32/v2.40/bin/bin/../../lib/gcc/pic32c/6.2.1/../../../../pic32c/lib\libc_nano.a(lib_a-nano-freer.o)
 .debug_line    0x0000f561      0x23f c:/program files/microchip/xc32/v2.40/bin/bin/../../lib/gcc/pic32c/6.2.1/../../../../pic32c/lib\libc_nano.a(lib_a-reent.o)
 .debug_line    0x0000f7a0      0x2a3 c:/program files/microchip/xc32/v2.40/bin/bin/../../lib/gcc/pic32c/6.2.1/../../../../pic32c/lib\libc_nano.a(lib_a-stdio.o)
 .debug_line    0x0000fa43      0x2ee c:/program files/microchip/xc32/v2.40/bin/bin/../../lib/gcc/pic32c/6.2.1/../../../../pic32c/lib\libc_nano.a(lib_a-wcrtomb.o)
 .debug_line    0x0000fd31      0x211 c:/program files/microchip/xc32/v2.40/bin/bin/../../lib/gcc/pic32c/6.2.1/../../../../pic32c/lib\libc_nano.a(lib_a-writer.o)
 .debug_line    0x0000ff42      0x215 c:/program files/microchip/xc32/v2.40/bin/bin/../../lib/gcc/pic32c/6.2.1/../../../../pic32c/lib\libc_nano.a(lib_a-closer.o)
 .debug_line    0x00010157      0x2c3 c:/program files/microchip/xc32/v2.40/bin/bin/../../lib/gcc/pic32c/6.2.1/../../../../pic32c/lib\libc_nano.a(lib_a-fstatr.o)
 .debug_line    0x0001041a      0x216 c:/program files/microchip/xc32/v2.40/bin/bin/../../lib/gcc/pic32c/6.2.1/../../../../pic32c/lib\libc_nano.a(lib_a-isattyr.o)
 .debug_line    0x00010630      0x211 c:/program files/microchip/xc32/v2.40/bin/bin/../../lib/gcc/pic32c/6.2.1/../../../../pic32c/lib\libc_nano.a(lib_a-lseekr.o)
 .debug_line    0x00010841      0x210 c:/program files/microchip/xc32/v2.40/bin/bin/../../lib/gcc/pic32c/6.2.1/../../../../pic32c/lib\libc_nano.a(lib_a-readr.o)
 .debug_line    0x00010a51       0x9d c:/program files/microchip/xc32/v2.40/bin/bin/../../lib/gcc/pic32c/6.2.1/../../../../pic32c/lib\libpic32c.a(_close.o)
 .debug_line    0x00010aee       0x9d c:/program files/microchip/xc32/v2.40/bin/bin/../../lib/gcc/pic32c/6.2.1/../../../../pic32c/lib\libpic32c.a(_fstat.o)
 .debug_line    0x00010b8b       0x9e c:/program files/microchip/xc32/v2.40/bin/bin/../../lib/gcc/pic32c/6.2.1/../../../../pic32c/lib\libpic32c.a(_isatty.o)
 .debug_line    0x00010c29       0x9d c:/program files/microchip/xc32/v2.40/bin/bin/../../lib/gcc/pic32c/6.2.1/../../../../pic32c/lib\libpic32c.a(_lseek.o)
 .debug_line    0x00010cc6       0x9c c:/program files/microchip/xc32/v2.40/bin/bin/../../lib/gcc/pic32c/6.2.1/../../../../pic32c/lib\libpic32c.a(_read.o)
 .debug_line    0x00010d62       0xa4 c:/program files/microchip/xc32/v2.40/bin/bin/../../lib/gcc/pic32c/6.2.1/../../../../pic32c/lib\libpic32c.a(sbrk.o)
 .debug_line    0x00010e06       0x9d c:/program files/microchip/xc32/v2.40/bin/bin/../../lib/gcc/pic32c/6.2.1/../../../../pic32c/lib\libpic32c.a(_write.o)
 .debug_line    0x00010ea3       0x9b c:/program files/microchip/xc32/v2.40/bin/bin/../../lib/gcc/pic32c/6.2.1/../../../../pic32c/lib\libpic32c.a(close.o)
 .debug_line    0x00010f3e      0x104 c:/program files/microchip/xc32/v2.40/bin/bin/../../lib/gcc/pic32c/6.2.1/../../../../pic32c/lib\libpic32c.a(fstat.o)
 .debug_line    0x00011042       0x9c c:/program files/microchip/xc32/v2.40/bin/bin/../../lib/gcc/pic32c/6.2.1/../../../../pic32c/lib\libpic32c.a(isatty.o)
 .debug_line    0x000110de       0x9b c:/program files/microchip/xc32/v2.40/bin/bin/../../lib/gcc/pic32c/6.2.1/../../../../pic32c/lib\libpic32c.a(lseek.o)
 .debug_line    0x00011179       0xc1 c:/program files/microchip/xc32/v2.40/bin/bin/../../lib/gcc/pic32c/6.2.1\libgcc.a(_divsi3.o)
 .debug_line    0x0001123a       0xb4 c:/program files/microchip/xc32/v2.40/bin/bin/../../lib/gcc/pic32c/6.2.1\libgcc.a(_arm_cmpdf2.o)
 .debug_line    0x000112ee      0x28c c:/program files/microchip/xc32/v2.40/bin/bin/../../lib/gcc/pic32c/6.2.1\libgcc.a(_fixunsdfsi.o)
 .debug_line    0x0001157a      0x1c8 c:/program files/microchip/xc32/v2.40/bin/bin/../../lib/gcc/pic32c/6.2.1\libgcc.a(adddf3.o)
 .debug_line    0x00011742      0x1a4 c:/program files/microchip/xc32/v2.40/bin/bin/../../lib/gcc/pic32c/6.2.1\libgcc.a(divdf3.o)
 .debug_line    0x000118e6      0x14c c:/program files/microchip/xc32/v2.40/bin/bin/../../lib/gcc/pic32c/6.2.1\libgcc.a(eqdf2.o)
 .debug_line    0x00011a32      0x14c c:/program files/microchip/xc32/v2.40/bin/bin/../../lib/gcc/pic32c/6.2.1\libgcc.a(gedf2.o)
 .debug_line    0x00011b7e      0x14f c:/program files/microchip/xc32/v2.40/bin/bin/../../lib/gcc/pic32c/6.2.1\libgcc.a(ledf2.o)
 .debug_line    0x00011ccd      0x1cd c:/program files/microchip/xc32/v2.40/bin/bin/../../lib/gcc/pic32c/6.2.1\libgcc.a(subdf3.o)
 .debug_line    0x00011e9a      0x141 c:/program files/microchip/xc32/v2.40/bin/bin/../../lib/gcc/pic32c/6.2.1\libgcc.a(unorddf2.o)
 .debug_line    0x00011fdb      0x12f c:/program files/microchip/xc32/v2.40/bin/bin/../../lib/gcc/pic32c/6.2.1\libgcc.a(fixdfsi.o)
 .debug_line    0x0001210a      0x12c c:/program files/microchip/xc32/v2.40/bin/bin/../../lib/gcc/pic32c/6.2.1\libgcc.a(floatunsidf.o)

.debug_str      0x00000000     0x27b5
 .debug_str     0x00000000       0xd6 build/sam_c21n_xpro/production/_ext/1360937237/appiot.o
 .debug_str     0x000000d6       0x8b build/sam_c21n_xpro/production/_ext/1360937237/moden.o
 .debug_str     0x00000161       0xe7 build/sam_c21n_xpro/production/_ext/1360937237/canapp.o
 .debug_str     0x00000248       0x8e build/sam_c21n_xpro/production/_ext/1360937237/appuart.o
 .debug_str     0x000002d6       0x78 build/sam_c21n_xpro/production/_ext/1360937237/appemueeprom.o
 .debug_str     0x0000034e       0x61 build/sam_c21n_xpro/production/_ext/1360937237/apptimer.o
 .debug_str     0x000003af       0x8f build/sam_c21n_xpro/production/_ext/1360937237/app_uart_debug.o
 .debug_str     0x0000043e       0xac build/sam_c21n_xpro/production/_ext/1936826263/drv_at24.o
 .debug_str     0x000004ea      0x124 build/sam_c21n_xpro/production/_ext/1274584173/drv_usart.o
 .debug_str     0x0000060e       0xd4 build/sam_c21n_xpro/production/_ext/1019481632/emulated_eeprom.o
 .debug_str     0x000006e2        0xe build/sam_c21n_xpro/production/_ext/1617700295/plib_adc0.o
 .debug_str     0x000006f0       0xb3 build/sam_c21n_xpro/production/_ext/1617702135/plib_can0.o
 .debug_str     0x000007a3       0x1e build/sam_c21n_xpro/production/_ext/166077579/plib_clock.o
 .debug_str     0x000007c1        0x9 build/sam_c21n_xpro/production/_ext/1617704294/plib_eic.o
 .debug_str     0x000007ca        0x0 build/sam_c21n_xpro/production/_ext/163928093/plib_evsys.o
 .debug_str     0x000007ca        0xa build/sam_c21n_xpro/production/_ext/1390493541/plib_nvic.o
 .debug_str     0x000007d4       0x24 build/sam_c21n_xpro/production/_ext/770299191/plib_nvmctrl.o
 .debug_str     0x000007f8        0xb build/sam_c21n_xpro/production/_ext/1390440390/plib_port.o
 .debug_str     0x00000803      0x157 build/sam_c21n_xpro/production/_ext/1451668420/plib_sercom2_i2c_master.o
 .debug_str     0x0000095a      0x1aa build/sam_c21n_xpro/production/_ext/1993392304/plib_sercom1_usart.o
 .debug_str     0x00000b04      0x1aa build/sam_c21n_xpro/production/_ext/1993392304/plib_sercom0_usart.o
 .debug_str     0x00000cae       0x56 build/sam_c21n_xpro/production/_ext/1004774289/plib_systick.o
 .debug_str     0x00000d04        0x0 build/sam_c21n_xpro/production/_ext/1617721454/plib_wdt.o
 .debug_str     0x00000d04        0x0 build/sam_c21n_xpro/production/_ext/730014449/xc32_monitor.o
 .debug_str     0x00000d04       0x32 build/sam_c21n_xpro/production/_ext/855761890/sys_int.o
 .debug_str     0x00000d36      0x1c3 build/sam_c21n_xpro/production/_ext/1758384875/initialization.o
 .debug_str     0x00000ef9        0xe build/sam_c21n_xpro/production/_ext/1758384875/interrupts.o
 .debug_str     0x00000f07        0xe build/sam_c21n_xpro/production/_ext/1758384875/exceptions.o
 .debug_str     0x00000f15       0x2f build/sam_c21n_xpro/production/_ext/1758384875/startup_xc32.o
 .debug_str     0x00000f44      0x128 build/sam_c21n_xpro/production/_ext/1360937237/main.o
 .debug_str     0x0000106c        0xe build/sam_c21n_xpro/production/_ext/1360937237/app.o
 .debug_str     0x0000107a        0x0 c:/program files/microchip/xc32/v2.40/bin/bin/../../lib/gcc/pic32c/6.2.1/../../../../pic32c/lib\libpic32c.a(data_init.o)
 .debug_str     0x0000107a        0x0 c:/program files/microchip/xc32/v2.40/bin/bin/../../lib/gcc/pic32c/6.2.1\libgcc.a(_muldi3.o)
 .debug_str     0x0000107a        0x0 c:/program files/microchip/xc32/v2.40/bin/bin/../../lib/gcc/pic32c/6.2.1\libgcc.a(_udivmoddi4.o)
 .debug_str     0x0000107a       0x2c c:/program files/microchip/xc32/v2.40/bin/bin/../../lib/gcc/pic32c/6.2.1\libgcc.a(addsf3.o)
 .debug_str     0x000010a6       0x30 c:/program files/microchip/xc32/v2.40/bin/bin/../../lib/gcc/pic32c/6.2.1\libgcc.a(divsf3.o)
 .debug_str     0x000010d6       0x30 c:/program files/microchip/xc32/v2.40/bin/bin/../../lib/gcc/pic32c/6.2.1\libgcc.a(mulsf3.o)
 .debug_str     0x00001106       0x2c c:/program files/microchip/xc32/v2.40/bin/bin/../../lib/gcc/pic32c/6.2.1\libgcc.a(subsf3.o)
 .debug_str     0x00001132       0x13 c:/program files/microchip/xc32/v2.40/bin/bin/../../lib/gcc/pic32c/6.2.1\libgcc.a(fixsfsi.o)
 .debug_str     0x00001145        0x0 c:/program files/microchip/xc32/v2.40/bin/bin/../../lib/gcc/pic32c/6.2.1\libgcc.a(floatsisf.o)
 .debug_str     0x00001145        0x0 c:/program files/microchip/xc32/v2.40/bin/bin/../../lib/gcc/pic32c/6.2.1\libgcc.a(floatunsisf.o)
 .debug_str     0x00001145       0x56 c:/program files/microchip/xc32/v2.40/bin/bin/../../lib/gcc/pic32c/6.2.1\libgcc.a(muldf3.o)
 .debug_str     0x0000119b        0x0 c:/program files/microchip/xc32/v2.40/bin/bin/../../lib/gcc/pic32c/6.2.1\libgcc.a(floatsidf.o)
 .debug_str     0x0000119b        0x0 c:/program files/microchip/xc32/v2.40/bin/bin/../../lib/gcc/pic32c/6.2.1\libgcc.a(extendsfdf2.o)
 .debug_str     0x0000119b        0x0 c:/program files/microchip/xc32/v2.40/bin/bin/../../lib/gcc/pic32c/6.2.1\libgcc.a(truncdfsf2.o)
 .debug_str     0x0000119b        0x9 c:/program files/microchip/xc32/v2.40/bin/bin/../../lib/gcc/pic32c/6.2.1/../../../../pic32c/lib\libc_nano.a(lib_a-atof.o)
 .debug_str     0x000011a4       0x13 c:/program files/microchip/xc32/v2.40/bin/bin/../../lib/gcc/pic32c/6.2.1/../../../../pic32c/lib\libc_nano.a(lib_a-atoi.o)
 .debug_str     0x000011b7        0x0 c:/program files/microchip/xc32/v2.40/bin/bin/../../lib/gcc/pic32c/6.2.1/../../../../pic32c/lib\libc_nano.a(lib_a-init.o)
 .debug_str     0x000011b7        0x9 c:/program files/microchip/xc32/v2.40/bin/bin/../../lib/gcc/pic32c/6.2.1/../../../../pic32c/lib\libc_nano.a(lib_a-memcmp.o)
 .debug_str     0x000011c0        0x9 c:/program files/microchip/xc32/v2.40/bin/bin/../../lib/gcc/pic32c/6.2.1/../../../../pic32c/lib\libc_nano.a(lib_a-memcpy-stub.o)
 .debug_str     0x000011c9      0x114 c:/program files/microchip/xc32/v2.40/bin/bin/../../lib/gcc/pic32c/6.2.1/../../../../pic32c/lib\libc_nano.a(lib_a-memset.o)
 .debug_str     0x000012dd       0x21 c:/program files/microchip/xc32/v2.40/bin/bin/../../lib/gcc/pic32c/6.2.1/../../../../pic32c/lib\libc_nano.a(_lib_a-sprintf.cdfFgGnopsuxX.o)
 .debug_str     0x000012fe        0x9 c:/program files/microchip/xc32/v2.40/bin/bin/../../lib/gcc/pic32c/6.2.1/../../../../pic32c/lib\libc_nano.a(lib_a-strcat.o)
 .debug_str     0x00001307        0x9 c:/program files/microchip/xc32/v2.40/bin/bin/../../lib/gcc/pic32c/6.2.1/../../../../pic32c/lib\libc_nano.a(lib_a-strstr.o)
 .debug_str     0x00001310      0x15f c:/program files/microchip/xc32/v2.40/bin/bin/../../lib/gcc/pic32c/6.2.1/../../../../pic32c/lib\libc_nano.a(lib_a-strtod.o)
 .debug_str     0x0000146f      0x129 c:/program files/microchip/xc32/v2.40/bin/bin/../../lib/gcc/pic32c/6.2.1/../../../../pic32c/lib\libc_nano.a(lib_a-strtol.o)
 .debug_str     0x00001598      0x13f c:/program files/microchip/xc32/v2.40/bin/bin/../../lib/gcc/pic32c/6.2.1/../../../../pic32c/lib\libc_nano.a(lib_a-gdtoa-gethex.o)
 .debug_str     0x000016d7      0x121 c:/program files/microchip/xc32/v2.40/bin/bin/../../lib/gcc/pic32c/6.2.1/../../../../pic32c/lib\libc_nano.a(lib_a-gdtoa-hexnan.o)
 .debug_str     0x000017f8        0x9 c:/program files/microchip/xc32/v2.40/bin/bin/../../lib/gcc/pic32c/6.2.1/../../../../pic32c/lib\libc_nano.a(lib_a-impure.o)
 .debug_str     0x00001801      0x114 c:/program files/microchip/xc32/v2.40/bin/bin/../../lib/gcc/pic32c/6.2.1/../../../../pic32c/lib\libc_nano.a(lib_a-localeconv.o)
 .debug_str     0x00001915      0x134 c:/program files/microchip/xc32/v2.40/bin/bin/../../lib/gcc/pic32c/6.2.1/../../../../pic32c/lib\libc_nano.a(lib_a-locale.o)
 .debug_str     0x00001a49      0x114 c:/program files/microchip/xc32/v2.40/bin/bin/../../lib/gcc/pic32c/6.2.1/../../../../pic32c/lib\libc_nano.a(lib_a-mbtowc_r.o)
 .debug_str     0x00001b5d      0x11e c:/program files/microchip/xc32/v2.40/bin/bin/../../lib/gcc/pic32c/6.2.1/../../../../pic32c/lib\libc_nano.a(lib_a-mprec.o)
 .debug_str     0x00001c7b       0x13 c:/program files/microchip/xc32/v2.40/bin/bin/../../lib/gcc/pic32c/6.2.1/../../../../pic32c/lib\libc_nano.a(lib_a-nano-callocr.o)
 .debug_str     0x00001c8e       0x31 c:/program files/microchip/xc32/v2.40/bin/bin/../../lib/gcc/pic32c/6.2.1/../../../../pic32c/lib\libc_nano.a(lib_a-nano-mallocr.o)
 .debug_str     0x00001cbf      0x150 c:/program files/microchip/xc32/v2.40/bin/bin/../../lib/gcc/pic32c/6.2.1/../../../../pic32c/lib\libc_nano.a(_lib_a-nano-vfprintf.cdfFgGnopsuxX.o)
 .debug_str     0x00001e0f      0x11b c:/program files/microchip/xc32/v2.40/bin/bin/../../lib/gcc/pic32c/6.2.1/../../../../pic32c/lib\libc_nano.a(lib_a-nano-vfprintf_i.o)
 .debug_str     0x00001f2a        0x9 c:/program files/microchip/xc32/v2.40/bin/bin/../../lib/gcc/pic32c/6.2.1/../../../../pic32c/lib\libc_nano.a(lib_a-sbrkr.o)
 .debug_str     0x00001f33      0x128 c:/program files/microchip/xc32/v2.40/bin/bin/../../lib/gcc/pic32c/6.2.1/../../../../pic32c/lib\libc_nano.a(lib_a-__ssfputs.o)
 .debug_str     0x0000205b        0x9 c:/program files/microchip/xc32/v2.40/bin/bin/../../lib/gcc/pic32c/6.2.1/../../../../pic32c/lib\libc_nano.a(lib_a-strncmp.o)
 .debug_str     0x00002064       0x1f c:/program files/microchip/xc32/v2.40/bin/bin/../../lib/gcc/pic32c/6.2.1/../../../../pic32c/lib\libc_nano.a(lib_a-wbuf.o)
 .debug_str     0x00002083      0x114 c:/program files/microchip/xc32/v2.40/bin/bin/../../lib/gcc/pic32c/6.2.1/../../../../pic32c/lib\libc_nano.a(lib_a-wctomb_r.o)
 .debug_str     0x00002197       0x16 c:/program files/microchip/xc32/v2.40/bin/bin/../../lib/gcc/pic32c/6.2.1/../../../../pic32c/lib\libc_nano.a(lib_a-wsetup.o)
 .debug_str     0x000021ad      0x114 c:/program files/microchip/xc32/v2.40/bin/bin/../../lib/gcc/pic32c/6.2.1/../../../../pic32c/lib\libc_nano.a(lib_a-ctype_.o)
 .debug_str     0x000022c1      0x147 c:/program files/microchip/xc32/v2.40/bin/bin/../../lib/gcc/pic32c/6.2.1/../../../../pic32c/lib\libc_nano.a(lib_a-dtoa.o)
 .debug_str     0x00002408       0x16 c:/program files/microchip/xc32/v2.40/bin/bin/../../lib/gcc/pic32c/6.2.1/../../../../pic32c/lib\libc_nano.a(lib_a-fflush.o)
 .debug_str     0x0000241e       0x20 c:/program files/microchip/xc32/v2.40/bin/bin/../../lib/gcc/pic32c/6.2.1/../../../../pic32c/lib\libc_nano.a(lib_a-findfp.o)
 .debug_str     0x0000243e       0x32 c:/program files/microchip/xc32/v2.40/bin/bin/../../lib/gcc/pic32c/6.2.1/../../../../pic32c/lib\libc_nano.a(lib_a-fputwc.o)
 .debug_str     0x00002470        0x9 c:/program files/microchip/xc32/v2.40/bin/bin/../../lib/gcc/pic32c/6.2.1/../../../../pic32c/lib\libc_nano.a(lib_a-fwalk.o)
 .debug_str     0x00002479       0x31 c:/program files/microchip/xc32/v2.40/bin/bin/../../lib/gcc/pic32c/6.2.1/../../../../pic32c/lib\libc_nano.a(lib_a-makebuf.o)
 .debug_str     0x000024aa       0x13 c:/program files/microchip/xc32/v2.40/bin/bin/../../lib/gcc/pic32c/6.2.1/../../../../pic32c/lib\libc_nano.a(lib_a-malloc.o)
 .debug_str     0x000024bd        0x9 c:/program files/microchip/xc32/v2.40/bin/bin/../../lib/gcc/pic32c/6.2.1/../../../../pic32c/lib\libc_nano.a(lib_a-memchr-stub.o)
 .debug_str     0x000024c6        0x9 c:/program files/microchip/xc32/v2.40/bin/bin/../../lib/gcc/pic32c/6.2.1/../../../../pic32c/lib\libc_nano.a(lib_a-mlock.o)
 .debug_str     0x000024cf       0x27 c:/program files/microchip/xc32/v2.40/bin/bin/../../lib/gcc/pic32c/6.2.1/../../../../pic32c/lib\libc_nano.a(lib_a-nano-freer.o)
 .debug_str     0x000024f6        0x9 c:/program files/microchip/xc32/v2.40/bin/bin/../../lib/gcc/pic32c/6.2.1/../../../../pic32c/lib\libc_nano.a(lib_a-reent.o)
 .debug_str     0x000024ff       0x2b c:/program files/microchip/xc32/v2.40/bin/bin/../../lib/gcc/pic32c/6.2.1/../../../../pic32c/lib\libc_nano.a(lib_a-stdio.o)
 .debug_str     0x0000252a      0x114 c:/program files/microchip/xc32/v2.40/bin/bin/../../lib/gcc/pic32c/6.2.1/../../../../pic32c/lib\libc_nano.a(lib_a-wcrtomb.o)
 .debug_str     0x0000263e       0x10 c:/program files/microchip/xc32/v2.40/bin/bin/../../lib/gcc/pic32c/6.2.1/../../../../pic32c/lib\libc_nano.a(lib_a-writer.o)
 .debug_str     0x0000264e       0x10 c:/program files/microchip/xc32/v2.40/bin/bin/../../lib/gcc/pic32c/6.2.1/../../../../pic32c/lib\libc_nano.a(lib_a-closer.o)
 .debug_str     0x0000265e        0x9 c:/program files/microchip/xc32/v2.40/bin/bin/../../lib/gcc/pic32c/6.2.1/../../../../pic32c/lib\libc_nano.a(lib_a-fstatr.o)
 .debug_str     0x00002667        0x9 c:/program files/microchip/xc32/v2.40/bin/bin/../../lib/gcc/pic32c/6.2.1/../../../../pic32c/lib\libc_nano.a(lib_a-isattyr.o)
 .debug_str     0x00002670        0x9 c:/program files/microchip/xc32/v2.40/bin/bin/../../lib/gcc/pic32c/6.2.1/../../../../pic32c/lib\libc_nano.a(lib_a-lseekr.o)
 .debug_str     0x00002679        0x9 c:/program files/microchip/xc32/v2.40/bin/bin/../../lib/gcc/pic32c/6.2.1/../../../../pic32c/lib\libc_nano.a(lib_a-readr.o)
 .debug_str     0x00002682        0x0 c:/program files/microchip/xc32/v2.40/bin/bin/../../lib/gcc/pic32c/6.2.1/../../../../pic32c/lib\libpic32c.a(_close.o)
 .debug_str     0x00002682        0x0 c:/program files/microchip/xc32/v2.40/bin/bin/../../lib/gcc/pic32c/6.2.1/../../../../pic32c/lib\libpic32c.a(_fstat.o)
 .debug_str     0x00002682        0x0 c:/program files/microchip/xc32/v2.40/bin/bin/../../lib/gcc/pic32c/6.2.1/../../../../pic32c/lib\libpic32c.a(_isatty.o)
 .debug_str     0x00002682        0x0 c:/program files/microchip/xc32/v2.40/bin/bin/../../lib/gcc/pic32c/6.2.1/../../../../pic32c/lib\libpic32c.a(_lseek.o)
 .debug_str     0x00002682        0x0 c:/program files/microchip/xc32/v2.40/bin/bin/../../lib/gcc/pic32c/6.2.1/../../../../pic32c/lib\libpic32c.a(_read.o)
 .debug_str     0x00002682        0x0 c:/program files/microchip/xc32/v2.40/bin/bin/../../lib/gcc/pic32c/6.2.1/../../../../pic32c/lib\libpic32c.a(sbrk.o)
 .debug_str     0x00002682        0x0 c:/program files/microchip/xc32/v2.40/bin/bin/../../lib/gcc/pic32c/6.2.1/../../../../pic32c/lib\libpic32c.a(_write.o)
 .debug_str     0x00002682        0x0 c:/program files/microchip/xc32/v2.40/bin/bin/../../lib/gcc/pic32c/6.2.1/../../../../pic32c/lib\libpic32c.a(close.o)
 .debug_str     0x00002682        0x0 c:/program files/microchip/xc32/v2.40/bin/bin/../../lib/gcc/pic32c/6.2.1/../../../../pic32c/lib\libpic32c.a(fstat.o)
 .debug_str     0x00002682        0x0 c:/program files/microchip/xc32/v2.40/bin/bin/../../lib/gcc/pic32c/6.2.1/../../../../pic32c/lib\libpic32c.a(isatty.o)
 .debug_str     0x00002682        0x0 c:/program files/microchip/xc32/v2.40/bin/bin/../../lib/gcc/pic32c/6.2.1/../../../../pic32c/lib\libpic32c.a(lseek.o)
 .debug_str     0x00002682        0x0 c:/program files/microchip/xc32/v2.40/bin/bin/../../lib/gcc/pic32c/6.2.1\libgcc.a(_fixunsdfsi.o)
 .debug_str     0x00002682       0x2c c:/program files/microchip/xc32/v2.40/bin/bin/../../lib/gcc/pic32c/6.2.1\libgcc.a(adddf3.o)
 .debug_str     0x000026ae       0x30 c:/program files/microchip/xc32/v2.40/bin/bin/../../lib/gcc/pic32c/6.2.1\libgcc.a(divdf3.o)
 .debug_str     0x000026de       0x26 c:/program files/microchip/xc32/v2.40/bin/bin/../../lib/gcc/pic32c/6.2.1\libgcc.a(eqdf2.o)
 .debug_str     0x00002704       0x26 c:/program files/microchip/xc32/v2.40/bin/bin/../../lib/gcc/pic32c/6.2.1\libgcc.a(gedf2.o)
 .debug_str     0x0000272a       0x26 c:/program files/microchip/xc32/v2.40/bin/bin/../../lib/gcc/pic32c/6.2.1\libgcc.a(ledf2.o)
 .debug_str     0x00002750       0x2c c:/program files/microchip/xc32/v2.40/bin/bin/../../lib/gcc/pic32c/6.2.1\libgcc.a(subdf3.o)
 .debug_str     0x0000277c       0x26 c:/program files/microchip/xc32/v2.40/bin/bin/../../lib/gcc/pic32c/6.2.1\libgcc.a(unorddf2.o)
 .debug_str     0x000027a2       0x13 c:/program files/microchip/xc32/v2.40/bin/bin/../../lib/gcc/pic32c/6.2.1\libgcc.a(fixdfsi.o)
 .debug_str     0x000027b5        0x0 c:/program files/microchip/xc32/v2.40/bin/bin/../../lib/gcc/pic32c/6.2.1\libgcc.a(floatunsidf.o)

.debug_frame    0x00000000     0x2eb4
 .debug_frame   0x00000000       0xdc build/sam_c21n_xpro/production/_ext/1360937237/appiot.o
 .debug_frame   0x000000dc       0xcc build/sam_c21n_xpro/production/_ext/1360937237/moden.o
 .debug_frame   0x000001a8      0x388 build/sam_c21n_xpro/production/_ext/1360937237/canapp.o
 .debug_frame   0x00000530       0x58 build/sam_c21n_xpro/production/_ext/1360937237/appuart.o
 .debug_frame   0x00000588       0xa0 build/sam_c21n_xpro/production/_ext/1360937237/appemueeprom.o
 .debug_frame   0x00000628       0x48 build/sam_c21n_xpro/production/_ext/1360937237/apptimer.o
 .debug_frame   0x00000670       0x70 build/sam_c21n_xpro/production/_ext/1360937237/app_uart_debug.o
 .debug_frame   0x000006e0      0x148 build/sam_c21n_xpro/production/_ext/1936826263/drv_at24.o
 .debug_frame   0x00000828      0x124 build/sam_c21n_xpro/production/_ext/1274584173/drv_usart.o
 .debug_frame   0x0000094c      0x1fc build/sam_c21n_xpro/production/_ext/1019481632/emulated_eeprom.o
 .debug_frame   0x00000b48       0xe0 build/sam_c21n_xpro/production/_ext/1617700295/plib_adc0.o
 .debug_frame   0x00000c28      0x1cc build/sam_c21n_xpro/production/_ext/1617702135/plib_can0.o
 .debug_frame   0x00000df4       0x20 build/sam_c21n_xpro/production/_ext/166077579/plib_clock.o
 .debug_frame   0x00000e14       0x80 build/sam_c21n_xpro/production/_ext/1617704294/plib_eic.o
 .debug_frame   0x00000e94       0x20 build/sam_c21n_xpro/production/_ext/163928093/plib_evsys.o
 .debug_frame   0x00000eb4       0x58 build/sam_c21n_xpro/production/_ext/1390493541/plib_nvic.o
 .debug_frame   0x00000f0c      0x148 build/sam_c21n_xpro/production/_ext/770299191/plib_nvmctrl.o
 .debug_frame   0x00001054       0xd4 build/sam_c21n_xpro/production/_ext/1390440390/plib_port.o
 .debug_frame   0x00001128       0xf8 build/sam_c21n_xpro/production/_ext/1451668420/plib_sercom2_i2c_master.o
 .debug_frame   0x00001220      0x1dc build/sam_c21n_xpro/production/_ext/1993392304/plib_sercom1_usart.o
 .debug_frame   0x000013fc      0x1dc build/sam_c21n_xpro/production/_ext/1993392304/plib_sercom0_usart.o
 .debug_frame   0x000015d8      0x138 build/sam_c21n_xpro/production/_ext/1004774289/plib_systick.o
 .debug_frame   0x00001710       0xb0 build/sam_c21n_xpro/production/_ext/1617721454/plib_wdt.o
 .debug_frame   0x000017c0       0x30 build/sam_c21n_xpro/production/_ext/730014449/xc32_monitor.o
 .debug_frame   0x000017f0       0x84 build/sam_c21n_xpro/production/_ext/855761890/sys_int.o
 .debug_frame   0x00001874       0x28 build/sam_c21n_xpro/production/_ext/1758384875/initialization.o
 .debug_frame   0x0000189c       0x20 build/sam_c21n_xpro/production/_ext/1758384875/interrupts.o
 .debug_frame   0x000018bc       0x30 build/sam_c21n_xpro/production/_ext/1758384875/exceptions.o
 .debug_frame   0x000018ec       0x38 build/sam_c21n_xpro/production/_ext/1758384875/startup_xc32.o
 .debug_frame   0x00001924       0x88 build/sam_c21n_xpro/production/_ext/1360937237/main.o
 .debug_frame   0x000019ac       0x30 build/sam_c21n_xpro/production/_ext/1360937237/app.o
 .debug_frame   0x000019dc       0x2c c:/program files/microchip/xc32/v2.40/bin/bin/../../lib/gcc/pic32c/6.2.1/../../../../pic32c/lib\libpic32c.a(data_init.o)
 .debug_frame   0x00001a08       0x20 c:/program files/microchip/xc32/v2.40/bin/bin/../../lib/gcc/pic32c/6.2.1\libgcc.a(_udivsi3.o)
 .debug_frame   0x00001a28       0x34 c:/program files/microchip/xc32/v2.40/bin/bin/../../lib/gcc/pic32c/6.2.1\libgcc.a(_muldi3.o)
 .debug_frame   0x00001a5c       0x30 c:/program files/microchip/xc32/v2.40/bin/bin/../../lib/gcc/pic32c/6.2.1\libgcc.a(_udivmoddi4.o)
 .debug_frame   0x00001a8c       0x34 c:/program files/microchip/xc32/v2.40/bin/bin/../../lib/gcc/pic32c/6.2.1\libgcc.a(addsf3.o)
 .debug_frame   0x00001ac0       0x30 c:/program files/microchip/xc32/v2.40/bin/bin/../../lib/gcc/pic32c/6.2.1\libgcc.a(divsf3.o)
 .debug_frame   0x00001af0       0x30 c:/program files/microchip/xc32/v2.40/bin/bin/../../lib/gcc/pic32c/6.2.1\libgcc.a(mulsf3.o)
 .debug_frame   0x00001b20       0x34 c:/program files/microchip/xc32/v2.40/bin/bin/../../lib/gcc/pic32c/6.2.1\libgcc.a(subsf3.o)
 .debug_frame   0x00001b54       0x20 c:/program files/microchip/xc32/v2.40/bin/bin/../../lib/gcc/pic32c/6.2.1\libgcc.a(fixsfsi.o)
 .debug_frame   0x00001b74       0x2c c:/program files/microchip/xc32/v2.40/bin/bin/../../lib/gcc/pic32c/6.2.1\libgcc.a(floatsisf.o)
 .debug_frame   0x00001ba0       0x2c c:/program files/microchip/xc32/v2.40/bin/bin/../../lib/gcc/pic32c/6.2.1\libgcc.a(floatunsisf.o)
 .debug_frame   0x00001bcc       0x30 c:/program files/microchip/xc32/v2.40/bin/bin/../../lib/gcc/pic32c/6.2.1\libgcc.a(muldf3.o)
 .debug_frame   0x00001bfc       0x30 c:/program files/microchip/xc32/v2.40/bin/bin/../../lib/gcc/pic32c/6.2.1\libgcc.a(floatsidf.o)
 .debug_frame   0x00001c2c       0x2c c:/program files/microchip/xc32/v2.40/bin/bin/../../lib/gcc/pic32c/6.2.1\libgcc.a(extendsfdf2.o)
 .debug_frame   0x00001c58       0x30 c:/program files/microchip/xc32/v2.40/bin/bin/../../lib/gcc/pic32c/6.2.1\libgcc.a(truncdfsf2.o)
 .debug_frame   0x00001c88       0x28 c:/program files/microchip/xc32/v2.40/bin/bin/../../lib/gcc/pic32c/6.2.1/../../../../pic32c/lib\libc_nano.a(lib_a-atof.o)
 .debug_frame   0x00001cb0       0x40 c:/program files/microchip/xc32/v2.40/bin/bin/../../lib/gcc/pic32c/6.2.1/../../../../pic32c/lib\libc_nano.a(lib_a-atoi.o)
 .debug_frame   0x00001cf0       0x2c c:/program files/microchip/xc32/v2.40/bin/bin/../../lib/gcc/pic32c/6.2.1/../../../../pic32c/lib\libc_nano.a(lib_a-init.o)
 .debug_frame   0x00001d1c       0x2c c:/program files/microchip/xc32/v2.40/bin/bin/../../lib/gcc/pic32c/6.2.1/../../../../pic32c/lib\libc_nano.a(lib_a-memcmp.o)
 .debug_frame   0x00001d48       0x28 c:/program files/microchip/xc32/v2.40/bin/bin/../../lib/gcc/pic32c/6.2.1/../../../../pic32c/lib\libc_nano.a(lib_a-memcpy-stub.o)
 .debug_frame   0x00001d70       0x20 c:/program files/microchip/xc32/v2.40/bin/bin/../../lib/gcc/pic32c/6.2.1/../../../../pic32c/lib\libc_nano.a(lib_a-memset.o)
 .debug_frame   0x00001d90       0x30 c:/program files/microchip/xc32/v2.40/bin/bin/../../lib/gcc/pic32c/6.2.1/../../../../pic32c/lib\libc_nano.a(_lib_a-sprintf.cdfFgGnopsuxX.o)
 .debug_frame   0x00001dc0       0x28 c:/program files/microchip/xc32/v2.40/bin/bin/../../lib/gcc/pic32c/6.2.1/../../../../pic32c/lib\libc_nano.a(lib_a-strcat.o)
 .debug_frame   0x00001de8       0x28 c:/program files/microchip/xc32/v2.40/bin/bin/../../lib/gcc/pic32c/6.2.1/../../../../pic32c/lib\libc_nano.a(lib_a-strstr.o)
 .debug_frame   0x00001e10       0xd0 c:/program files/microchip/xc32/v2.40/bin/bin/../../lib/gcc/pic32c/6.2.1/../../../../pic32c/lib\libc_nano.a(lib_a-strtod.o)
 .debug_frame   0x00001ee0       0x88 c:/program files/microchip/xc32/v2.40/bin/bin/../../lib/gcc/pic32c/6.2.1/../../../../pic32c/lib\libc_nano.a(lib_a-strtol.o)
 .debug_frame   0x00001f68       0x60 c:/program files/microchip/xc32/v2.40/bin/bin/../../lib/gcc/pic32c/6.2.1/../../../../pic32c/lib\libc_nano.a(lib_a-gdtoa-gethex.o)
 .debug_frame   0x00001fc8       0x68 c:/program files/microchip/xc32/v2.40/bin/bin/../../lib/gcc/pic32c/6.2.1/../../../../pic32c/lib\libc_nano.a(lib_a-gdtoa-hexnan.o)
 .debug_frame   0x00002030       0x40 c:/program files/microchip/xc32/v2.40/bin/bin/../../lib/gcc/pic32c/6.2.1/../../../../pic32c/lib\libc_nano.a(lib_a-localeconv.o)
 .debug_frame   0x00002070       0x74 c:/program files/microchip/xc32/v2.40/bin/bin/../../lib/gcc/pic32c/6.2.1/../../../../pic32c/lib\libc_nano.a(lib_a-locale.o)
 .debug_frame   0x000020e4       0x44 c:/program files/microchip/xc32/v2.40/bin/bin/../../lib/gcc/pic32c/6.2.1/../../../../pic32c/lib\libc_nano.a(lib_a-mbtowc_r.o)
 .debug_frame   0x00002128      0x238 c:/program files/microchip/xc32/v2.40/bin/bin/../../lib/gcc/pic32c/6.2.1/../../../../pic32c/lib\libc_nano.a(lib_a-mprec.o)
 .debug_frame   0x00002360       0x2c c:/program files/microchip/xc32/v2.40/bin/bin/../../lib/gcc/pic32c/6.2.1/../../../../pic32c/lib\libc_nano.a(lib_a-nano-callocr.o)
 .debug_frame   0x0000238c       0x2c c:/program files/microchip/xc32/v2.40/bin/bin/../../lib/gcc/pic32c/6.2.1/../../../../pic32c/lib\libc_nano.a(lib_a-nano-mallocr.o)
 .debug_frame   0x000023b8       0x6c c:/program files/microchip/xc32/v2.40/bin/bin/../../lib/gcc/pic32c/6.2.1/../../../../pic32c/lib\libc_nano.a(_lib_a-nano-vfprintf.cdfFgGnopsuxX.o)
 .debug_frame   0x00002424       0x54 c:/program files/microchip/xc32/v2.40/bin/bin/../../lib/gcc/pic32c/6.2.1/../../../../pic32c/lib\libc_nano.a(lib_a-nano-vfprintf_i.o)
 .debug_frame   0x00002478       0x2c c:/program files/microchip/xc32/v2.40/bin/bin/../../lib/gcc/pic32c/6.2.1/../../../../pic32c/lib\libc_nano.a(lib_a-sbrkr.o)
 .debug_frame   0x000024a4       0x48 c:/program files/microchip/xc32/v2.40/bin/bin/../../lib/gcc/pic32c/6.2.1/../../../../pic32c/lib\libc_nano.a(lib_a-__ssfputs.o)
 .debug_frame   0x000024ec       0x2c c:/program files/microchip/xc32/v2.40/bin/bin/../../lib/gcc/pic32c/6.2.1/../../../../pic32c/lib\libc_nano.a(lib_a-strncmp.o)
 .debug_frame   0x00002518       0x48 c:/program files/microchip/xc32/v2.40/bin/bin/../../lib/gcc/pic32c/6.2.1/../../../../pic32c/lib\libc_nano.a(lib_a-wbuf.o)
 .debug_frame   0x00002560       0x38 c:/program files/microchip/xc32/v2.40/bin/bin/../../lib/gcc/pic32c/6.2.1/../../../../pic32c/lib\libc_nano.a(lib_a-wctomb_r.o)
 .debug_frame   0x00002598       0x2c c:/program files/microchip/xc32/v2.40/bin/bin/../../lib/gcc/pic32c/6.2.1/../../../../pic32c/lib\libc_nano.a(lib_a-wsetup.o)
 .debug_frame   0x000025c4       0x54 c:/program files/microchip/xc32/v2.40/bin/bin/../../lib/gcc/pic32c/6.2.1/../../../../pic32c/lib\libc_nano.a(lib_a-dtoa.o)
 .debug_frame   0x00002618       0x68 c:/program files/microchip/xc32/v2.40/bin/bin/../../lib/gcc/pic32c/6.2.1/../../../../pic32c/lib\libc_nano.a(lib_a-fflush.o)
 .debug_frame   0x00002680       0xb0 c:/program files/microchip/xc32/v2.40/bin/bin/../../lib/gcc/pic32c/6.2.1/../../../../pic32c/lib\libc_nano.a(lib_a-findfp.o)
 .debug_frame   0x00002730       0x64 c:/program files/microchip/xc32/v2.40/bin/bin/../../lib/gcc/pic32c/6.2.1/../../../../pic32c/lib\libc_nano.a(lib_a-fputwc.o)
 .debug_frame   0x00002794       0x58 c:/program files/microchip/xc32/v2.40/bin/bin/../../lib/gcc/pic32c/6.2.1/../../../../pic32c/lib\libc_nano.a(lib_a-fwalk.o)
 .debug_frame   0x000027ec       0x54 c:/program files/microchip/xc32/v2.40/bin/bin/../../lib/gcc/pic32c/6.2.1/../../../../pic32c/lib\libc_nano.a(lib_a-makebuf.o)
 .debug_frame   0x00002840       0x40 c:/program files/microchip/xc32/v2.40/bin/bin/../../lib/gcc/pic32c/6.2.1/../../../../pic32c/lib\libc_nano.a(lib_a-malloc.o)
 .debug_frame   0x00002880       0x20 c:/program files/microchip/xc32/v2.40/bin/bin/../../lib/gcc/pic32c/6.2.1/../../../../pic32c/lib\libc_nano.a(lib_a-memchr-stub.o)
 .debug_frame   0x000028a0       0x30 c:/program files/microchip/xc32/v2.40/bin/bin/../../lib/gcc/pic32c/6.2.1/../../../../pic32c/lib\libc_nano.a(lib_a-mlock.o)
 .debug_frame   0x000028d0       0x2c c:/program files/microchip/xc32/v2.40/bin/bin/../../lib/gcc/pic32c/6.2.1/../../../../pic32c/lib\libc_nano.a(lib_a-nano-freer.o)
 .debug_frame   0x000028fc       0x48 c:/program files/microchip/xc32/v2.40/bin/bin/../../lib/gcc/pic32c/6.2.1/../../../../pic32c/lib\libc_nano.a(lib_a-reent.o)
 .debug_frame   0x00002944       0x90 c:/program files/microchip/xc32/v2.40/bin/bin/../../lib/gcc/pic32c/6.2.1/../../../../pic32c/lib\libc_nano.a(lib_a-stdio.o)
 .debug_frame   0x000029d4       0x4c c:/program files/microchip/xc32/v2.40/bin/bin/../../lib/gcc/pic32c/6.2.1/../../../../pic32c/lib\libc_nano.a(lib_a-wcrtomb.o)
 .debug_frame   0x00002a20       0x2c c:/program files/microchip/xc32/v2.40/bin/bin/../../lib/gcc/pic32c/6.2.1/../../../../pic32c/lib\libc_nano.a(lib_a-writer.o)
 .debug_frame   0x00002a4c       0x2c c:/program files/microchip/xc32/v2.40/bin/bin/../../lib/gcc/pic32c/6.2.1/../../../../pic32c/lib\libc_nano.a(lib_a-closer.o)
 .debug_frame   0x00002a78       0x2c c:/program files/microchip/xc32/v2.40/bin/bin/../../lib/gcc/pic32c/6.2.1/../../../../pic32c/lib\libc_nano.a(lib_a-fstatr.o)
 .debug_frame   0x00002aa4       0x2c c:/program files/microchip/xc32/v2.40/bin/bin/../../lib/gcc/pic32c/6.2.1/../../../../pic32c/lib\libc_nano.a(lib_a-isattyr.o)
 .debug_frame   0x00002ad0       0x2c c:/program files/microchip/xc32/v2.40/bin/bin/../../lib/gcc/pic32c/6.2.1/../../../../pic32c/lib\libc_nano.a(lib_a-lseekr.o)
 .debug_frame   0x00002afc       0x2c c:/program files/microchip/xc32/v2.40/bin/bin/../../lib/gcc/pic32c/6.2.1/../../../../pic32c/lib\libc_nano.a(lib_a-readr.o)
 .debug_frame   0x00002b28       0x28 c:/program files/microchip/xc32/v2.40/bin/bin/../../lib/gcc/pic32c/6.2.1/../../../../pic32c/lib\libpic32c.a(_close.o)
 .debug_frame   0x00002b50       0x28 c:/program files/microchip/xc32/v2.40/bin/bin/../../lib/gcc/pic32c/6.2.1/../../../../pic32c/lib\libpic32c.a(_fstat.o)
 .debug_frame   0x00002b78       0x28 c:/program files/microchip/xc32/v2.40/bin/bin/../../lib/gcc/pic32c/6.2.1/../../../../pic32c/lib\libpic32c.a(_isatty.o)
 .debug_frame   0x00002ba0       0x28 c:/program files/microchip/xc32/v2.40/bin/bin/../../lib/gcc/pic32c/6.2.1/../../../../pic32c/lib\libpic32c.a(_lseek.o)
 .debug_frame   0x00002bc8       0x28 c:/program files/microchip/xc32/v2.40/bin/bin/../../lib/gcc/pic32c/6.2.1/../../../../pic32c/lib\libpic32c.a(_read.o)
 .debug_frame   0x00002bf0       0x20 c:/program files/microchip/xc32/v2.40/bin/bin/../../lib/gcc/pic32c/6.2.1/../../../../pic32c/lib\libpic32c.a(sbrk.o)
 .debug_frame   0x00002c10       0x28 c:/program files/microchip/xc32/v2.40/bin/bin/../../lib/gcc/pic32c/6.2.1/../../../../pic32c/lib\libpic32c.a(_write.o)
 .debug_frame   0x00002c38       0x20 c:/program files/microchip/xc32/v2.40/bin/bin/../../lib/gcc/pic32c/6.2.1/../../../../pic32c/lib\libpic32c.a(close.o)
 .debug_frame   0x00002c58       0x20 c:/program files/microchip/xc32/v2.40/bin/bin/../../lib/gcc/pic32c/6.2.1/../../../../pic32c/lib\libpic32c.a(fstat.o)
 .debug_frame   0x00002c78       0x20 c:/program files/microchip/xc32/v2.40/bin/bin/../../lib/gcc/pic32c/6.2.1/../../../../pic32c/lib\libpic32c.a(isatty.o)
 .debug_frame   0x00002c98       0x20 c:/program files/microchip/xc32/v2.40/bin/bin/../../lib/gcc/pic32c/6.2.1/../../../../pic32c/lib\libpic32c.a(lseek.o)
 .debug_frame   0x00002cb8       0x20 c:/program files/microchip/xc32/v2.40/bin/bin/../../lib/gcc/pic32c/6.2.1\libgcc.a(_divsi3.o)
 .debug_frame   0x00002cd8       0x2c c:/program files/microchip/xc32/v2.40/bin/bin/../../lib/gcc/pic32c/6.2.1\libgcc.a(_fixunsdfsi.o)
 .debug_frame   0x00002d04       0x34 c:/program files/microchip/xc32/v2.40/bin/bin/../../lib/gcc/pic32c/6.2.1\libgcc.a(adddf3.o)
 .debug_frame   0x00002d38       0x30 c:/program files/microchip/xc32/v2.40/bin/bin/../../lib/gcc/pic32c/6.2.1\libgcc.a(divdf3.o)
 .debug_frame   0x00002d68       0x30 c:/program files/microchip/xc32/v2.40/bin/bin/../../lib/gcc/pic32c/6.2.1\libgcc.a(eqdf2.o)
 .debug_frame   0x00002d98       0x34 c:/program files/microchip/xc32/v2.40/bin/bin/../../lib/gcc/pic32c/6.2.1\libgcc.a(gedf2.o)
 .debug_frame   0x00002dcc       0x30 c:/program files/microchip/xc32/v2.40/bin/bin/../../lib/gcc/pic32c/6.2.1\libgcc.a(ledf2.o)
 .debug_frame   0x00002dfc       0x34 c:/program files/microchip/xc32/v2.40/bin/bin/../../lib/gcc/pic32c/6.2.1\libgcc.a(subdf3.o)
 .debug_frame   0x00002e30       0x2c c:/program files/microchip/xc32/v2.40/bin/bin/../../lib/gcc/pic32c/6.2.1\libgcc.a(unorddf2.o)
 .debug_frame   0x00002e5c       0x2c c:/program files/microchip/xc32/v2.40/bin/bin/../../lib/gcc/pic32c/6.2.1\libgcc.a(fixdfsi.o)
 .debug_frame   0x00002e88       0x2c c:/program files/microchip/xc32/v2.40/bin/bin/../../lib/gcc/pic32c/6.2.1\libgcc.a(floatunsidf.o)

.stack          0x200022f0      0x100
 .stack         0x200022f0      0x100 stack

.bss.SERCOM1_USART_ReadBuffer%1
                0x20000ee8      0x200
 .bss.SERCOM1_USART_ReadBuffer
                0x20000ee8      0x200 build/sam_c21n_xpro/production/_ext/1993392304/plib_sercom1_usart.o

.bss.SERCOM1_USART_WriteBuffer%2
                0x200010e8      0x200
 .bss.SERCOM1_USART_WriteBuffer
                0x200010e8      0x200 build/sam_c21n_xpro/production/_ext/1993392304/plib_sercom1_usart.o

.bss.SERCOM0_USART_WriteBuffer%3
                0x200012e8      0x200
 .bss.SERCOM0_USART_WriteBuffer
                0x200012e8      0x200 build/sam_c21n_xpro/production/_ext/1993392304/plib_sercom0_usart.o

.bss.can0RxMsg%4
                0x200014e8      0x1e0
 .bss.can0RxMsg
                0x200014e8      0x1e0 build/sam_c21n_xpro/production/_ext/1617702135/plib_can0.o

.bss.SERCOM0_USART_ReadBuffer%5
                0x200016c8      0x180
 .bss.SERCOM0_USART_ReadBuffer
                0x200016c8      0x180 build/sam_c21n_xpro/production/_ext/1993392304/plib_sercom0_usart.o

.data.__global_locale%6
                0x20001848      0x16c
 .data.__global_locale
                0x20001848      0x16c c:/program files/microchip/xc32/v2.40/bin/bin/../../lib/gcc/pic32c/6.2.1/../../../../pic32c/lib\libc_nano.a(lib_a-locale.o)
                0x20001848                __global_locale

.bss.eicCallbackObject%7
                0x200019b4       0xc0
 .bss.eicCallbackObject
                0x200019b4       0xc0 build/sam_c21n_xpro/production/_ext/1617704294/plib_eic.o

.bss.iot%8      0x20001a74       0x9c
 .bss.iot       0x20001a74       0x9c build/sam_c21n_xpro/production/_ext/1360937237/appiot.o

.bss._eeprom_instance%9
                0x20001b10       0x8c
 .bss._eeprom_instance
                0x20001b10       0x8c build/sam_c21n_xpro/production/_ext/1019481632/emulated_eeprom.o

.bss.gDrvUSARTObj%10
                0x20001b9c       0x80
 .bss.gDrvUSARTObj
                0x20001b9c       0x80 build/sam_c21n_xpro/production/_ext/1274584173/drv_usart.o

.data.impure_data%11
                0x20001c1c       0x60
 .data.impure_data
                0x20001c1c       0x60 c:/program files/microchip/xc32/v2.40/bin/bin/../../lib/gcc/pic32c/6.2.1/../../../../pic32c/lib\libc_nano.a(lib_a-impure.o)

.bss.gDrvAT24Obj%12
                0x20001c7c       0x50
 .bss.gDrvAT24Obj
                0x20001c7c       0x50 build/sam_c21n_xpro/production/_ext/1936826263/drv_at24.o

.bss.sercom1USARTObj%13
                0x20001ccc       0x40
 .bss.sercom1USARTObj
                0x20001ccc       0x40 build/sam_c21n_xpro/production/_ext/1993392304/plib_sercom1_usart.o

.bss.sercom0USARTObj%14
                0x20001d0c       0x40
 .bss.sercom0USARTObj
                0x20001d0c       0x40 build/sam_c21n_xpro/production/_ext/1993392304/plib_sercom0_usart.o

.bss.MeterMqttData%15
                0x20001d4c       0x2c
 .bss.MeterMqttData
                0x20001d4c       0x2c build/sam_c21n_xpro/production/_ext/1360937237/appemueeprom.o
                0x20001d4c                MeterMqttData

.bss.sercom2I2CObj%16
                0x20001d78       0x2c
 .bss.sercom2I2CObj
                0x20001d78       0x2c build/sam_c21n_xpro/production/_ext/1451668420/plib_sercom2_i2c_master.o

.bss.can0Obj%17
                0x20001da4       0x28
 .bss.can0Obj   0x20001da4       0x28 build/sam_c21n_xpro/production/_ext/1617702135/plib_can0.o

.bss.can0CallbackObj%18
                0x20001dcc       0x20
 .bss.can0CallbackObj
                0x20001dcc       0x20 build/sam_c21n_xpro/production/_ext/1617702135/plib_can0.o

.bss%19         0x20001dec       0x1c
 .bss           0x20001dec       0x1c c:/program files/microchip/xc32/v2.40/bin/bin/../../lib/gcc/pic32c/6.2.1/crtbegin.o

.bss.drvUSART0ClientObjPool%20
                0x20001e08       0x10
 .bss.drvUSART0ClientObjPool
                0x20001e08       0x10 build/sam_c21n_xpro/production/_ext/1758384875/initialization.o

.bss.drvUSART1ClientObjPool%21
                0x20001e18       0x10
 .bss.drvUSART1ClientObjPool
                0x20001e18       0x10 build/sam_c21n_xpro/production/_ext/1758384875/initialization.o

.bss.systick%22
                0x20001e28        0xc
 .bss.systick   0x20001e28        0xc build/sam_c21n_xpro/production/_ext/1004774289/plib_systick.o

.bss.iot_send_data_tick%23
                0x20001e34        0x4
 .bss.iot_send_data_tick
                0x20001e34        0x4 build/sam_c21n_xpro/production/_ext/1360937237/appiot.o
                0x20001e34                iot_send_data_tick

.bss.at_4GLTE_link_chk_tick.8764%24
                0x20001e38        0x4
 .bss.at_4GLTE_link_chk_tick.8764
                0x20001e38        0x4 build/sam_c21n_xpro/production/_ext/1360937237/moden.o

.bss.at_4G_LTE_LOGIN_tick.8767%25
                0x20001e3c        0x4
 .bss.at_4G_LTE_LOGIN_tick.8767
                0x20001e3c        0x4 build/sam_c21n_xpro/production/_ext/1360937237/moden.o

.bss.at_GPS_tick.8773%26
                0x20001e40        0x4
 .bss.at_GPS_tick.8773
                0x20001e40        0x4 build/sam_c21n_xpro/production/_ext/1360937237/moden.o

.bss.at_MQTT_BIDIR_AUTH_LOGIN_FLOW_tick.8769%27
                0x20001e44        0x4
 .bss.at_MQTT_BIDIR_AUTH_LOGIN_FLOW_tick.8769
                0x20001e44        0x4 build/sam_c21n_xpro/production/_ext/1360937237/moden.o

.bss.at_MQTT_BIDIR_AUTH_PARA_LOAD_tick.8768%28
                0x20001e48        0x4
 .bss.at_MQTT_BIDIR_AUTH_PARA_LOAD_tick.8768
                0x20001e48        0x4 build/sam_c21n_xpro/production/_ext/1360937237/moden.o

.bss.at_MQTT_PARA_OPERATION_tick.8770%29
                0x20001e4c        0x4
 .bss.at_MQTT_PARA_OPERATION_tick.8770
                0x20001e4c        0x4 build/sam_c21n_xpro/production/_ext/1360937237/moden.o

.bss.at_MQTT_TX_UP_DATA1_tick.8771%30
                0x20001e50        0x4
 .bss.at_MQTT_TX_UP_DATA1_tick.8771
                0x20001e50        0x4 build/sam_c21n_xpro/production/_ext/1360937237/moden.o

.bss.at_NETWORK_STATUS_tick.8765%31
                0x20001e54        0x4
 .bss.at_NETWORK_STATUS_tick.8765
                0x20001e54        0x4 build/sam_c21n_xpro/production/_ext/1360937237/moden.o

.bss.at_READ_tick.8772%32
                0x20001e58        0x4
 .bss.at_READ_tick.8772
                0x20001e58        0x4 build/sam_c21n_xpro/production/_ext/1360937237/moden.o

.bss.at_RELOG_IN_tick.8766%33
                0x20001e5c        0x4
 .bss.at_RELOG_IN_tick.8766
                0x20001e5c        0x4 build/sam_c21n_xpro/production/_ext/1360937237/moden.o

.bss.at_module_connect_tick.8763%34
                0x20001e60        0x4
 .bss.at_module_connect_tick.8763
                0x20001e60        0x4 build/sam_c21n_xpro/production/_ext/1360937237/moden.o

.bss.reset_tick.8758%35
                0x20001e64        0x4
 .bss.reset_tick.8758
                0x20001e64        0x4 build/sam_c21n_xpro/production/_ext/1360937237/moden.o

.bss.ODOVALUE%36
                0x20001e68        0x4
 .bss.ODOVALUE  0x20001e68        0x4 build/sam_c21n_xpro/production/_ext/1360937237/canapp.o

.bss.ODO_PRE%37
                0x20001e6c        0x4
 .bss.ODO_PRE   0x20001e6c        0x4 build/sam_c21n_xpro/production/_ext/1360937237/canapp.o

.bss._f_ODOVALUE%38
                0x20001e70        0x4
 .bss._f_ODOVALUE
                0x20001e70        0x4 build/sam_c21n_xpro/production/_ext/1360937237/canapp.o
                0x20001e70                _f_ODOVALUE

.bss.can_rx_tick%39
                0x20001e74        0x4
 .bss.can_rx_tick
                0x20001e74        0x4 build/sam_c21n_xpro/production/_ext/1360937237/canapp.o
                0x20001e74                can_rx_tick

.bss.canbussleeptimer%40
                0x20001e78        0x4
 .bss.canbussleeptimer
                0x20001e78        0x4 build/sam_c21n_xpro/production/_ext/1360937237/canapp.o
                0x20001e78                canbussleeptimer

.bss.messageID%41
                0x20001e7c        0x4
 .bss.messageID
                0x20001e7c        0x4 build/sam_c21n_xpro/production/_ext/1360937237/canapp.o
                0x20001e7c                messageID

.data.rx_messageID%42
                0x20001e80        0x4
 .data.rx_messageID
                0x20001e80        0x4 build/sam_c21n_xpro/production/_ext/1360937237/canapp.o
                0x20001e80                rx_messageID

.bss.nBytesRead%43
                0x20001e84        0x4
 .bss.nBytesRead
                0x20001e84        0x4 build/sam_c21n_xpro/production/_ext/1360937237/appuart.o
                0x20001e84                nBytesRead

.bss.time_100ms%44
                0x20001e88        0x4
 .bss.time_100ms
                0x20001e88        0x4 build/sam_c21n_xpro/production/_ext/1360937237/apptimer.o
                0x20001e88                time_100ms

.bss.time_1ms_bak%45
                0x20001e8c        0x4
 .bss.time_1ms_bak
                0x20001e8c        0x4 build/sam_c21n_xpro/production/_ext/1360937237/apptimer.o
                0x20001e8c                time_1ms_bak

.bss.time_1s_count%46
                0x20001e90        0x4
 .bss.time_1s_count
                0x20001e90        0x4 build/sam_c21n_xpro/production/_ext/1360937237/apptimer.o
                0x20001e90                time_1s_count

.bss.time_event%47
                0x20001e94        0x4
 .bss.time_event
                0x20001e94        0x4 build/sam_c21n_xpro/production/_ext/1360937237/apptimer.o
                0x20001e94                time_event

.bss.timer1ms%48
                0x20001e98        0x4
 .bss.timer1ms  0x20001e98        0x4 build/sam_c21n_xpro/production/_ext/1360937237/apptimer.o
                0x20001e98                timer1ms

.bss.timermqttupload%49
                0x20001e9c        0x4
 .bss.timermqttupload
                0x20001e9c        0x4 build/sam_c21n_xpro/production/_ext/1360937237/apptimer.o
                0x20001e9c                timermqttupload

.data.time_full%50
                0x20001ea0        0x4
 .data.time_full
                0x20001ea0        0x4 build/sam_c21n_xpro/production/_ext/1360937237/apptimer.o
                0x20001ea0                time_full

.data._impure_ptr%51
                0x20001ea4        0x4
 .data._impure_ptr
                0x20001ea4        0x4 c:/program files/microchip/xc32/v2.40/bin/bin/../../lib/gcc/pic32c/6.2.1/../../../../pic32c/lib\libc_nano.a(lib_a-impure.o)
                0x20001ea4                _impure_ptr

.bss.__malloc_free_list%52
                0x20001ea8        0x4
 .bss.__malloc_free_list
                0x20001ea8        0x4 c:/program files/microchip/xc32/v2.40/bin/bin/../../lib/gcc/pic32c/6.2.1/../../../../pic32c/lib\libc_nano.a(lib_a-nano-mallocr.o)
                0x20001ea8                __malloc_free_list

.bss.__malloc_sbrk_start%53
                0x20001eac        0x4
 .bss.__malloc_sbrk_start
                0x20001eac        0x4 c:/program files/microchip/xc32/v2.40/bin/bin/../../lib/gcc/pic32c/6.2.1/../../../../pic32c/lib\libc_nano.a(lib_a-nano-mallocr.o)
                0x20001eac                __malloc_sbrk_start

.bss%54         0x20001eb0        0x4
 .bss           0x20001eb0        0x4 c:/program files/microchip/xc32/v2.40/bin/bin/../../lib/gcc/pic32c/6.2.1/../../../../pic32c/lib\libpic32c.a(sbrk.o)

.bss.at_4GLTE_link_chk_state_bak.8775%55
                0x20001eb4        0x2
 .bss.at_4GLTE_link_chk_state_bak.8775
                0x20001eb4        0x2 build/sam_c21n_xpro/production/_ext/1360937237/moden.o

.bss.at_4G_LTE_LOGIN_state_bak.8779%56
                0x20001eb6        0x2
 .bss.at_4G_LTE_LOGIN_state_bak.8779
                0x20001eb6        0x2 build/sam_c21n_xpro/production/_ext/1360937237/moden.o

.bss.at_GPS_state_bak.8784%57
                0x20001eb8        0x2
 .bss.at_GPS_state_bak.8784
                0x20001eb8        0x2 build/sam_c21n_xpro/production/_ext/1360937237/moden.o

.bss.at_MQTT_BIDIR_AUTH_LOGIN_FLOW_state_bak.8780%58
                0x20001eba        0x2
 .bss.at_MQTT_BIDIR_AUTH_LOGIN_FLOW_state_bak.8780
                0x20001eba        0x2 build/sam_c21n_xpro/production/_ext/1360937237/moden.o

.bss.at_MQTT_BIDIR_AUTH_PARA_LOAD_state_bak.8778%59
                0x20001ebc        0x2
 .bss.at_MQTT_BIDIR_AUTH_PARA_LOAD_state_bak.8778
                0x20001ebc        0x2 build/sam_c21n_xpro/production/_ext/1360937237/moden.o

.bss.at_MQTT_PARA_OPERATION_state_bak.8781%60
                0x20001ebe        0x2
 .bss.at_MQTT_PARA_OPERATION_state_bak.8781
                0x20001ebe        0x2 build/sam_c21n_xpro/production/_ext/1360937237/moden.o

.bss.at_MQTT_TX_UP_DATA1_state_bak.8782%61
                0x20001ec0        0x2
 .bss.at_MQTT_TX_UP_DATA1_state_bak.8782
                0x20001ec0        0x2 build/sam_c21n_xpro/production/_ext/1360937237/moden.o

.bss.at_NETWORK_STATUS_state_bak.8776%62
                0x20001ec2        0x2
 .bss.at_NETWORK_STATUS_state_bak.8776
                0x20001ec2        0x2 build/sam_c21n_xpro/production/_ext/1360937237/moden.o

.bss.at_RAED_state_bak.8783%63
                0x20001ec4        0x2
 .bss.at_RAED_state_bak.8783
                0x20001ec4        0x2 build/sam_c21n_xpro/production/_ext/1360937237/moden.o

.bss.at_RELOG_IN_state_bak.8777%64
                0x20001ec6        0x2
 .bss.at_RELOG_IN_state_bak.8777
                0x20001ec6        0x2 build/sam_c21n_xpro/production/_ext/1360937237/moden.o

.bss.at_module_connect_state_bak.8774%65
                0x20001ec8        0x2
 .bss.at_module_connect_state_bak.8774
                0x20001ec8        0x2 build/sam_c21n_xpro/production/_ext/1360937237/moden.o

.bss.count.8406%66
                0x20001eca        0x2
 .bss.count.8406
                0x20001eca        0x2 build/sam_c21n_xpro/production/_ext/1360937237/appuart.o

.bss.count.8393%67
                0x20001ecc        0x2
 .bss.count.8393
                0x20001ecc        0x2 build/sam_c21n_xpro/production/_ext/1360937237/app_uart_debug.o

.bss.STATUS_RX_COMPLETED%68
                0x20001ece        0x1
 .bss.STATUS_RX_COMPLETED
                0x20001ece        0x1 build/sam_c21n_xpro/production/_ext/1360937237/canapp.o
                0x20001ece                STATUS_RX_COMPLETED

.bss._canstate%69
                0x20001ecf        0x1
 .bss._canstate
                0x20001ecf        0x1 build/sam_c21n_xpro/production/_ext/1360937237/canapp.o

.bss._canstatenew%70
                0x20001ed0        0x1
 .bss._canstatenew
                0x20001ed0        0x1 build/sam_c21n_xpro/production/_ext/1360937237/canapp.o

.bss.msgFrameAttr%71
                0x20001ed1        0x1
 .bss.msgFrameAttr
                0x20001ed1        0x1 build/sam_c21n_xpro/production/_ext/1360937237/canapp.o

.bss.odocnt%72  0x20001ed2        0x1
 .bss.odocnt    0x20001ed2        0x1 build/sam_c21n_xpro/production/_ext/1360937237/canapp.o

.bss.rx_messageLength%73
                0x20001ed3        0x1
 .bss.rx_messageLength
                0x20001ed3        0x1 build/sam_c21n_xpro/production/_ext/1360937237/canapp.o
                0x20001ed3                rx_messageLength

.data.STATUS_RX_PREPARE%74
                0x20001ed4        0x1
 .data.STATUS_RX_PREPARE
                0x20001ed4        0x1 build/sam_c21n_xpro/production/_ext/1360937237/canapp.o
                0x20001ed4                STATUS_RX_PREPARE

.eh_frame%z1    0x00000000        0x0
 .eh_frame      0x00000000        0x0 c:/program files/microchip/xc32/v2.40/bin/bin/../../lib/gcc/pic32c/6.2.1/crtbegin.o

.text.SendATCOmmand%75
                0x000000e4     0x3748
 .text.SendATCOmmand
                0x000000e4     0x3748 build/sam_c21n_xpro/production/_ext/1360937237/moden.o
                0x000000e4                SendATCOmmand

.text._strtod_l%76
                0x0000382c      0xc0c
 .text._strtod_l
                0x0000382c      0xc0c c:/program files/microchip/xc32/v2.40/bin/bin/../../lib/gcc/pic32c/6.2.1/../../../../pic32c/lib\libc_nano.a(lib_a-strtod.o)
                0x0000382c                _strtod_l

.text._dtoa_r%77
                0x00004438      0xbbc
 .text._dtoa_r  0x00004438      0xbbc c:/program files/microchip/xc32/v2.40/bin/bin/../../lib/gcc/pic32c/6.2.1/../../../../pic32c/lib\libc_nano.a(lib_a-dtoa.o)
                0x00004438                _dtoa_r

.rodata%78      0x00004ff4      0x818
 .rodata        0x00004ff4      0x818 build/sam_c21n_xpro/production/_ext/1360937237/moden.o

.text%79        0x0000580c      0x5b0
 .text          0x0000580c      0x5b0 c:/program files/microchip/xc32/v2.40/bin/bin/../../lib/gcc/pic32c/6.2.1\libgcc.a(subdf3.o)
                0x0000580c                __aeabi_dsub

.dinit%80       0x00005dbc      0x5b0
 .dinit         0x00005dbc      0x5b0 data_init

.text%81        0x0000636c      0x5a0
 .text          0x0000636c      0x5a0 c:/program files/microchip/xc32/v2.40/bin/bin/../../lib/gcc/pic32c/6.2.1\libgcc.a(adddf3.o)
                0x0000636c                __aeabi_dadd

.text.__printf_float%82
                0x0000690c      0x574
 .text.__printf_float
                0x0000690c      0x574 c:/program files/microchip/xc32/v2.40/bin/bin/../../lib/gcc/pic32c/6.2.1/../../../../pic32c/lib\libc_nano.a(_lib_a-nano-vfprintf.cdfFgGnopsuxX.o)
                0x0000690c                _printf_float

.text%83        0x00006e80      0x544
 .text          0x00006e80      0x544 c:/program files/microchip/xc32/v2.40/bin/bin/../../lib/gcc/pic32c/6.2.1\libgcc.a(divdf3.o)
                0x00006e80                __aeabi_ddiv

.text.__gethex%84
                0x000073c4      0x44e
 .text.__gethex
                0x000073c4      0x44e c:/program files/microchip/xc32/v2.40/bin/bin/../../lib/gcc/pic32c/6.2.1/../../../../pic32c/lib\libc_nano.a(lib_a-gdtoa-gethex.o)
                0x000073c4                __gethex

.text.CAN0_InterruptHandler%85
                0x00007814      0x440
 .text.CAN0_InterruptHandler
                0x00007814      0x440 build/sam_c21n_xpro/production/_ext/1617702135/plib_can0.o
                0x00007814                CAN0_InterruptHandler

.text._vfprintf_r_cdfFgGnopsuxX%86
                0x00007c54      0x42c
 .text._vfprintf_r_cdfFgGnopsuxX
                0x00007c54      0x42c c:/program files/microchip/xc32/v2.40/bin/bin/../../lib/gcc/pic32c/6.2.1/../../../../pic32c/lib\libc_nano.a(_lib_a-nano-vfprintf.cdfFgGnopsuxX.o)
                0x00007c54                _vfprintf_r_cdfFgGnopsuxX

.text%87        0x00008080      0x9fc
 .text          0x00008080      0x424 c:/program files/microchip/xc32/v2.40/bin/bin/../../lib/gcc/pic32c/6.2.1\libgcc.a(muldf3.o)
                0x00008080                __aeabi_dmul
 .text          0x000084a4      0x2f4 c:/program files/microchip/xc32/v2.40/bin/bin/../../lib/gcc/pic32c/6.2.1\libgcc.a(subsf3.o)
                0x000084a4                __aeabi_fsub
 .text          0x00008798      0x2e4 c:/program files/microchip/xc32/v2.40/bin/bin/../../lib/gcc/pic32c/6.2.1\libgcc.a(addsf3.o)
                0x00008798                __aeabi_fadd

.text.moden_main%90
                0x00008a7c      0x25c
 .text.moden_main
                0x00008a7c      0x25c build/sam_c21n_xpro/production/_ext/1360937237/moden.o
                0x00008a7c                moden_main

.text.SERCOM1_USART_InterruptHandler%91
                0x00008cd8      0x21c
 .text.SERCOM1_USART_InterruptHandler
                0x00008cd8      0x21c build/sam_c21n_xpro/production/_ext/1993392304/plib_sercom1_usart.o
                0x00008cd8                SERCOM1_USART_InterruptHandler

.text.SERCOM0_USART_InterruptHandler%92
                0x00008ef4      0x21c
 .text.SERCOM0_USART_InterruptHandler
                0x00008ef4      0x21c build/sam_c21n_xpro/production/_ext/1993392304/plib_sercom0_usart.o
                0x00008ef4                SERCOM0_USART_InterruptHandler

.rodata%93      0x00009110      0x208
 .rodata        0x00009110      0x208 build/sam_c21n_xpro/production/_ext/1360937237/canapp.o

.text.iot_data_pack%94
                0x00009318      0x1fc
 .text.iot_data_pack
                0x00009318      0x1fc build/sam_c21n_xpro/production/_ext/1360937237/appiot.o
                0x00009318                iot_data_pack

.text%95        0x00009514      0x398
 .text          0x00009514      0x1d8 c:/program files/microchip/xc32/v2.40/bin/bin/../../lib/gcc/pic32c/6.2.1\libgcc.a(mulsf3.o)
                0x00009514                __aeabi_fmul
 .text          0x000096ec      0x1c0 c:/program files/microchip/xc32/v2.40/bin/bin/../../lib/gcc/pic32c/6.2.1\libgcc.a(divsf3.o)
                0x000096ec                __aeabi_fdiv

.text.SERCOM2_I2C_InterruptHandler%97
                0x000098ac      0x1b0
 .text.SERCOM2_I2C_InterruptHandler
                0x000098ac      0x1b0 build/sam_c21n_xpro/production/_ext/1451668420/plib_sercom2_i2c_master.o
                0x000098ac                SERCOM2_I2C_InterruptHandler

.text.timer_main%98
                0x00009a5c      0x164
 .text.timer_main
                0x00009a5c      0x164 build/sam_c21n_xpro/production/_ext/1360937237/apptimer.o
                0x00009a5c                timer_main

.text.CAN0_MessageReceive%99
                0x00009bc0      0x158
 .text.CAN0_MessageReceive
                0x00009bc0      0x158 build/sam_c21n_xpro/production/_ext/1617702135/plib_can0.o
                0x00009bc0                CAN0_MessageReceive

.text.can_main%100
                0x00009d18      0x140
 .text.can_main
                0x00009d18      0x140 build/sam_c21n_xpro/production/_ext/1360937237/canapp.o
                0x00009d18                can_main

.text.SERCOM1_USART_SerialSetup%101
                0x00009e58      0x13c
 .text.SERCOM1_USART_SerialSetup
                0x00009e58      0x13c build/sam_c21n_xpro/production/_ext/1993392304/plib_sercom1_usart.o
                0x00009e58                SERCOM1_USART_SerialSetup

.text.SERCOM0_USART_SerialSetup%102
                0x00009f94      0x13c
 .text.SERCOM0_USART_SerialSetup
                0x00009f94      0x13c build/sam_c21n_xpro/production/_ext/1993392304/plib_sercom0_usart.o
                0x00009f94                SERCOM0_USART_SerialSetup

.text.__hexnan%103
                0x0000a0d0      0x12e
 .text.__hexnan
                0x0000a0d0      0x12e c:/program files/microchip/xc32/v2.40/bin/bin/../../lib/gcc/pic32c/6.2.1/../../../../pic32c/lib\libc_nano.a(lib_a-gdtoa-hexnan.o)
                0x0000a0d0                __hexnan

.text.__multiply%104
                0x0000a1fe      0x11e
 .text.__multiply
                0x0000a1fe      0x11e c:/program files/microchip/xc32/v2.40/bin/bin/../../lib/gcc/pic32c/6.2.1/../../../../pic32c/lib\libc_nano.a(lib_a-mprec.o)
                0x0000a1fe                __multiply

.text.__sflush_r%105
                0x0000a31c      0x114
 .text.__sflush_r
                0x0000a31c      0x114 c:/program files/microchip/xc32/v2.40/bin/bin/../../lib/gcc/pic32c/6.2.1/../../../../pic32c/lib\libc_nano.a(lib_a-fflush.o)
                0x0000a31c                __sflush_r

.text.EMU_EEPROM_PageMappingUpdate%106
                0x0000a430      0x110
 .text.EMU_EEPROM_PageMappingUpdate
                0x0000a430      0x110 build/sam_c21n_xpro/production/_ext/1019481632/emulated_eeprom.o

.text.SERCOM1_USART_Write%107
                0x0000a540      0x10c
 .text.SERCOM1_USART_Write
                0x0000a540      0x10c build/sam_c21n_xpro/production/_ext/1993392304/plib_sercom1_usart.o
                0x0000a540                SERCOM1_USART_Write

.text.SERCOM0_USART_Write%108
                0x0000a64c      0x10c
 .text.SERCOM0_USART_Write
                0x0000a64c      0x10c build/sam_c21n_xpro/production/_ext/1993392304/plib_sercom0_usart.o
                0x0000a64c                SERCOM0_USART_Write

.text._strtol_l.isra.0%109
                0x0000a758      0x10c
 .text._strtol_l.isra.0
                0x0000a758      0x10c c:/program files/microchip/xc32/v2.40/bin/bin/../../lib/gcc/pic32c/6.2.1/../../../../pic32c/lib\libc_nano.a(lib_a-strtol.o)

.text.quorem%110
                0x0000a864      0x108
 .text.quorem   0x0000a864      0x108 c:/program files/microchip/xc32/v2.40/bin/bin/../../lib/gcc/pic32c/6.2.1/../../../../pic32c/lib\libc_nano.a(lib_a-dtoa.o)

.rodata._ctype_%111
                0x0000a96c      0x101
 .rodata._ctype_
                0x0000a96c      0x101 c:/program files/microchip/xc32/v2.40/bin/bin/../../lib/gcc/pic32c/6.2.1/../../../../pic32c/lib\libc_nano.a(lib_a-ctype_.o)
                0x0000a96c                _ctype_

.text%112       0x0000aa70      0x100
 .text          0x0000aa70      0x100 c:/program files/microchip/xc32/v2.40/bin/bin/../../lib/gcc/pic32c/6.2.1\libgcc.a(truncdfsf2.o)
                0x0000aa70                __aeabi_d2f

.text.CAN0_MessageRAMConfigSet%113
                0x0000ab70       0xf4
 .text.CAN0_MessageRAMConfigSet
                0x0000ab70       0xf4 build/sam_c21n_xpro/production/_ext/1617702135/plib_can0.o
                0x0000ab70                CAN0_MessageRAMConfigSet

.text.CLOCK_Initialize%114
                0x0000ac64       0xec
 .text.CLOCK_Initialize
                0x0000ac64       0xec build/sam_c21n_xpro/production/_ext/166077579/plib_clock.o
                0x0000ac64                CLOCK_Initialize

.text.__swsetup_r%115
                0x0000ad50       0xec
 .text.__swsetup_r
                0x0000ad50       0xec c:/program files/microchip/xc32/v2.40/bin/bin/../../lib/gcc/pic32c/6.2.1/../../../../pic32c/lib\libc_nano.a(lib_a-wsetup.o)
                0x0000ad50                __swsetup_r

.text%116       0x0000ae3c       0xe2
 .text          0x0000ae3c       0xe2 c:/program files/microchip/xc32/v2.40/bin/bin/../../lib/gcc/pic32c/6.2.1\libgcc.a(_udivmoddi4.o)
                0x0000ae3c                __udivmoddi4

.rodata%117     0x0000af20       0xdc
 .rodata        0x0000af20       0xdc build/sam_c21n_xpro/production/_ext/1360937237/appiot.o

.text._printf_common%118
                0x0000affc       0xda
 .text._printf_common
                0x0000affc       0xda c:/program files/microchip/xc32/v2.40/bin/bin/../../lib/gcc/pic32c/6.2.1/../../../../pic32c/lib\libc_nano.a(lib_a-nano-vfprintf_i.o)
                0x0000affc                _printf_common

.text.init_moden%119
                0x0000b0d8       0xd8
 .text.init_moden
                0x0000b0d8       0xd8 build/sam_c21n_xpro/production/_ext/1360937237/moden.o
                0x0000b0d8                init_moden

.text._DRV_AT24_Write%120
                0x0000b1b0       0xd8
 .text._DRV_AT24_Write
                0x0000b1b0       0xd8 build/sam_c21n_xpro/production/_ext/1936826263/drv_at24.o

.text.__swbuf_r%121
                0x0000b288       0xcc
 .text.__swbuf_r
                0x0000b288       0xcc c:/program files/microchip/xc32/v2.40/bin/bin/../../lib/gcc/pic32c/6.2.1/../../../../pic32c/lib\libc_nano.a(lib_a-wbuf.o)
                0x0000b288                __swbuf_r

.text.__mdiff%122
                0x0000b354       0xc8
 .text.__mdiff  0x0000b354       0xc8 c:/program files/microchip/xc32/v2.40/bin/bin/../../lib/gcc/pic32c/6.2.1/../../../../pic32c/lib\libc_nano.a(lib_a-mprec.o)
                0x0000b354                __mdiff

.rodata.__mprec_tens%123
                0x0000b420       0xc8
 .rodata.__mprec_tens
                0x0000b420       0xc8 c:/program files/microchip/xc32/v2.40/bin/bin/../../lib/gcc/pic32c/6.2.1/../../../../pic32c/lib\libc_nano.a(lib_a-mprec.o)
                0x0000b420                __mprec_tens

.text.fill_motorpm%124
                0x0000b4e8       0xc0
 .text.fill_motorpm
                0x0000b4e8       0xc0 build/sam_c21n_xpro/production/_ext/1360937237/canapp.o
                0x0000b4e8                fill_motorpm

.text._I2CEventHandler%125
                0x0000b5a8       0xbc
 .text._I2CEventHandler
                0x0000b5a8       0xbc build/sam_c21n_xpro/production/_ext/1936826263/drv_at24.o

.text._malloc_r%126
                0x0000b664       0xbc
 .text._malloc_r
                0x0000b664       0xbc c:/program files/microchip/xc32/v2.40/bin/bin/../../lib/gcc/pic32c/6.2.1/../../../../pic32c/lib\libc_nano.a(lib_a-nano-mallocr.o)
                0x0000b664                _malloc_r

.text%127       0x0000b720       0xb0
 .text          0x0000b720       0xb0 c:/program files/microchip/xc32/v2.40/bin/bin/../../lib/gcc/pic32c/6.2.1\libgcc.a(ledf2.o)
                0x0000b720                __ledf2
                0x0000b720                __ltdf2

.text.DRV_USART_Initialize%128
                0x0000b7d0       0xa8
 .text.DRV_USART_Initialize
                0x0000b7d0       0xa8 build/sam_c21n_xpro/production/_ext/1274584173/drv_usart.o
                0x0000b7d0                DRV_USART_Initialize

.text.__d2b%129
                0x0000b878       0xa8
 .text.__d2b    0x0000b878       0xa8 c:/program files/microchip/xc32/v2.40/bin/bin/../../lib/gcc/pic32c/6.2.1/../../../../pic32c/lib\libc_nano.a(lib_a-mprec.o)
                0x0000b878                __d2b

.text%130       0x0000b920       0xa8
 .text          0x0000b920       0xa8 c:/program files/microchip/xc32/v2.40/bin/bin/../../lib/gcc/pic32c/6.2.1\libgcc.a(_divsi3.o)
                0x0000b920                __divsi3
                0x0000b920                __aeabi_idiv
                0x0000b9b4                __aeabi_idivmod

.text.__lshift%131
                0x0000b9c8       0xa2
 .text.__lshift
                0x0000b9c8       0xa2 c:/program files/microchip/xc32/v2.40/bin/bin/../../lib/gcc/pic32c/6.2.1/../../../../pic32c/lib\libc_nano.a(lib_a-mprec.o)
                0x0000b9c8                __lshift

.text.PORT_Initialize%132
                0x0000ba6c       0xa0
 .text.PORT_Initialize
                0x0000ba6c       0xa0 build/sam_c21n_xpro/production/_ext/1390440390/plib_port.o
                0x0000ba6c                PORT_Initialize

.text.__pow5mult%133
                0x0000bb0c       0xa0
 .text.__pow5mult
                0x0000bb0c       0xa0 c:/program files/microchip/xc32/v2.40/bin/bin/../../lib/gcc/pic32c/6.2.1/../../../../pic32c/lib\libc_nano.a(lib_a-mprec.o)
                0x0000bb0c                __pow5mult

.text%134       0x0000bbac      0x138
 .text          0x0000bbac       0xa0 c:/program files/microchip/xc32/v2.40/bin/bin/../../lib/gcc/pic32c/6.2.1\libgcc.a(gedf2.o)
                0x0000bbac                __gedf2
                0x0000bbac                __gtdf2
 .text          0x0000bc4c       0x98 c:/program files/microchip/xc32/v2.40/bin/bin/../../lib/gcc/pic32c/6.2.1\libgcc.a(extendsfdf2.o)
                0x0000bc4c                __aeabi_f2d

.text.__b2d%136
                0x0000bce4       0x98
 .text.__b2d    0x0000bce4       0x98 c:/program files/microchip/xc32/v2.40/bin/bin/../../lib/gcc/pic32c/6.2.1/../../../../pic32c/lib\libc_nano.a(lib_a-mprec.o)
                0x0000bce4                __b2d

.text.SERCOM1_USART_Read%137
                0x0000bd7c       0x94
 .text.SERCOM1_USART_Read
                0x0000bd7c       0x94 build/sam_c21n_xpro/production/_ext/1993392304/plib_sercom1_usart.o
                0x0000bd7c                SERCOM1_USART_Read

.text.SERCOM0_USART_Read%138
                0x0000be10       0x94
 .text.SERCOM0_USART_Read
                0x0000be10       0x94 build/sam_c21n_xpro/production/_ext/1993392304/plib_sercom0_usart.o
                0x0000be10                SERCOM0_USART_Read

.text._free_r%139
                0x0000bea4       0x94
 .text._free_r  0x0000bea4       0x94 c:/program files/microchip/xc32/v2.40/bin/bin/../../lib/gcc/pic32c/6.2.1/../../../../pic32c/lib\libc_nano.a(lib_a-nano-freer.o)
                0x0000bea4                _free_r

.text.CAN0_Initialize%140
                0x0000bf38       0x90
 .text.CAN0_Initialize
                0x0000bf38       0x90 build/sam_c21n_xpro/production/_ext/1617702135/plib_can0.o
                0x0000bf38                CAN0_Initialize

.text.__pic32c_data_initialization%141
                0x0000bfc8       0x90
 .text.__pic32c_data_initialization
                0x0000bfc8       0x90 c:/program files/microchip/xc32/v2.40/bin/bin/../../lib/gcc/pic32c/6.2.1/../../../../pic32c/lib\libpic32c.a(data_init.o)
                0x0000bfc8                __pic32c_data_initialization

.text.SERCOM1_USART_Initialize%142
                0x0000c058       0x8c
 .text.SERCOM1_USART_Initialize
                0x0000c058       0x8c build/sam_c21n_xpro/production/_ext/1993392304/plib_sercom1_usart.o
                0x0000c058                SERCOM1_USART_Initialize

.text.SERCOM0_USART_Initialize%143
                0x0000c0e4       0x8c
 .text.SERCOM0_USART_Initialize
                0x0000c0e4       0x8c build/sam_c21n_xpro/production/_ext/1993392304/plib_sercom0_usart.o
                0x0000c0e4                SERCOM0_USART_Initialize

.text%144       0x0000c170      0x110
 .text          0x0000c170       0x8c c:/program files/microchip/xc32/v2.40/bin/bin/../../lib/gcc/pic32c/6.2.1\libgcc.a(_udivsi3.o)
                0x0000c170                __aeabi_uidiv
                0x0000c170                __udivsi3
                0x0000c1e8                __aeabi_uidivmod
 .text          0x0000c1fc       0x84 c:/program files/microchip/xc32/v2.40/bin/bin/../../lib/gcc/pic32c/6.2.1\libgcc.a(floatsisf.o)
                0x0000c1fc                __aeabi_i2f

.text.__sfp%146
                0x0000c280       0x80
 .text.__sfp    0x0000c280       0x80 c:/program files/microchip/xc32/v2.40/bin/bin/../../lib/gcc/pic32c/6.2.1/../../../../pic32c/lib\libc_nano.a(lib_a-findfp.o)
                0x0000c280                __sfp

.text.__s2b%147
                0x0000c300       0x7e
 .text.__s2b    0x0000c300       0x7e c:/program files/microchip/xc32/v2.40/bin/bin/../../lib/gcc/pic32c/6.2.1/../../../../pic32c/lib\libc_nano.a(lib_a-mprec.o)
                0x0000c300                __s2b

.text.EIC_Initialize%148
                0x0000c380       0x7c
 .text.EIC_Initialize
                0x0000c380       0x7c build/sam_c21n_xpro/production/_ext/1617704294/plib_eic.o
                0x0000c380                EIC_Initialize

.text.NVIC_Initialize%149
                0x0000c3fc       0x7c
 .text.NVIC_Initialize
                0x0000c3fc       0x7c build/sam_c21n_xpro/production/_ext/1390493541/plib_nvic.o
                0x0000c3fc                NVIC_Initialize

.text.SYS_Initialize%150
                0x0000c478       0x7c
 .text.SYS_Initialize
                0x0000c478       0x7c build/sam_c21n_xpro/production/_ext/1758384875/initialization.o
                0x0000c478                SYS_Initialize

.text.__fputwc%151
                0x0000c4f4       0x7c
 .text.__fputwc
                0x0000c4f4       0x7c c:/program files/microchip/xc32/v2.40/bin/bin/../../lib/gcc/pic32c/6.2.1/../../../../pic32c/lib\libc_nano.a(lib_a-fputwc.o)
                0x0000c4f4                __fputwc

.text.__smakebuf_r%152
                0x0000c570       0x7c
 .text.__smakebuf_r
                0x0000c570       0x7c c:/program files/microchip/xc32/v2.40/bin/bin/../../lib/gcc/pic32c/6.2.1/../../../../pic32c/lib\libc_nano.a(lib_a-makebuf.o)
                0x0000c570                __smakebuf_r

.text%153       0x0000c5ec       0x7c
 .text          0x0000c5ec       0x7c c:/program files/microchip/xc32/v2.40/bin/bin/../../lib/gcc/pic32c/6.2.1\libgcc.a(_arm_cmpdf2.o)
                0x0000c5ec                __aeabi_cdrcmple
                0x0000c5fc                __aeabi_cdcmple
                0x0000c5fc                __aeabi_cdcmpeq
                0x0000c60c                __aeabi_dcmpeq
                0x0000c618                __aeabi_dcmplt
                0x0000c62c                __aeabi_dcmple
                0x0000c640                __aeabi_dcmpgt
                0x0000c654                __aeabi_dcmpge

.text.__multadd%154
                0x0000c668       0x78
 .text.__multadd
                0x0000c668       0x78 c:/program files/microchip/xc32/v2.40/bin/bin/../../lib/gcc/pic32c/6.2.1/../../../../pic32c/lib\libc_nano.a(lib_a-mprec.o)
                0x0000c668                __multadd

.text%155       0x0000c6e0       0xe8
 .text          0x0000c6e0       0x74 c:/program files/microchip/xc32/v2.40/bin/bin/../../lib/gcc/pic32c/6.2.1\libgcc.a(floatunsisf.o)
                0x0000c6e0                __aeabi_ui2f
 .text          0x0000c754       0x74 c:/program files/microchip/xc32/v2.40/bin/bin/../../lib/gcc/pic32c/6.2.1\libgcc.a(floatsidf.o)
                0x0000c754                __aeabi_i2d

.text._Balloc%157
                0x0000c7c8       0x70
 .text._Balloc  0x0000c7c8       0x70 c:/program files/microchip/xc32/v2.40/bin/bin/../../lib/gcc/pic32c/6.2.1/../../../../pic32c/lib\libc_nano.a(lib_a-mprec.o)
                0x0000c7c8                _Balloc

.text%158       0x0000c838       0x70
 .text          0x0000c838       0x70 c:/program files/microchip/xc32/v2.40/bin/bin/../../lib/gcc/pic32c/6.2.1\libgcc.a(eqdf2.o)
                0x0000c838                __nedf2
                0x0000c838                __eqdf2

.text.EMU_EEPROM_Initialize%159
                0x0000c8a8       0x68
 .text.EMU_EEPROM_Initialize
                0x0000c8a8       0x68 build/sam_c21n_xpro/production/_ext/1019481632/emulated_eeprom.o
                0x0000c8a8                EMU_EEPROM_Initialize

.text.__sinit%160
                0x0000c910       0x68
 .text.__sinit  0x0000c910       0x68 c:/program files/microchip/xc32/v2.40/bin/bin/../../lib/gcc/pic32c/6.2.1/../../../../pic32c/lib\libc_nano.a(lib_a-findfp.o)
                0x0000c910                __sinit

.text%161       0x0000c978       0x68
 .text          0x0000c978       0x68 c:/program files/microchip/xc32/v2.40/bin/bin/../../lib/gcc/pic32c/6.2.1\libgcc.a(fixdfsi.o)
                0x0000c978                __aeabi_d2iz

.text.rshift%162
                0x0000c9e0       0x64
 .text.rshift   0x0000c9e0       0x64 c:/program files/microchip/xc32/v2.40/bin/bin/../../lib/gcc/pic32c/6.2.1/../../../../pic32c/lib\libc_nano.a(lib_a-gdtoa-gethex.o)

.text%163       0x0000ca44       0x64
 .text          0x0000ca44       0x64 c:/program files/microchip/xc32/v2.40/bin/bin/../../lib/gcc/pic32c/6.2.1\libgcc.a(floatunsidf.o)
                0x0000ca44                __aeabi_ui2d

.text.SERCOM2_I2C_Initialize%164
                0x0000caa8       0x60
 .text.SERCOM2_I2C_Initialize
                0x0000caa8       0x60 build/sam_c21n_xpro/production/_ext/1451668420/plib_sercom2_i2c_master.o
                0x0000caa8                SERCOM2_I2C_Initialize

.text.__lo0bits%165
                0x0000cb08       0x5e
 .text.__lo0bits
                0x0000cb08       0x5e c:/program files/microchip/xc32/v2.40/bin/bin/../../lib/gcc/pic32c/6.2.1/../../../../pic32c/lib\libc_nano.a(lib_a-mprec.o)
                0x0000cb08                __lo0bits

.text.SetCANData4%166
                0x0000cb68       0x5c
 .text.SetCANData4
                0x0000cb68       0x5c build/sam_c21n_xpro/production/_ext/1360937237/canapp.o
                0x0000cb68                SetCANData4

.text.can_init%167
                0x0000cbc4       0x5c
 .text.can_init
                0x0000cbc4       0x5c build/sam_c21n_xpro/production/_ext/1360937237/canapp.o
                0x0000cbc4                can_init

.text.DRV_AT24_Initialize%168
                0x0000cc20       0x5c
 .text.DRV_AT24_Initialize
                0x0000cc20       0x5c build/sam_c21n_xpro/production/_ext/1936826263/drv_at24.o
                0x0000cc20                DRV_AT24_Initialize

.text._fflush_r%169
                0x0000cc7c       0x58
 .text._fflush_r
                0x0000cc7c       0x58 c:/program files/microchip/xc32/v2.40/bin/bin/../../lib/gcc/pic32c/6.2.1/../../../../pic32c/lib\libc_nano.a(lib_a-fflush.o)
                0x0000cc7c                _fflush_r

.text.SERCOM2_I2C_InitiateTransfer%170
                0x0000ccd4       0x54
 .text.SERCOM2_I2C_InitiateTransfer
                0x0000ccd4       0x54 build/sam_c21n_xpro/production/_ext/1451668420/plib_sercom2_i2c_master.o

.text.main%171  0x0000cd28       0x54
 .text.main     0x0000cd28       0x54 build/sam_c21n_xpro/production/_ext/1360937237/main.o
                0x0000cd28                main

.text.ReadMotoID%172
                0x0000cd7c       0x50
 .text.ReadMotoID
                0x0000cd7c       0x50 build/sam_c21n_xpro/production/_ext/1360937237/canapp.o
                0x0000cd7c                ReadMotoID

.text._DRV_USART_RX_PLIB_CallbackHandler%173
                0x0000cdcc       0x50
 .text._DRV_USART_RX_PLIB_CallbackHandler
                0x0000cdcc       0x50 build/sam_c21n_xpro/production/_ext/1274584173/drv_usart.o

.text.EMU_EEPROM_IsValidVersionStrExists%174
                0x0000ce1c       0x50
 .text.EMU_EEPROM_IsValidVersionStrExists
                0x0000ce1c       0x50 build/sam_c21n_xpro/production/_ext/1019481632/emulated_eeprom.o

.text.ADC0_Initialize%175
                0x0000ce6c       0x50
 .text.ADC0_Initialize
                0x0000ce6c       0x50 build/sam_c21n_xpro/production/_ext/1617700295/plib_adc0.o
                0x0000ce6c                ADC0_Initialize

.text.__swhatbuf_r%176
                0x0000cebc       0x50
 .text.__swhatbuf_r
                0x0000cebc       0x50 c:/program files/microchip/xc32/v2.40/bin/bin/../../lib/gcc/pic32c/6.2.1/../../../../pic32c/lib\libc_nano.a(lib_a-makebuf.o)
                0x0000cebc                __swhatbuf_r

.text.__ratio%177
                0x0000cf0c       0x4e
 .text.__ratio  0x0000cf0c       0x4e c:/program files/microchip/xc32/v2.40/bin/bin/../../lib/gcc/pic32c/6.2.1/../../../../pic32c/lib\libc_nano.a(lib_a-mprec.o)
                0x0000cf0c                __ratio

.text.SetCANData1%178
                0x0000cf5c       0x4c
 .text.SetCANData1
                0x0000cf5c       0x4c build/sam_c21n_xpro/production/_ext/1360937237/canapp.o
                0x0000cf5c                SetCANData1

.text.timer_update%179
                0x0000cfa8       0x4c
 .text.timer_update
                0x0000cfa8       0x4c build/sam_c21n_xpro/production/_ext/1360937237/apptimer.o
                0x0000cfa8                timer_update

.text.__ulp%180
                0x0000cff4       0x4c
 .text.__ulp    0x0000cff4       0x4c c:/program files/microchip/xc32/v2.40/bin/bin/../../lib/gcc/pic32c/6.2.1/../../../../pic32c/lib\libc_nano.a(lib_a-mprec.o)
                0x0000cff4                __ulp

.text._wcrtomb_r%181
                0x0000d040       0x4c
 .text._wcrtomb_r
                0x0000d040       0x4c c:/program files/microchip/xc32/v2.40/bin/bin/../../lib/gcc/pic32c/6.2.1/../../../../pic32c/lib\libc_nano.a(lib_a-wcrtomb.o)
                0x0000d040                _wcrtomb_r

.text%182       0x0000d08c       0x48
 .text          0x0000d08c       0x48 c:/program files/microchip/xc32/v2.40/bin/bin/../../lib/gcc/pic32c/6.2.1/crtbegin.o

.text.fill_batvoltage%183
                0x0000d0d4       0x48
 .text.fill_batvoltage
                0x0000d0d4       0x48 build/sam_c21n_xpro/production/_ext/1360937237/canapp.o
                0x0000d0d4                fill_batvoltage

.text.fill_crankavgpower%184
                0x0000d11c       0x48
 .text.fill_crankavgpower
                0x0000d11c       0x48 build/sam_c21n_xpro/production/_ext/1360937237/canapp.o
                0x0000d11c                fill_crankavgpower

.text.fill_motoavgpower%185
                0x0000d164       0x48
 .text.fill_motoavgpower
                0x0000d164       0x48 build/sam_c21n_xpro/production/_ext/1360937237/canapp.o
                0x0000d164                fill_motoavgpower

.text.calculateODO%186
                0x0000d1ac       0x48
 .text.calculateODO
                0x0000d1ac       0x48 build/sam_c21n_xpro/production/_ext/1360937237/canapp.o
                0x0000d1ac                calculateODO

.text.EIC_InterruptHandler%187
                0x0000d1f4       0x48
 .text.EIC_InterruptHandler
                0x0000d1f4       0x48 build/sam_c21n_xpro/production/_ext/1617704294/plib_eic.o
                0x0000d1f4                EIC_InterruptHandler

.text.Reset_Handler%188
                0x0000d23c       0x48
 .text.Reset_Handler
                0x0000d23c       0x48 build/sam_c21n_xpro/production/_ext/1758384875/startup_xc32.o
                0x0000d23c                Reset_Handler

.text.__libc_init_array%189
                0x0000d284       0x48
 .text.__libc_init_array
                0x0000d284       0x48 c:/program files/microchip/xc32/v2.40/bin/bin/../../lib/gcc/pic32c/6.2.1/../../../../pic32c/lib\libc_nano.a(lib_a-init.o)
                0x0000d284                __libc_init_array

.text.__ssfputs_r%190
                0x0000d2cc       0x48
 .text.__ssfputs_r
                0x0000d2cc       0x48 c:/program files/microchip/xc32/v2.40/bin/bin/../../lib/gcc/pic32c/6.2.1/../../../../pic32c/lib\libc_nano.a(lib_a-__ssfputs.o)
                0x0000d2cc                __ssfputs_r

.text.std.isra.0%191
                0x0000d314       0x48
 .text.std.isra.0
                0x0000d314       0x48 c:/program files/microchip/xc32/v2.40/bin/bin/../../lib/gcc/pic32c/6.2.1/../../../../pic32c/lib\libc_nano.a(lib_a-findfp.o)

.rodata%192     0x0000d35c       0x45
 .rodata        0x0000d35c       0x45 c:/program files/microchip/xc32/v2.40/bin/bin/../../lib/gcc/pic32c/6.2.1/../../../../pic32c/lib\libc_nano.a(_lib_a-nano-vfprintf.cdfFgGnopsuxX.o)

.text.__any_on%193
                0x0000d3a2       0x44
 .text.__any_on
                0x0000d3a2       0x44 c:/program files/microchip/xc32/v2.40/bin/bin/../../lib/gcc/pic32c/6.2.1/../../../../pic32c/lib\libc_nano.a(lib_a-mprec.o)
                0x0000d3a2                __any_on

.text%194       0x0000d3e6       0x42
 .text          0x0000d3e6       0x42 c:/program files/microchip/xc32/v2.40/bin/bin/../../lib/gcc/pic32c/6.2.1\libgcc.a(_muldi3.o)
                0x0000d3e6                __muldi3
                0x0000d3e6                __aeabi_lmul

.text._fwalk_reent%195
                0x0000d428       0x42
 .text._fwalk_reent
                0x0000d428       0x42 c:/program files/microchip/xc32/v2.40/bin/bin/../../lib/gcc/pic32c/6.2.1/../../../../pic32c/lib\libc_nano.a(lib_a-fwalk.o)
                0x0000d428                _fwalk_reent

.text.SYSTICK_DelayMs%196
                0x0000d46c       0x40
 .text.SYSTICK_DelayMs
                0x0000d46c       0x40 build/sam_c21n_xpro/production/_ext/1004774289/plib_systick.o
                0x0000d46c                SYSTICK_DelayMs

.text%197       0x0000d4ac       0x40
 .text          0x0000d4ac       0x40 c:/program files/microchip/xc32/v2.40/bin/bin/../../lib/gcc/pic32c/6.2.1\libgcc.a(_aeabi_uldivmod.o)
                0x0000d4ac                __aeabi_uldivmod

.text._sprintf_cdfFgGnopsuxX%198
                0x0000d4ec       0x40
 .text._sprintf_cdfFgGnopsuxX
                0x0000d4ec       0x40 c:/program files/microchip/xc32/v2.40/bin/bin/../../lib/gcc/pic32c/6.2.1/../../../../pic32c/lib\libc_nano.a(_lib_a-sprintf.cdfFgGnopsuxX.o)
                0x0000d4ec                __sprintf_u
                0x0000d4ec                _sprintf_cdfFgGnopsuxX
                0x0000d4ec                __sprintf_s
                0x0000d4ec                __sprintf_oxX
                0x0000d4ec                __sprintf_fgG
                0x0000d4ec                __sprintf_di

.text.iot_main%199
                0x0000d52c       0x3c
 .text.iot_main
                0x0000d52c       0x3c build/sam_c21n_xpro/production/_ext/1360937237/appiot.o
                0x0000d52c                iot_main

.text%200       0x0000d568       0x78
 .text          0x0000d568       0x3c c:/program files/microchip/xc32/v2.40/bin/bin/../../lib/gcc/pic32c/6.2.1\libgcc.a(fixsfsi.o)
                0x0000d568                __aeabi_f2iz
 .text          0x0000d5a4       0x3c c:/program files/microchip/xc32/v2.40/bin/bin/../../lib/gcc/pic32c/6.2.1\libgcc.a(_clzsi2.o)
                0x0000d5a4                __clzsi2

.text.init_iot%202
                0x0000d5e0       0x38
 .text.init_iot
                0x0000d5e0       0x38 build/sam_c21n_xpro/production/_ext/1360937237/appiot.o
                0x0000d5e0                init_iot

.text.fill_speed%203
                0x0000d618       0x38
 .text.fill_speed
                0x0000d618       0x38 build/sam_c21n_xpro/production/_ext/1360937237/canapp.o
                0x0000d618                fill_speed

.text.SERCOM2_I2C_Read%204
                0x0000d650       0x38
 .text.SERCOM2_I2C_Read
                0x0000d650       0x38 build/sam_c21n_xpro/production/_ext/1451668420/plib_sercom2_i2c_master.o
                0x0000d650                SERCOM2_I2C_Read

.text.SERCOM2_I2C_WriteRead%205
                0x0000d688       0x38
 .text.SERCOM2_I2C_WriteRead
                0x0000d688       0x38 build/sam_c21n_xpro/production/_ext/1451668420/plib_sercom2_i2c_master.o
                0x0000d688                SERCOM2_I2C_WriteRead

.text.__swrite%206
                0x0000d6c0       0x38
 .text.__swrite
                0x0000d6c0       0x38 c:/program files/microchip/xc32/v2.40/bin/bin/../../lib/gcc/pic32c/6.2.1/../../../../pic32c/lib\libc_nano.a(lib_a-stdio.o)
                0x0000d6c0                __swrite

.text%207       0x0000d6f8       0x38
 .text          0x0000d6f8       0x38 c:/program files/microchip/xc32/v2.40/bin/bin/../../lib/gcc/pic32c/6.2.1\libgcc.a(_fixunsdfsi.o)
                0x0000d6f8                __aeabi_d2uiz
                0x0000d6f8                __fixunsdfsi

.text.fill_crankrpm%208
                0x0000d730       0x34
 .text.fill_crankrpm
                0x0000d730       0x34 build/sam_c21n_xpro/production/_ext/1360937237/canapp.o
                0x0000d730                fill_crankrpm

.text.fill_mototempture%209
                0x0000d764       0x34
 .text.fill_mototempture
                0x0000d764       0x34 build/sam_c21n_xpro/production/_ext/1360937237/canapp.o
                0x0000d764                fill_mototempture

.text.SERCOM2_I2C_Write%210
                0x0000d798       0x34
 .text.SERCOM2_I2C_Write
                0x0000d798       0x34 build/sam_c21n_xpro/production/_ext/1451668420/plib_sercom2_i2c_master.o
                0x0000d798                SERCOM2_I2C_Write

.text.__hi0bits%211
                0x0000d7cc       0x34
 .text.__hi0bits
                0x0000d7cc       0x34 c:/program files/microchip/xc32/v2.40/bin/bin/../../lib/gcc/pic32c/6.2.1/../../../../pic32c/lib\libc_nano.a(lib_a-mprec.o)
                0x0000d7cc                __hi0bits

.text%212       0x0000d800       0x34
 .text          0x0000d800       0x34 c:/program files/microchip/xc32/v2.40/bin/bin/../../lib/gcc/pic32c/6.2.1\libgcc.a(unorddf2.o)
                0x0000d800                __aeabi_dcmpun

.text._Bfree%213
                0x0000d834       0x32
 .text._Bfree   0x0000d834       0x32 c:/program files/microchip/xc32/v2.40/bin/bin/../../lib/gcc/pic32c/6.2.1/../../../../pic32c/lib\libc_nano.a(lib_a-mprec.o)
                0x0000d834                _Bfree

.text.__mcmp%214
                0x0000d866       0x32
 .text.__mcmp   0x0000d866       0x32 c:/program files/microchip/xc32/v2.40/bin/bin/../../lib/gcc/pic32c/6.2.1/../../../../pic32c/lib\libc_nano.a(lib_a-mprec.o)
                0x0000d866                __mcmp

.text.usartReadEventHandler%215
                0x0000d898       0x30
 .text.usartReadEventHandler
                0x0000d898       0x30 build/sam_c21n_xpro/production/_ext/1360937237/appuart.o
                0x0000d898                usartReadEventHandler

.text.usartWriteEventHandler%216
                0x0000d8c8       0x30
 .text.usartWriteEventHandler
                0x0000d8c8       0x30 build/sam_c21n_xpro/production/_ext/1360937237/appuart.o
                0x0000d8c8                usartWriteEventHandler

.text.strstr%217
                0x0000d8f8       0x30
 .text.strstr   0x0000d8f8       0x30 c:/program files/microchip/xc32/v2.40/bin/bin/../../lib/gcc/pic32c/6.2.1/../../../../pic32c/lib\libc_nano.a(lib_a-strstr.o)
                0x0000d8f8                strstr

.text.sulp%218  0x0000d928       0x30
 .text.sulp     0x0000d928       0x30 c:/program files/microchip/xc32/v2.40/bin/bin/../../lib/gcc/pic32c/6.2.1/../../../../pic32c/lib\libc_nano.a(lib_a-strtod.o)

.text._sbrk%219
                0x0000d958       0x30
 .text._sbrk    0x0000d958       0x30 c:/program files/microchip/xc32/v2.40/bin/bin/../../lib/gcc/pic32c/6.2.1/../../../../pic32c/lib\libpic32c.a(sbrk.o)
                0x0000d958                _sbrk

.text.precalculateODO%220
                0x0000d988       0x2c
 .text.precalculateODO
                0x0000d988       0x2c build/sam_c21n_xpro/production/_ext/1360937237/canapp.o
                0x0000d988                precalculateODO

.text.CAN0_ErrorGet%221
                0x0000d9b4       0x2c
 .text.CAN0_ErrorGet
                0x0000d9b4       0x2c build/sam_c21n_xpro/production/_ext/1617702135/plib_can0.o
                0x0000d9b4                CAN0_ErrorGet

.rodata.drvUsart0PlibAPI%222
                0x0000d9e0       0x2c
 .rodata.drvUsart0PlibAPI
                0x0000d9e0       0x2c build/sam_c21n_xpro/production/_ext/1758384875/initialization.o
                0x0000d9e0                drvUsart0PlibAPI

.rodata.drvUsart1PlibAPI%223
                0x0000da0c       0x2c
 .rodata.drvUsart1PlibAPI
                0x0000da0c       0x2c build/sam_c21n_xpro/production/_ext/1758384875/initialization.o
                0x0000da0c                drvUsart1PlibAPI

.text.__copybits%224
                0x0000da38       0x2c
 .text.__copybits
                0x0000da38       0x2c c:/program files/microchip/xc32/v2.40/bin/bin/../../lib/gcc/pic32c/6.2.1/../../../../pic32c/lib\libc_nano.a(lib_a-mprec.o)
                0x0000da38                __copybits

.text.__sfmoreglue%225
                0x0000da64       0x2c
 .text.__sfmoreglue
                0x0000da64       0x2c c:/program files/microchip/xc32/v2.40/bin/bin/../../lib/gcc/pic32c/6.2.1/../../../../pic32c/lib\libc_nano.a(lib_a-findfp.o)
                0x0000da64                __sfmoreglue

.text.__sseek%226
                0x0000da90       0x2c
 .text.__sseek  0x0000da90       0x2c c:/program files/microchip/xc32/v2.40/bin/bin/../../lib/gcc/pic32c/6.2.1/../../../../pic32c/lib\libc_nano.a(lib_a-stdio.o)
                0x0000da90                __sseek

.text.__hexdig_fun%227
                0x0000dabc       0x2a
 .text.__hexdig_fun
                0x0000dabc       0x2a c:/program files/microchip/xc32/v2.40/bin/bin/../../lib/gcc/pic32c/6.2.1/../../../../pic32c/lib\libc_nano.a(lib_a-gdtoa-gethex.o)
                0x0000dabc                __hexdig_fun

.text.__sfputc_r%228
                0x0000dae6       0x2a
 .text.__sfputc_r
                0x0000dae6       0x2a c:/program files/microchip/xc32/v2.40/bin/bin/../../lib/gcc/pic32c/6.2.1/../../../../pic32c/lib\libc_nano.a(lib_a-__ssfputs.o)

.text.usart_debug_WriteEventHandler%229
                0x0000db10       0x28
 .text.usart_debug_WriteEventHandler
                0x0000db10       0x28 build/sam_c21n_xpro/production/_ext/1360937237/app_uart_debug.o
                0x0000db10                usart_debug_WriteEventHandler

.rodata.can0ExtFilter%230
                0x0000db38       0x28
 .rodata.can0ExtFilter
                0x0000db38       0x28 build/sam_c21n_xpro/production/_ext/1617702135/plib_can0.o

.text.SERCOM2_I2C_IsBusy%231
                0x0000db60       0x28
 .text.SERCOM2_I2C_IsBusy
                0x0000db60       0x28 build/sam_c21n_xpro/production/_ext/1451668420/plib_sercom2_i2c_master.o
                0x0000db60                SERCOM2_I2C_IsBusy

.rodata.tinytens%232
                0x0000db88       0x28
 .rodata.tinytens
                0x0000db88       0x28 c:/program files/microchip/xc32/v2.40/bin/bin/../../lib/gcc/pic32c/6.2.1/../../../../pic32c/lib\libc_nano.a(lib_a-strtod.o)

.text.strtol%233
                0x0000dbb0       0x28
 .text.strtol   0x0000dbb0       0x28 c:/program files/microchip/xc32/v2.40/bin/bin/../../lib/gcc/pic32c/6.2.1/../../../../pic32c/lib\libc_nano.a(lib_a-strtol.o)
                0x0000dbb0                strtol

.text.__match%234
                0x0000dbd8       0x28
 .text.__match  0x0000dbd8       0x28 c:/program files/microchip/xc32/v2.40/bin/bin/../../lib/gcc/pic32c/6.2.1/../../../../pic32c/lib\libc_nano.a(lib_a-gdtoa-hexnan.o)
                0x0000dbd8                __match

.rodata.__mprec_bigtens%235
                0x0000dc00       0x28
 .rodata.__mprec_bigtens
                0x0000dc00       0x28 c:/program files/microchip/xc32/v2.40/bin/bin/../../lib/gcc/pic32c/6.2.1/../../../../pic32c/lib\libc_nano.a(lib_a-mprec.o)
                0x0000dc00                __mprec_bigtens

.text.__sread%236
                0x0000dc28       0x28
 .text.__sread  0x0000dc28       0x28 c:/program files/microchip/xc32/v2.40/bin/bin/../../lib/gcc/pic32c/6.2.1/../../../../pic32c/lib\libc_nano.a(lib_a-stdio.o)
                0x0000dc28                __sread

.text._write_r%237
                0x0000dc50       0x28
 .text._write_r
                0x0000dc50       0x28 c:/program files/microchip/xc32/v2.40/bin/bin/../../lib/gcc/pic32c/6.2.1/../../../../pic32c/lib\libc_nano.a(lib_a-writer.o)
                0x0000dc50                _write_r

.text._lseek_r%238
                0x0000dc78       0x28
 .text._lseek_r
                0x0000dc78       0x28 c:/program files/microchip/xc32/v2.40/bin/bin/../../lib/gcc/pic32c/6.2.1/../../../../pic32c/lib\libc_nano.a(lib_a-lseekr.o)
                0x0000dc78                _lseek_r

.text._read_r%239
                0x0000dca0       0x28
 .text._read_r  0x0000dca0       0x28 c:/program files/microchip/xc32/v2.40/bin/bin/../../lib/gcc/pic32c/6.2.1/../../../../pic32c/lib\libc_nano.a(lib_a-readr.o)
                0x0000dca0                _read_r

.text.APP_CAN_RX_Callback%240
                0x0000dcc8       0x24
 .text.APP_CAN_RX_Callback
                0x0000dcc8       0x24 build/sam_c21n_xpro/production/_ext/1360937237/canapp.o
                0x0000dcc8                APP_CAN_RX_Callback

.text.readiotdata%241
                0x0000dcec       0x24
 .text.readiotdata
                0x0000dcec       0x24 build/sam_c21n_xpro/production/_ext/1360937237/appemueeprom.o
                0x0000dcec                readiotdata

.text.SYSTICK_TimerInitialize%242
                0x0000dd10       0x24
 .text.SYSTICK_TimerInitialize
                0x0000dd10       0x24 build/sam_c21n_xpro/production/_ext/1004774289/plib_systick.o
                0x0000dd10                SYSTICK_TimerInitialize

.text.SysTick_Handler%243
                0x0000dd34       0x24
 .text.SysTick_Handler
                0x0000dd34       0x24 build/sam_c21n_xpro/production/_ext/1004774289/plib_systick.o
                0x0000dd34                SysTick_Handler

.text.strtod%244
                0x0000dd58       0x24
 .text.strtod   0x0000dd58       0x24 c:/program files/microchip/xc32/v2.40/bin/bin/../../lib/gcc/pic32c/6.2.1/../../../../pic32c/lib\libc_nano.a(lib_a-strtod.o)
                0x0000dd58                strtod

.text.__ascii_mbtowc%245
                0x0000dd7c       0x24
 .text.__ascii_mbtowc
                0x0000dd7c       0x24 c:/program files/microchip/xc32/v2.40/bin/bin/../../lib/gcc/pic32c/6.2.1/../../../../pic32c/lib\libc_nano.a(lib_a-mbtowc_r.o)
                0x0000dd7c                __ascii_mbtowc

.text._sbrk_r%246
                0x0000dda0       0x24
 .text._sbrk_r  0x0000dda0       0x24 c:/program files/microchip/xc32/v2.40/bin/bin/../../lib/gcc/pic32c/6.2.1/../../../../pic32c/lib\libc_nano.a(lib_a-sbrkr.o)
                0x0000dda0                _sbrk_r

.text._close_r%247
                0x0000ddc4       0x24
 .text._close_r
                0x0000ddc4       0x24 c:/program files/microchip/xc32/v2.40/bin/bin/../../lib/gcc/pic32c/6.2.1/../../../../pic32c/lib\libc_nano.a(lib_a-closer.o)
                0x0000ddc4                _close_r

.text._fstat_r%248
                0x0000dde8       0x24
 .text._fstat_r
                0x0000dde8       0x24 c:/program files/microchip/xc32/v2.40/bin/bin/../../lib/gcc/pic32c/6.2.1/../../../../pic32c/lib\libc_nano.a(lib_a-fstatr.o)
                0x0000dde8                _fstat_r

.text._isatty_r%249
                0x0000de0c       0x24
 .text._isatty_r
                0x0000de0c       0x24 c:/program files/microchip/xc32/v2.40/bin/bin/../../lib/gcc/pic32c/6.2.1/../../../../pic32c/lib\libc_nano.a(lib_a-isattyr.o)
                0x0000de0c                _isatty_r

.text.L_shift%250
                0x0000de30       0x22
 .text.L_shift  0x0000de30       0x22 c:/program files/microchip/xc32/v2.40/bin/bin/../../lib/gcc/pic32c/6.2.1/../../../../pic32c/lib\libc_nano.a(lib_a-gdtoa-hexnan.o)

.text.strncmp%251
                0x0000de52       0x22
 .text.strncmp  0x0000de52       0x22 c:/program files/microchip/xc32/v2.40/bin/bin/../../lib/gcc/pic32c/6.2.1/../../../../pic32c/lib\libc_nano.a(lib_a-strncmp.o)
                0x0000de52                strncmp

.text.SetCANData2%252
                0x0000de74       0x20
 .text.SetCANData2
                0x0000de74       0x20 build/sam_c21n_xpro/production/_ext/1360937237/canapp.o
                0x0000de74                SetCANData2

.text._DRV_AT24_ReadStatus%253
                0x0000de94       0x20
 .text._DRV_AT24_ReadStatus
                0x0000de94       0x20 build/sam_c21n_xpro/production/_ext/1936826263/drv_at24.o

.text.EMU_EEPROM_NVMRowErase%254
                0x0000deb4       0x20
 .text.EMU_EEPROM_NVMRowErase
                0x0000deb4       0x20 build/sam_c21n_xpro/production/_ext/1019481632/emulated_eeprom.o

.rodata.drvUsart0InitData%255
                0x0000ded4       0x20
 .rodata.drvUsart0InitData
                0x0000ded4       0x20 build/sam_c21n_xpro/production/_ext/1758384875/initialization.o
                0x0000ded4                drvUsart0InitData

.rodata.drvUsart1InitData%256
                0x0000def4       0x20
 .rodata.drvUsart1InitData
                0x0000def4       0x20 build/sam_c21n_xpro/production/_ext/1758384875/initialization.o
                0x0000def4                drvUsart1InitData

.rodata.__sf_fake_stderr%257
                0x0000df14       0x20
 .rodata.__sf_fake_stderr
                0x0000df14       0x20 c:/program files/microchip/xc32/v2.40/bin/bin/../../lib/gcc/pic32c/6.2.1/../../../../pic32c/lib\libc_nano.a(lib_a-findfp.o)
                0x0000df14                __sf_fake_stderr

.rodata.__sf_fake_stdin%258
                0x0000df34       0x20
 .rodata.__sf_fake_stdin
                0x0000df34       0x20 c:/program files/microchip/xc32/v2.40/bin/bin/../../lib/gcc/pic32c/6.2.1/../../../../pic32c/lib\libc_nano.a(lib_a-findfp.o)
                0x0000df34                __sf_fake_stdin

.rodata.__sf_fake_stdout%259
                0x0000df54       0x20
 .rodata.__sf_fake_stdout
                0x0000df54       0x20 c:/program files/microchip/xc32/v2.40/bin/bin/../../lib/gcc/pic32c/6.2.1/../../../../pic32c/lib\libc_nano.a(lib_a-findfp.o)
                0x0000df54                __sf_fake_stdout

.text.memcmp%260
                0x0000df74       0x1e
 .text.memcmp   0x0000df74       0x1e c:/program files/microchip/xc32/v2.40/bin/bin/../../lib/gcc/pic32c/6.2.1/../../../../pic32c/lib\libc_nano.a(lib_a-memcmp.o)
                0x0000df74                memcmp

.text._fputwc_r%261
                0x0000df92       0x1e
 .text._fputwc_r
                0x0000df92       0x1e c:/program files/microchip/xc32/v2.40/bin/bin/../../lib/gcc/pic32c/6.2.1/../../../../pic32c/lib\libc_nano.a(lib_a-fputwc.o)
                0x0000df92                _fputwc_r

.text.resetiot%262
                0x0000dfb0       0x1c
 .text.resetiot
                0x0000dfb0       0x1c build/sam_c21n_xpro/production/_ext/1360937237/moden.o
                0x0000dfb0                resetiot

.text.appurat_init%263
                0x0000dfcc       0x1c
 .text.appurat_init
                0x0000dfcc       0x1c build/sam_c21n_xpro/production/_ext/1360937237/appuart.o
                0x0000dfcc                appurat_init

.text.appurat_debug_init%264
                0x0000dfe8       0x1c
 .text.appurat_debug_init
                0x0000dfe8       0x1c build/sam_c21n_xpro/production/_ext/1360937237/app_uart_debug.o
                0x0000dfe8                appurat_debug_init

.text.CANDlcToLengthGet%265
                0x0000e004       0x1c
 .text.CANDlcToLengthGet
                0x0000e004       0x1c build/sam_c21n_xpro/production/_ext/1617702135/plib_can0.o

.text.SERCOM1_USART_WritePendingBytesGet%266
                0x0000e020       0x1c
 .text.SERCOM1_USART_WritePendingBytesGet
                0x0000e020       0x1c build/sam_c21n_xpro/production/_ext/1993392304/plib_sercom1_usart.o

.text.SERCOM1_USART_ReadCountGet%267
                0x0000e03c       0x1c
 .text.SERCOM1_USART_ReadCountGet
                0x0000e03c       0x1c build/sam_c21n_xpro/production/_ext/1993392304/plib_sercom1_usart.o
                0x0000e03c                SERCOM1_USART_ReadCountGet

.text.SERCOM0_USART_WritePendingBytesGet%268
                0x0000e058       0x1c
 .text.SERCOM0_USART_WritePendingBytesGet
                0x0000e058       0x1c build/sam_c21n_xpro/production/_ext/1993392304/plib_sercom0_usart.o

.text.SERCOM0_USART_ReadCountGet%269
                0x0000e074       0x1c
 .text.SERCOM0_USART_ReadCountGet
                0x0000e074       0x1c build/sam_c21n_xpro/production/_ext/1993392304/plib_sercom0_usart.o
                0x0000e074                SERCOM0_USART_ReadCountGet

.text.__locale_mb_cur_max%270
                0x0000e090       0x1c
 .text.__locale_mb_cur_max
                0x0000e090       0x1c c:/program files/microchip/xc32/v2.40/bin/bin/../../lib/gcc/pic32c/6.2.1/../../../../pic32c/lib\libc_nano.a(lib_a-locale.o)
                0x0000e090                __locale_mb_cur_max

.text._calloc_r%271
                0x0000e0ac       0x1c
 .text._calloc_r
                0x0000e0ac       0x1c c:/program files/microchip/xc32/v2.40/bin/bin/../../lib/gcc/pic32c/6.2.1/../../../../pic32c/lib\libc_nano.a(lib_a-nano-callocr.o)
                0x0000e0ac                _calloc_r

.text.strcat%272
                0x0000e0c8       0x1a
 .text.strcat   0x0000e0c8       0x1a c:/program files/microchip/xc32/v2.40/bin/bin/../../lib/gcc/pic32c/6.2.1/../../../../pic32c/lib\libc_nano.a(lib_a-strcat.o)
                0x0000e0c8                strcat

.text.APP_CAN_TX_Callback%273
                0x0000e0e4       0x18
 .text.APP_CAN_TX_Callback
                0x0000e0e4       0x18 build/sam_c21n_xpro/production/_ext/1360937237/canapp.o
                0x0000e0e4                APP_CAN_TX_Callback

.text.fill_ecuwarncode%274
                0x0000e0fc       0x18
 .text.fill_ecuwarncode
                0x0000e0fc       0x18 build/sam_c21n_xpro/production/_ext/1360937237/canapp.o
                0x0000e0fc                fill_ecuwarncode

.text.fill_ecuerrorcode%275
                0x0000e114       0x18
 .text.fill_ecuerrorcode
                0x0000e114       0x18 build/sam_c21n_xpro/production/_ext/1360937237/canapp.o
                0x0000e114                fill_ecuerrorcode

.text.NVMCTRL_RWWEEPROM_RowErase%276
                0x0000e12c       0x18
 .text.NVMCTRL_RWWEEPROM_RowErase
                0x0000e12c       0x18 build/sam_c21n_xpro/production/_ext/770299191/plib_nvmctrl.o
                0x0000e12c                NVMCTRL_RWWEEPROM_RowErase

.rodata.drvAT24InitData%277
                0x0000e144       0x18
 .rodata.drvAT24InitData
                0x0000e144       0x18 build/sam_c21n_xpro/production/_ext/1758384875/initialization.o
                0x0000e144                drvAT24InitData

.rodata.drvAT24PlibAPI%278
                0x0000e15c       0x18
 .rodata.drvAT24PlibAPI
                0x0000e15c       0x18 build/sam_c21n_xpro/production/_ext/1758384875/initialization.o
                0x0000e15c                drvAT24PlibAPI

.rodata.drvUsart0remapParity%279
                0x0000e174       0x18
 .rodata.drvUsart0remapParity
                0x0000e174       0x18 build/sam_c21n_xpro/production/_ext/1758384875/initialization.o
                0x0000e174                drvUsart0remapParity

.rodata.drvUsart1remapParity%280
                0x0000e18c       0x18
 .rodata.drvUsart1remapParity
                0x0000e18c       0x18 build/sam_c21n_xpro/production/_ext/1758384875/initialization.o
                0x0000e18c                drvUsart1remapParity

.text%281       0x0000e1a4       0x48
 .text          0x0000e1a4       0x18 c:/program files/microchip/xc32/v2.40/bin/bin/../../lib/gcc/pic32c/6.2.1\libgcc.a(_lshrdi3.o)
                0x0000e1a4                __lshrdi3
                0x0000e1a4                __aeabi_llsr
 .text          0x0000e1bc       0x18 c:/program files/microchip/xc32/v2.40/bin/bin/../../lib/gcc/pic32c/6.2.1\libgcc.a(_ashldi3.o)
                0x0000e1bc                __aeabi_llsl
                0x0000e1bc                __ashldi3
 .text          0x0000e1d4       0x18 c:/program files/microchip/xc32/v2.40/bin/bin/../../lib/gcc/pic32c/6.2.1\libgcc.a(_clzdi2.o)
                0x0000e1d4                __clzdi2

.text._localeconv_r%284
                0x0000e1ec       0x18
 .text._localeconv_r
                0x0000e1ec       0x18 c:/program files/microchip/xc32/v2.40/bin/bin/../../lib/gcc/pic32c/6.2.1/../../../../pic32c/lib\libc_nano.a(lib_a-localeconv.o)
                0x0000e1ec                _localeconv_r

.text._vfprintf_cdfFgGnopsuxX%285
                0x0000e204       0x18
 .text._vfprintf_cdfFgGnopsuxX
                0x0000e204       0x18 c:/program files/microchip/xc32/v2.40/bin/bin/../../lib/gcc/pic32c/6.2.1/../../../../pic32c/lib\libc_nano.a(_lib_a-nano-vfprintf.cdfFgGnopsuxX.o)
                0x0000e204                _vfprintf_cdfFgGnopsuxX

.text.__ascii_wctomb%286
                0x0000e21c       0x18
 .text.__ascii_wctomb
                0x0000e21c       0x18 c:/program files/microchip/xc32/v2.40/bin/bin/../../lib/gcc/pic32c/6.2.1/../../../../pic32c/lib\libc_nano.a(lib_a-wctomb_r.o)
                0x0000e21c                __ascii_wctomb

.text.memchr%287
                0x0000e234       0x16
 .text.memchr   0x0000e234       0x16 c:/program files/microchip/xc32/v2.40/bin/bin/../../lib/gcc/pic32c/6.2.1/../../../../pic32c/lib\libc_nano.a(lib_a-memchr-stub.o)
                0x0000e234                memchr

.text.initmachinestates%288
                0x0000e24c       0x14
 .text.initmachinestates
                0x0000e24c       0x14 build/sam_c21n_xpro/production/_ext/1360937237/appiot.o
                0x0000e24c                initmachinestates

.text.ClearRx0%289
                0x0000e260       0x14
 .text.ClearRx0
                0x0000e260       0x14 build/sam_c21n_xpro/production/_ext/1360937237/canapp.o
                0x0000e260                ClearRx0

.text.ClerCAN_ECU%290
                0x0000e274       0x14
 .text.ClerCAN_ECU
                0x0000e274       0x14 build/sam_c21n_xpro/production/_ext/1360937237/canapp.o
                0x0000e274                ClerCAN_ECU

.text.CAN0_RxCallbackRegister%291
                0x0000e288       0x14
 .text.CAN0_RxCallbackRegister
                0x0000e288       0x14 build/sam_c21n_xpro/production/_ext/1617702135/plib_can0.o
                0x0000e288                CAN0_RxCallbackRegister

.text.NVIC_INT_Restore%292
                0x0000e29c       0x14
 .text.NVIC_INT_Restore
                0x0000e29c       0x14 build/sam_c21n_xpro/production/_ext/1390493541/plib_nvic.o
                0x0000e29c                NVIC_INT_Restore

.text.NVMCTRL_IsBusy%293
                0x0000e2b0       0x14
 .text.NVMCTRL_IsBusy
                0x0000e2b0       0x14 build/sam_c21n_xpro/production/_ext/770299191/plib_nvmctrl.o
                0x0000e2b0                NVMCTRL_IsBusy

.text.SERCOM1_USART_WriteFreeBufferCountGet%294
                0x0000e2c4       0x14
 .text.SERCOM1_USART_WriteFreeBufferCountGet
                0x0000e2c4       0x14 build/sam_c21n_xpro/production/_ext/1993392304/plib_sercom1_usart.o
                0x0000e2c4                SERCOM1_USART_WriteFreeBufferCountGet

.text.SERCOM0_USART_WriteFreeBufferCountGet%295
                0x0000e2d8       0x14
 .text.SERCOM0_USART_WriteFreeBufferCountGet
                0x0000e2d8       0x14 build/sam_c21n_xpro/production/_ext/1993392304/plib_sercom0_usart.o
                0x0000e2d8                SERCOM0_USART_WriteFreeBufferCountGet

.text.SYSTICK_TimerStart%296
                0x0000e2ec       0x14
 .text.SYSTICK_TimerStart
                0x0000e2ec       0x14 build/sam_c21n_xpro/production/_ext/1004774289/plib_systick.o
                0x0000e2ec                SYSTICK_TimerStart

.text.WDT_Clear%297
                0x0000e300       0x14
 .text.WDT_Clear
                0x0000e300       0x14 build/sam_c21n_xpro/production/_ext/1617721454/plib_wdt.o
                0x0000e300                WDT_Clear

.rodata.drvUsart0remapDataWidth%298
                0x0000e314       0x14
 .rodata.drvUsart0remapDataWidth
                0x0000e314       0x14 build/sam_c21n_xpro/production/_ext/1758384875/initialization.o
                0x0000e314                drvUsart0remapDataWidth

.rodata.drvUsart1remapDataWidth%299
                0x0000e328       0x14
 .rodata.drvUsart1remapDataWidth
                0x0000e328       0x14 build/sam_c21n_xpro/production/_ext/1758384875/initialization.o
                0x0000e328                drvUsart1remapDataWidth

.text%300       0x0000e33c       0x28
 .text          0x0000e33c       0x14 c:/program files/microchip/xc32/v2.40/bin/bin/../../lib/gcc/pic32c/6.2.1\libgcc.a(_thumb1_case_uqi.o)
                0x0000e33c                __gnu_thumb1_case_uqi
 .text          0x0000e350       0x14 c:/program files/microchip/xc32/v2.40/bin/bin/../../lib/gcc/pic32c/6.2.1\libgcc.a(_thumb1_case_uhi.o)
                0x0000e350                __gnu_thumb1_case_uhi

.rodata.fpi.6163%302
                0x0000e364       0x14
 .rodata.fpi.6163
                0x0000e364       0x14 c:/program files/microchip/xc32/v2.40/bin/bin/../../lib/gcc/pic32c/6.2.1/../../../../pic32c/lib\libc_nano.a(lib_a-strtod.o)

.rodata.fpinan.6199%303
                0x0000e378       0x14
 .rodata.fpinan.6199
                0x0000e378       0x14 c:/program files/microchip/xc32/v2.40/bin/bin/../../lib/gcc/pic32c/6.2.1/../../../../pic32c/lib\libc_nano.a(lib_a-strtod.o)

.text.malloc%304
                0x0000e38c       0x14
 .text.malloc   0x0000e38c       0x14 c:/program files/microchip/xc32/v2.40/bin/bin/../../lib/gcc/pic32c/6.2.1/../../../../pic32c/lib\libc_nano.a(lib_a-malloc.o)
                0x0000e38c                malloc

.text.enable_CAN%305
                0x0000e3a0       0x12
 .text.enable_CAN
                0x0000e3a0       0x12 build/sam_c21n_xpro/production/_ext/1360937237/canapp.o
                0x0000e3a0                enable_CAN

.text.standby_CAN%306
                0x0000e3b2       0x12
 .text.standby_CAN
                0x0000e3b2       0x12 build/sam_c21n_xpro/production/_ext/1360937237/canapp.o
                0x0000e3b2                standby_CAN

.text.NVIC_INT_Disable%307
                0x0000e3c4       0x12
 .text.NVIC_INT_Disable
                0x0000e3c4       0x12 build/sam_c21n_xpro/production/_ext/1390493541/plib_nvic.o
                0x0000e3c4                NVIC_INT_Disable

.text.memcpy%308
                0x0000e3d6       0x12
 .text.memcpy   0x0000e3d6       0x12 c:/program files/microchip/xc32/v2.40/bin/bin/../../lib/gcc/pic32c/6.2.1/../../../../pic32c/lib\libc_nano.a(lib_a-memcpy-stub.o)
                0x0000e3d6                memcpy

.text.__i2b%309
                0x0000e3e8       0x12
 .text.__i2b    0x0000e3e8       0x12 c:/program files/microchip/xc32/v2.40/bin/bin/../../lib/gcc/pic32c/6.2.1/../../../../pic32c/lib\libc_nano.a(lib_a-mprec.o)
                0x0000e3e8                __i2b

.text.incmqtttimer%310
                0x0000e3fc       0x10
 .text.incmqtttimer
                0x0000e3fc       0x10 build/sam_c21n_xpro/production/_ext/1360937237/appiot.o
                0x0000e3fc                incmqtttimer

.text.SetCANData3%311
                0x0000e40c       0x10
 .text.SetCANData3
                0x0000e40c       0x10 build/sam_c21n_xpro/production/_ext/1360937237/canapp.o
                0x0000e40c                SetCANData3

.text.inccanbussleeptimer%312
                0x0000e41c       0x10
 .text.inccanbussleeptimer
                0x0000e41c       0x10 build/sam_c21n_xpro/production/_ext/1360937237/canapp.o
                0x0000e41c                inccanbussleeptimer

.text._DRV_USART_TX_PLIB_CallbackHandler%313
                0x0000e42c       0x10
 .text._DRV_USART_TX_PLIB_CallbackHandler
                0x0000e42c       0x10 build/sam_c21n_xpro/production/_ext/1274584173/drv_usart.o

.text.CAN0_TxCallbackRegister%314
                0x0000e43c       0x10
 .text.CAN0_TxCallbackRegister
                0x0000e43c       0x10 build/sam_c21n_xpro/production/_ext/1617702135/plib_can0.o
                0x0000e43c                CAN0_TxCallbackRegister

.rodata%315     0x0000e44c       0x10
 .rodata        0x0000e44c       0x10 build/sam_c21n_xpro/production/_ext/1617702135/plib_can0.o

.text.SERCOM2_I2C_ErrorGet%316
                0x0000e45c       0x10
 .text.SERCOM2_I2C_ErrorGet
                0x0000e45c       0x10 build/sam_c21n_xpro/production/_ext/1451668420/plib_sercom2_i2c_master.o
                0x0000e45c                SERCOM2_I2C_ErrorGet

.text.SERCOM1_USART_ErrorGet%317
                0x0000e46c       0x10
 .text.SERCOM1_USART_ErrorGet
                0x0000e46c       0x10 build/sam_c21n_xpro/production/_ext/1993392304/plib_sercom1_usart.o
                0x0000e46c                SERCOM1_USART_ErrorGet

.text.SERCOM0_USART_ErrorGet%318
                0x0000e47c       0x10
 .text.SERCOM0_USART_ErrorGet
                0x0000e47c       0x10 build/sam_c21n_xpro/production/_ext/1993392304/plib_sercom0_usart.o
                0x0000e47c                SERCOM0_USART_ErrorGet

.text.memset%319
                0x0000e48c       0x10
 .text.memset   0x0000e48c       0x10 c:/program files/microchip/xc32/v2.40/bin/bin/../../lib/gcc/pic32c/6.2.1/../../../../pic32c/lib\libc_nano.a(lib_a-memset.o)
                0x0000e48c                memset

.text._cleanup_r%320
                0x0000e49c       0x10
 .text._cleanup_r
                0x0000e49c       0x10 c:/program files/microchip/xc32/v2.40/bin/bin/../../lib/gcc/pic32c/6.2.1/../../../../pic32c/lib\libc_nano.a(lib_a-findfp.o)
                0x0000e49c                _cleanup_r

.rodata%321     0x0000e4ac        0xf
 .rodata        0x0000e4ac        0xf c:/program files/microchip/xc32/v2.40/bin/bin/../../lib/gcc/pic32c/6.2.1/../../../../pic32c/lib\libc_nano.a(lib_a-dtoa.o)

.text.usart_debug_ReadEventHandler%322
                0x0000e4bc        0xe
 .text.usart_debug_ReadEventHandler
                0x0000e4bc        0xe build/sam_c21n_xpro/production/_ext/1360937237/app_uart_debug.o
                0x0000e4bc                usart_debug_ReadEventHandler

.text%323       0x0000e4ca        0xe
 .text          0x0000e4ca        0xe c:/program files/microchip/xc32/v2.40/bin/bin/../../lib/gcc/pic32c/6.2.1/../../../../pic32c/lib\libc_nano.a(lib_a-strlen.o)
                0x0000e4ca                strlen

.text.setmcahinestates%324
                0x0000e4d8        0xc
 .text.setmcahinestates
                0x0000e4d8        0xc build/sam_c21n_xpro/production/_ext/1360937237/appiot.o
                0x0000e4d8                setmcahinestates

.text.init_can%325
                0x0000e4e4        0xc
 .text.init_can
                0x0000e4e4        0xc build/sam_c21n_xpro/production/_ext/1360937237/canapp.o
                0x0000e4e4                init_can

.text.readcanbussleeptimer%326
                0x0000e4f0        0xc
 .text.readcanbussleeptimer
                0x0000e4f0        0xc build/sam_c21n_xpro/production/_ext/1360937237/canapp.o
                0x0000e4f0                readcanbussleeptimer

.text.set_canstatenew%327
                0x0000e4fc        0xc
 .text.set_canstatenew
                0x0000e4fc        0xc build/sam_c21n_xpro/production/_ext/1360937237/canapp.o
                0x0000e4fc                set_canstatenew

.text.readOdoFromRam%328
                0x0000e508        0xc
 .text.readOdoFromRam
                0x0000e508        0xc build/sam_c21n_xpro/production/_ext/1360937237/appemueeprom.o
                0x0000e508                readOdoFromRam

.text.CAN0_InterruptClear%329
                0x0000e514        0xc
 .text.CAN0_InterruptClear
                0x0000e514        0xc build/sam_c21n_xpro/production/_ext/1617702135/plib_can0.o
                0x0000e514                CAN0_InterruptClear

.text.NVMCTRL_Initialize%330
                0x0000e520        0xc
 .text.NVMCTRL_Initialize
                0x0000e520        0xc build/sam_c21n_xpro/production/_ext/770299191/plib_nvmctrl.o
                0x0000e520                NVMCTRL_Initialize

.text.PORT_GroupWrite%331
                0x0000e52c        0xc
 .text.PORT_GroupWrite
                0x0000e52c        0xc build/sam_c21n_xpro/production/_ext/1390440390/plib_port.o
                0x0000e52c                PORT_GroupWrite

.text.SERCOM2_I2C_CallbackRegister%332
                0x0000e538        0xc
 .text.SERCOM2_I2C_CallbackRegister
                0x0000e538        0xc build/sam_c21n_xpro/production/_ext/1451668420/plib_sercom2_i2c_master.o
                0x0000e538                SERCOM2_I2C_CallbackRegister

.text.SERCOM1_USART_ReadCallbackRegister%333
                0x0000e544        0xc
 .text.SERCOM1_USART_ReadCallbackRegister
                0x0000e544        0xc build/sam_c21n_xpro/production/_ext/1993392304/plib_sercom1_usart.o
                0x0000e544                SERCOM1_USART_ReadCallbackRegister

.text.SERCOM1_USART_WriteCallbackRegister%334
                0x0000e550        0xc
 .text.SERCOM1_USART_WriteCallbackRegister
                0x0000e550        0xc build/sam_c21n_xpro/production/_ext/1993392304/plib_sercom1_usart.o
                0x0000e550                SERCOM1_USART_WriteCallbackRegister

.text.SERCOM0_USART_ReadCallbackRegister%335
                0x0000e55c        0xc
 .text.SERCOM0_USART_ReadCallbackRegister
                0x0000e55c        0xc build/sam_c21n_xpro/production/_ext/1993392304/plib_sercom0_usart.o
                0x0000e55c                SERCOM0_USART_ReadCallbackRegister

.text.SERCOM0_USART_WriteCallbackRegister%336
                0x0000e568        0xc
 .text.SERCOM0_USART_WriteCallbackRegister
                0x0000e568        0xc build/sam_c21n_xpro/production/_ext/1993392304/plib_sercom0_usart.o
                0x0000e568                SERCOM0_USART_WriteCallbackRegister

.text.SYSTICK_TimerCallbackSet%337
                0x0000e574        0xc
 .text.SYSTICK_TimerCallbackSet
                0x0000e574        0xc build/sam_c21n_xpro/production/_ext/1004774289/plib_systick.o
                0x0000e574                SYSTICK_TimerCallbackSet

.rodata.drvUsart0remapError%338
                0x0000e580        0xc
 .rodata.drvUsart0remapError
                0x0000e580        0xc build/sam_c21n_xpro/production/_ext/1758384875/initialization.o
                0x0000e580                drvUsart0remapError

.rodata.drvUsart0remapStopBits%339
                0x0000e58c        0xc
 .rodata.drvUsart0remapStopBits
                0x0000e58c        0xc build/sam_c21n_xpro/production/_ext/1758384875/initialization.o
                0x0000e58c                drvUsart0remapStopBits

.rodata.drvUsart1remapError%340
                0x0000e598        0xc
 .rodata.drvUsart1remapError
                0x0000e598        0xc build/sam_c21n_xpro/production/_ext/1758384875/initialization.o
                0x0000e598                drvUsart1remapError

.rodata.drvUsart1remapStopBits%341
                0x0000e5a4        0xc
 .rodata.drvUsart1remapStopBits
                0x0000e5a4        0xc build/sam_c21n_xpro/production/_ext/1758384875/initialization.o
                0x0000e5a4                drvUsart1remapStopBits

.text.APP_Initialize%342
                0x0000e5b0        0xc
 .text.APP_Initialize
                0x0000e5b0        0xc build/sam_c21n_xpro/production/_ext/1360937237/app.o
                0x0000e5b0                APP_Initialize

.text.atoi%343  0x0000e5bc        0xc
 .text.atoi     0x0000e5bc        0xc c:/program files/microchip/xc32/v2.40/bin/bin/../../lib/gcc/pic32c/6.2.1/../../../../pic32c/lib\libc_nano.a(lib_a-atoi.o)
                0x0000e5bc                atoi

.rodata%344     0x0000e5c8        0xc
 .rodata        0x0000e5c8        0xc c:/program files/microchip/xc32/v2.40/bin/bin/../../lib/gcc/pic32c/6.2.1/../../../../pic32c/lib\libc_nano.a(lib_a-strtod.o)

.rodata.p05.6081%345
                0x0000e5d4        0xc
 .rodata.p05.6081
                0x0000e5d4        0xc c:/program files/microchip/xc32/v2.40/bin/bin/../../lib/gcc/pic32c/6.2.1/../../../../pic32c/lib\libc_nano.a(lib_a-mprec.o)

.text.__sclose%346
                0x0000e5e0        0xc
 .text.__sclose
                0x0000e5e0        0xc c:/program files/microchip/xc32/v2.40/bin/bin/../../lib/gcc/pic32c/6.2.1/../../../../pic32c/lib\libc_nano.a(lib_a-stdio.o)
                0x0000e5e0                __sclose

.text.fstat%347
                0x0000e5ec        0xc
 .text.fstat    0x0000e5ec        0xc c:/program files/microchip/xc32/v2.40/bin/bin/../../lib/gcc/pic32c/6.2.1/../../../../pic32c/lib\libpic32c.a(fstat.o)
                0x0000e5ec                fstat

.rodata%348     0x0000e5f8        0xb
 .rodata        0x0000e5f8        0xb c:/program files/microchip/xc32/v2.40/bin/bin/../../lib/gcc/pic32c/6.2.1/../../../../pic32c/lib\libc_nano.a(lib_a-locale.o)

.text.atof%349  0x0000e604        0xa
 .text.atof     0x0000e604        0xa c:/program files/microchip/xc32/v2.40/bin/bin/../../lib/gcc/pic32c/6.2.1/../../../../pic32c/lib\libc_nano.a(lib_a-atof.o)
                0x0000e604                atof

.text.uart_debug_megssage%350
                0x0000e60e        0x8
 .text.uart_debug_megssage
                0x0000e60e        0x8 build/sam_c21n_xpro/production/_ext/1360937237/app_uart_debug.o
                0x0000e60e                uart_debug_megssage

.rodata%351     0x0000e618        0x8
 .rodata        0x0000e618        0x8 build/sam_c21n_xpro/production/_ext/1019481632/emulated_eeprom.o

.text.SERCOM1_USART_WriteCountGet%352
                0x0000e620        0x8
 .text.SERCOM1_USART_WriteCountGet
                0x0000e620        0x8 build/sam_c21n_xpro/production/_ext/1993392304/plib_sercom1_usart.o
                0x0000e620                SERCOM1_USART_WriteCountGet

.text.SERCOM0_USART_WriteCountGet%353
                0x0000e628        0x8
 .text.SERCOM0_USART_WriteCountGet
                0x0000e628        0x8 build/sam_c21n_xpro/production/_ext/1993392304/plib_sercom0_usart.o
                0x0000e628                SERCOM0_USART_WriteCountGet

.text.SYS_INT_Disable%354
                0x0000e630        0x8
 .text.SYS_INT_Disable
                0x0000e630        0x8 build/sam_c21n_xpro/production/_ext/855761890/sys_int.o
                0x0000e630                SYS_INT_Disable

.text.SYS_INT_Restore%355
                0x0000e638        0x8
 .text.SYS_INT_Restore
                0x0000e638        0x8 build/sam_c21n_xpro/production/_ext/855761890/sys_int.o
                0x0000e638                SYS_INT_Restore

.text.timeout_handler%356
                0x0000e640        0x8
 .text.timeout_handler
                0x0000e640        0x8 build/sam_c21n_xpro/production/_ext/1360937237/main.o
                0x0000e640                timeout_handler

.text._close%357
                0x0000e648        0x8
 .text._close   0x0000e648        0x8 c:/program files/microchip/xc32/v2.40/bin/bin/../../lib/gcc/pic32c/6.2.1/../../../../pic32c/lib\libpic32c.a(_close.o)
                0x0000e648                _close

.text._fstat%358
                0x0000e650        0x8
 .text._fstat   0x0000e650        0x8 c:/program files/microchip/xc32/v2.40/bin/bin/../../lib/gcc/pic32c/6.2.1/../../../../pic32c/lib\libpic32c.a(_fstat.o)
                0x0000e650                _fstat

.text._isatty%359
                0x0000e658        0x8
 .text._isatty  0x0000e658        0x8 c:/program files/microchip/xc32/v2.40/bin/bin/../../lib/gcc/pic32c/6.2.1/../../../../pic32c/lib\libpic32c.a(_isatty.o)
                0x0000e658                _isatty

.text._lseek%360
                0x0000e660        0x8
 .text._lseek   0x0000e660        0x8 c:/program files/microchip/xc32/v2.40/bin/bin/../../lib/gcc/pic32c/6.2.1/../../../../pic32c/lib\libpic32c.a(_lseek.o)
                0x0000e660                _lseek

.text._read%361
                0x0000e668        0x8
 .text._read    0x0000e668        0x8 c:/program files/microchip/xc32/v2.40/bin/bin/../../lib/gcc/pic32c/6.2.1/../../../../pic32c/lib\libpic32c.a(_read.o)
                0x0000e668                _read

.text._write%362
                0x0000e670        0x8
 .text._write   0x0000e670        0x8 c:/program files/microchip/xc32/v2.40/bin/bin/../../lib/gcc/pic32c/6.2.1/../../../../pic32c/lib\libpic32c.a(_write.o)
                0x0000e670                _write

.text.close%363
                0x0000e678        0x8
 .text.close    0x0000e678        0x8 c:/program files/microchip/xc32/v2.40/bin/bin/../../lib/gcc/pic32c/6.2.1/../../../../pic32c/lib\libpic32c.a(close.o)
                0x0000e678                close

.text.read%364  0x0000e680        0x6
 .text.read     0x0000e680        0x6 build/sam_c21n_xpro/production/_ext/730014449/xc32_monitor.o
                0x0000e680                read

.text.write%365
                0x0000e686        0x6
 .text.write    0x0000e686        0x6 build/sam_c21n_xpro/production/_ext/730014449/xc32_monitor.o
                0x0000e686                write

.text.__locale_ctype_ptr_l%366
                0x0000e68c        0x6
 .text.__locale_ctype_ptr_l
                0x0000e68c        0x6 c:/program files/microchip/xc32/v2.40/bin/bin/../../lib/gcc/pic32c/6.2.1/../../../../pic32c/lib\libc_nano.a(lib_a-locale.o)
                0x0000e68c                __locale_ctype_ptr_l

.rodata.can0StdFilter%367
                0x0000b41c        0x4
 .rodata.can0StdFilter
                0x0000b41c        0x4 build/sam_c21n_xpro/production/_ext/1617702135/plib_can0.o

.text%368       0x0000e694        0x4
 .text          0x0000e694        0x4 c:/program files/microchip/xc32/v2.40/bin/bin/../../lib/gcc/pic32c/6.2.1\libgcc.a(_dvmd_tls.o)
                0x0000e694                __aeabi_idiv0
                0x0000e694                __aeabi_ldiv0

.rodata._global_impure_ptr%369
                0x0000e698        0x4
 .rodata._global_impure_ptr
                0x0000e698        0x4 c:/program files/microchip/xc32/v2.40/bin/bin/../../lib/gcc/pic32c/6.2.1/../../../../pic32c/lib\libc_nano.a(lib_a-impure.o)
                0x0000e698                _global_impure_ptr

.text.__localeconv_l%370
                0x0000e69c        0x4
 .text.__localeconv_l
                0x0000e69c        0x4 c:/program files/microchip/xc32/v2.40/bin/bin/../../lib/gcc/pic32c/6.2.1/../../../../pic32c/lib\libc_nano.a(lib_a-localeconv.o)
                0x0000e69c                __localeconv_l

.text.isatty%371
                0x0000e6a0        0x4
 .text.isatty   0x0000e6a0        0x4 c:/program files/microchip/xc32/v2.40/bin/bin/../../lib/gcc/pic32c/6.2.1/../../../../pic32c/lib\libpic32c.a(isatty.o)
                0x0000e6a0                isatty

.text.lseek%372
                0x0000e6a4        0x4
 .text.lseek    0x0000e6a4        0x4 c:/program files/microchip/xc32/v2.40/bin/bin/../../lib/gcc/pic32c/6.2.1/../../../../pic32c/lib\libpic32c.a(lseek.o)
                0x0000e6a4                lseek

.text.emnueeprom_init%373
                0x00007812        0x2
 .text.emnueeprom_init
                0x00007812        0x2 build/sam_c21n_xpro/production/_ext/1360937237/appemueeprom.o
                0x00007812                emnueeprom_init

.text.EVSYS_Initialize%374
                0x0000af1e        0x2
 .text.EVSYS_Initialize
                0x0000af1e        0x2 build/sam_c21n_xpro/production/_ext/163928093/plib_evsys.o
                0x0000af1e                EVSYS_Initialize

.text.Dummy_Handler%375
                0x0000b0d6        0x2
 .text.Dummy_Handler
                0x0000b0d6        0x2 build/sam_c21n_xpro/production/_ext/1758384875/interrupts.o
                0x0000b0d6                SVCall_Handler
                0x0000b0d6                DMAC_Handler
                0x0000b0d6                TC2_Handler
                0x0000b0d6                AC_Handler
                0x0000b0d6                PendSV_Handler
                0x0000b0d6                TCC1_Handler
                0x0000b0d6                TCC0_Handler
                0x0000b0d6                RTC_Handler
                0x0000b0d6                ADC1_Handler
                0x0000b0d6                WDT_Handler
                0x0000b0d6                TC4_Handler
                0x0000b0d6                TC1_Handler
                0x0000b0d6                TC3_Handler
                0x0000b0d6                SDADC_Handler
                0x0000b0d6                Dummy_Handler
                0x0000b0d6                ADC0_Handler
                0x0000b0d6                TSENS_Handler
                0x0000b0d6                TCC2_Handler
                0x0000b0d6                EVSYS_Handler
                0x0000b0d6                SERCOM3_Handler
                0x0000b0d6                NVMCTRL_Handler
                0x0000b0d6                SYSTEM_Handler
                0x0000b0d6                DAC_Handler
                0x0000b0d6                PTC_Handler
                0x0000b0d6                FREQM_Handler
                0x0000b0d6                TC0_Handler

.text.NonMaskableInt_Handler%376
                0x0000ba6a        0x2
 .text.NonMaskableInt_Handler
                0x0000ba6a        0x2 build/sam_c21n_xpro/production/_ext/1758384875/exceptions.o
                0x0000ba6a                NonMaskableInt_Handler

.text.HardFault_Handler%377
                0x0000c37e        0x2
 .text.HardFault_Handler
                0x0000c37e        0x2 build/sam_c21n_xpro/production/_ext/1758384875/exceptions.o
                0x0000c37e                HardFault_Handler

.text.Dummy_App_Func%378
                0x0000cb66        0x2
 .text.Dummy_App_Func
                0x0000cb66        0x2 build/sam_c21n_xpro/production/_ext/1758384875/startup_xc32.o
                0x0000cb66                _on_reset
                0x0000cb66                _on_bootstrap
                0x0000cb66                __xc32_on_reset
                0x0000cb66                Dummy_App_Func
                0x0000cb66                __xc32_on_bootstrap

.text.__malloc_lock%379
                0x0000cf5a        0x2
 .text.__malloc_lock
                0x0000cf5a        0x2 c:/program files/microchip/xc32/v2.40/bin/bin/../../lib/gcc/pic32c/6.2.1/../../../../pic32c/lib\libc_nano.a(lib_a-mlock.o)
                0x0000cf5a                __malloc_lock

.text.__malloc_unlock%380
                0x0000d46a        0x2
 .text.__malloc_unlock
                0x0000d46a        0x2 c:/program files/microchip/xc32/v2.40/bin/bin/../../lib/gcc/pic32c/6.2.1/../../../../pic32c/lib\libc_nano.a(lib_a-mlock.o)
                0x0000d46a                __malloc_unlock
